---
triple:          'arm64-apple-darwin'
binary-path:     '/Users/hishamalhabrosh/hisham-project/test/main'
relocations:
  - { offsetInCU: 0x49, offset: 0x49, size: 0x8, addend: 0x0, symName: __ZN13matplotlibcpp6detailL9s_backendE, symObjAddr: 0x72FD0, symBinAddr: 0x100050000, symSize: 0x0 }
  - { offsetInCU: 0x1313E, offset: 0x1313E, size: 0x8, addend: 0x0, symName: __ZNSt3__16chronomiB7v160006IxNS_5ratioILl1ELl1000000000EEExS3_EENS_11common_typeIJNS0_8durationIT_T0_EENS5_IT1_T2_EEEE4typeERKS8_RKSB_, symObjAddr: 0x5308, symBinAddr: 0x1000090A0, symSize: 0x70 }
  - { offsetInCU: 0x131BA, offset: 0x131BA, size: 0x8, addend: 0x0, symName: __ZNSt3__16chrono13duration_castB7v160006INS0_8durationIxNS_5ratioILl1ELl1EEEEExNS3_ILl1ELl1000000000EEEEENS_9enable_ifIXsr13__is_durationIT_EE5valueES8_E4typeERKNS2_IT0_T1_EE, symObjAddr: 0x1BD0, symBinAddr: 0x100005968, symSize: 0x30 }
  - { offsetInCU: 0x13201, offset: 0x13201, size: 0x8, addend: 0x0, symName: __ZNSt3__16chronomiB7v160006INS0_12steady_clockENS0_8durationIxNS_5ratioILl1ELl1000000000EEEEES6_EENS_11common_typeIJT0_T1_EE4typeERKNS0_10time_pointIT_S8_EERKNSC_ISD_S9_EE, symObjAddr: 0x1C00, symBinAddr: 0x100005998, symSize: 0x58 }
  - { offsetInCU: 0x1425A, offset: 0x1425A, size: 0x8, addend: 0x0, symName: __ZNSt3__124__put_character_sequenceB7v160006IcNS_11char_traitsIcEEEERNS_13basic_ostreamIT_T0_EES7_PKS4_m, symObjAddr: 0x5B78, symBinAddr: 0x100009910, symSize: 0x1EC }
  - { offsetInCU: 0x16625, offset: 0x16625, size: 0x8, addend: 0x0, symName: __ZNSt3__1neB7v160006IP15ScheduledModuleEEbRKNS_11__wrap_iterIT_EES7_, symObjAddr: 0x7A0, symBinAddr: 0x100004538, symSize: 0x34 }
  - { offsetInCU: 0x16668, offset: 0x16668, size: 0x8, addend: 0x0, symName: __ZNSt3__1lsB7v160006INS_11char_traitsIcEEEERNS_13basic_ostreamIcT_EES6_PKc, symObjAddr: 0x7EC, symBinAddr: 0x100004584, symSize: 0x48 }
  - { offsetInCU: 0x166AE, offset: 0x166AE, size: 0x8, addend: 0x0, symName: __ZNSt3__1lsB7v160006IcNS_11char_traitsIcEENS_9allocatorIcEEEERNS_13basic_ostreamIT_T0_EES9_RKNS_12basic_stringIS6_S7_T1_EE, symObjAddr: 0x834, symBinAddr: 0x1000045CC, symSize: 0x4C }
  - { offsetInCU: 0x16E3C, offset: 0x16E3C, size: 0x8, addend: 0x0, symName: __ZNSt3__17getlineB7v160006IcNS_11char_traitsIcEENS_9allocatorIcEEEERNS_13basic_istreamIT_T0_EES9_RNS_12basic_stringIS6_S7_T1_EE, symObjAddr: 0xF60, symBinAddr: 0x100004CF8, symSize: 0x5C }
  - { offsetInCU: 0x16E9F, offset: 0x16E9F, size: 0x8, addend: 0x0, symName: __ZNSt3__14endlB7v160006IcNS_11char_traitsIcEEEERNS_13basic_ostreamIT_T0_EES7_, symObjAddr: 0x1B4C, symBinAddr: 0x1000058E4, symSize: 0x58 }
  - { offsetInCU: 0x16EDF, offset: 0x16EDF, size: 0x8, addend: 0x0, symName: __ZNSt3__118__debug_db_erase_cB7v160006INS_6vectorI8LecturerNS_9allocatorIS2_EEEEEEvPT_, symObjAddr: 0x1EC0, symBinAddr: 0x100005C58, symSize: 0x10 }
  - { offsetInCU: 0x16F10, offset: 0x16F10, size: 0x8, addend: 0x0, symName: __ZNSt3__112__to_addressB7v160006I8LecturerEEPT_S3_, symObjAddr: 0x2004, symBinAddr: 0x100005D9C, symSize: 0x14 }
  - { offsetInCU: 0x16F45, offset: 0x16F45, size: 0x8, addend: 0x0, symName: __ZNSt3__110destroy_atB7v160006I8LecturerLi0EEEvPT_, symObjAddr: 0x20CC, symBinAddr: 0x100005E64, symSize: 0x24 }
  - { offsetInCU: 0x16F7C, offset: 0x16F7C, size: 0x8, addend: 0x0, symName: __ZNSt3__112__destroy_atB7v160006I8LecturerLi0EEEvPT_, symObjAddr: 0x20F0, symBinAddr: 0x100005E88, symSize: 0x24 }
  - { offsetInCU: 0x16FB3, offset: 0x16FB3, size: 0x8, addend: 0x0, symName: __ZNSt3__119__libcpp_deallocateB7v160006EPvmm, symObjAddr: 0x21B0, symBinAddr: 0x100005F48, symSize: 0x60 }
  - { offsetInCU: 0x17018, offset: 0x17018, size: 0x8, addend: 0x0, symName: __ZNSt3__124__is_overaligned_for_newB7v160006Em, symObjAddr: 0x2210, symBinAddr: 0x100005FA8, symSize: 0x20 }
  - { offsetInCU: 0x17046, offset: 0x17046, size: 0x8, addend: 0x0, symName: __ZNSt3__127__do_deallocate_handle_sizeB7v160006IJSt11align_val_tEEEvPvmDpT_, symObjAddr: 0x2230, symBinAddr: 0x100005FC8, symSize: 0x30 }
  - { offsetInCU: 0x17099, offset: 0x17099, size: 0x8, addend: 0x0, symName: __ZNSt3__127__do_deallocate_handle_sizeB7v160006IJEEEvPvmDpT_, symObjAddr: 0x2260, symBinAddr: 0x100005FF8, symSize: 0x28 }
  - { offsetInCU: 0x170D7, offset: 0x170D7, size: 0x8, addend: 0x0, symName: __ZNSt3__124__libcpp_operator_deleteB7v160006IJPvSt11align_val_tEEEvDpT_, symObjAddr: 0x2288, symBinAddr: 0x100006020, symSize: 0x2C }
  - { offsetInCU: 0x17120, offset: 0x17120, size: 0x8, addend: 0x0, symName: __ZNSt3__124__libcpp_operator_deleteB7v160006IJPvEEEvDpT_, symObjAddr: 0x22B4, symBinAddr: 0x10000604C, symSize: 0x24 }
  - { offsetInCU: 0x17155, offset: 0x17155, size: 0x8, addend: 0x0, symName: __ZNSt3__118__debug_db_erase_cB7v160006INS_6vectorI8TimeSlotNS_9allocatorIS2_EEEEEEvPT_, symObjAddr: 0x2578, symBinAddr: 0x100006310, symSize: 0x10 }
  - { offsetInCU: 0x17186, offset: 0x17186, size: 0x8, addend: 0x0, symName: __ZNSt3__112__to_addressB7v160006I8TimeSlotEEPT_S3_, symObjAddr: 0x26BC, symBinAddr: 0x100006454, symSize: 0x14 }
  - { offsetInCU: 0x171BB, offset: 0x171BB, size: 0x8, addend: 0x0, symName: __ZNSt3__110destroy_atB7v160006I8TimeSlotLi0EEEvPT_, symObjAddr: 0x2784, symBinAddr: 0x10000651C, symSize: 0x24 }
  - { offsetInCU: 0x171F2, offset: 0x171F2, size: 0x8, addend: 0x0, symName: __ZNSt3__112__destroy_atB7v160006I8TimeSlotLi0EEEvPT_, symObjAddr: 0x27A8, symBinAddr: 0x100006540, symSize: 0x24 }
  - { offsetInCU: 0x17229, offset: 0x17229, size: 0x8, addend: 0x0, symName: __ZNSt3__118__debug_db_erase_cB7v160006INS_6vectorI6ModuleNS_9allocatorIS2_EEEEEEvPT_, symObjAddr: 0x2AB0, symBinAddr: 0x100006848, symSize: 0x10 }
  - { offsetInCU: 0x1725A, offset: 0x1725A, size: 0x8, addend: 0x0, symName: __ZNSt3__112__to_addressB7v160006I6ModuleEEPT_S3_, symObjAddr: 0x2BF4, symBinAddr: 0x10000698C, symSize: 0x14 }
  - { offsetInCU: 0x1728F, offset: 0x1728F, size: 0x8, addend: 0x0, symName: __ZNSt3__110destroy_atB7v160006I6ModuleLi0EEEvPT_, symObjAddr: 0x2CBC, symBinAddr: 0x100006A54, symSize: 0x24 }
  - { offsetInCU: 0x172C6, offset: 0x172C6, size: 0x8, addend: 0x0, symName: __ZNSt3__112__destroy_atB7v160006I6ModuleLi0EEEvPT_, symObjAddr: 0x2CE0, symBinAddr: 0x100006A78, symSize: 0x24 }
  - { offsetInCU: 0x172FD, offset: 0x172FD, size: 0x8, addend: 0x0, symName: __ZNSt3__118__debug_db_erase_cB7v160006INS_6vectorI5VenueNS_9allocatorIS2_EEEEEEvPT_, symObjAddr: 0x2FE8, symBinAddr: 0x100006D80, symSize: 0x10 }
  - { offsetInCU: 0x1732E, offset: 0x1732E, size: 0x8, addend: 0x0, symName: __ZNSt3__112__to_addressB7v160006I5VenueEEPT_S3_, symObjAddr: 0x312C, symBinAddr: 0x100006EC4, symSize: 0x14 }
  - { offsetInCU: 0x17363, offset: 0x17363, size: 0x8, addend: 0x0, symName: __ZNSt3__110destroy_atB7v160006I5VenueLi0EEEvPT_, symObjAddr: 0x31F4, symBinAddr: 0x100006F8C, symSize: 0x24 }
  - { offsetInCU: 0x1739A, offset: 0x1739A, size: 0x8, addend: 0x0, symName: __ZNSt3__112__destroy_atB7v160006I5VenueLi0EEEvPT_, symObjAddr: 0x3218, symBinAddr: 0x100006FB0, symSize: 0x24 }
  - { offsetInCU: 0x173D1, offset: 0x173D1, size: 0x8, addend: 0x0, symName: __ZNSt3__118__debug_db_erase_cB7v160006INS_6vectorI26LecturerTimeSlotPreferenceNS_9allocatorIS2_EEEEEEvPT_, symObjAddr: 0x3504, symBinAddr: 0x10000729C, symSize: 0x10 }
  - { offsetInCU: 0x17402, offset: 0x17402, size: 0x8, addend: 0x0, symName: __ZNSt3__112__to_addressB7v160006I26LecturerTimeSlotPreferenceEEPT_S3_, symObjAddr: 0x3648, symBinAddr: 0x1000073E0, symSize: 0x14 }
  - { offsetInCU: 0x17437, offset: 0x17437, size: 0x8, addend: 0x0, symName: __ZNSt3__110destroy_atB7v160006I26LecturerTimeSlotPreferenceLi0EEEvPT_, symObjAddr: 0x3710, symBinAddr: 0x1000074A8, symSize: 0x24 }
  - { offsetInCU: 0x1746E, offset: 0x1746E, size: 0x8, addend: 0x0, symName: __ZNSt3__112__destroy_atB7v160006I26LecturerTimeSlotPreferenceLi0EEEvPT_, symObjAddr: 0x3734, symBinAddr: 0x1000074CC, symSize: 0x24 }
  - { offsetInCU: 0x174A5, offset: 0x174A5, size: 0x8, addend: 0x0, symName: __ZNSt3__118__debug_db_erase_cB7v160006INS_6vectorI10ChromosomeNS_9allocatorIS2_EEEEEEvPT_, symObjAddr: 0x3A9C, symBinAddr: 0x100007834, symSize: 0x10 }
  - { offsetInCU: 0x174D6, offset: 0x174D6, size: 0x8, addend: 0x0, symName: __ZNSt3__112__to_addressB7v160006I10ChromosomeEEPT_S3_, symObjAddr: 0x3BE0, symBinAddr: 0x100007978, symSize: 0x14 }
  - { offsetInCU: 0x1750B, offset: 0x1750B, size: 0x8, addend: 0x0, symName: __ZNSt3__110destroy_atB7v160006I10ChromosomeLi0EEEvPT_, symObjAddr: 0x3CA8, symBinAddr: 0x100007A40, symSize: 0x24 }
  - { offsetInCU: 0x17542, offset: 0x17542, size: 0x8, addend: 0x0, symName: __ZNSt3__112__destroy_atB7v160006I10ChromosomeLi0EEEvPT_, symObjAddr: 0x3CCC, symBinAddr: 0x100007A64, symSize: 0x24 }
  - { offsetInCU: 0x17579, offset: 0x17579, size: 0x8, addend: 0x0, symName: __ZNSt3__1eqB7v160006IP15ScheduledModuleEEbRKNS_11__wrap_iterIT_EES7_, symObjAddr: 0x3E60, symBinAddr: 0x100007BF8, symSize: 0x48 }
  - { offsetInCU: 0x175BC, offset: 0x175BC, size: 0x8, addend: 0x0, symName: __ZNSt3__118__debug_db_erase_cB7v160006INS_6vectorI15ScheduledModuleNS_9allocatorIS2_EEEEEEvPT_, symObjAddr: 0x4170, symBinAddr: 0x100007F08, symSize: 0x10 }
  - { offsetInCU: 0x175ED, offset: 0x175ED, size: 0x8, addend: 0x0, symName: __ZNSt3__112__to_addressB7v160006I15ScheduledModuleEEPT_S3_, symObjAddr: 0x42B4, symBinAddr: 0x10000804C, symSize: 0x14 }
  - { offsetInCU: 0x17622, offset: 0x17622, size: 0x8, addend: 0x0, symName: __ZNSt3__110destroy_atB7v160006I15ScheduledModuleLi0EEEvPT_, symObjAddr: 0x437C, symBinAddr: 0x100008114, symSize: 0x24 }
  - { offsetInCU: 0x17659, offset: 0x17659, size: 0x8, addend: 0x0, symName: __ZNSt3__112__destroy_atB7v160006I15ScheduledModuleLi0EEEvPT_, symObjAddr: 0x43A0, symBinAddr: 0x100008138, symSize: 0x24 }
  - { offsetInCU: 0x17690, offset: 0x17690, size: 0x8, addend: 0x0, symName: __ZNSt3__119__debug_db_insert_cB7v160006INS_12basic_stringIcNS_11char_traitsIcEENS_9allocatorIcEEEEEEvPT_, symObjAddr: 0x45BC, symBinAddr: 0x100008354, symSize: 0x10 }
  - { offsetInCU: 0x176C1, offset: 0x176C1, size: 0x8, addend: 0x0, symName: __ZNSt3__112__to_addressB7v160006IKcEEPT_S3_, symObjAddr: 0x4914, symBinAddr: 0x1000086AC, symSize: 0x14 }
  - { offsetInCU: 0x17729, offset: 0x17729, size: 0x8, addend: 0x0, symName: __ZNSt3__120__throw_out_of_rangeB7v160006EPKc, symObjAddr: 0x4D5C, symBinAddr: 0x100008AF4, symSize: 0x64 }
  - { offsetInCU: 0x17753, offset: 0x17753, size: 0x8, addend: 0x0, symName: __ZNSt3__13minB7v160006ImEERKT_S3_S3_, symObjAddr: 0x4E04, symBinAddr: 0x100008B9C, symSize: 0x2C }
  - { offsetInCU: 0x17796, offset: 0x17796, size: 0x8, addend: 0x0, symName: __ZNSt3__13minB7v160006ImNS_6__lessImmEEEERKT_S5_S5_T0_, symObjAddr: 0x4ECC, symBinAddr: 0x100008C64, symSize: 0x54 }
  - { offsetInCU: 0x1782B, offset: 0x1782B, size: 0x8, addend: 0x0, symName: __ZNSt3__118__constexpr_memcmpB7v160006IcEEiPKT_S3_m, symObjAddr: 0x4FC0, symBinAddr: 0x100008D58, symSize: 0x34 }
  - { offsetInCU: 0x1787C, offset: 0x1787C, size: 0x8, addend: 0x0, symName: __ZNSt3__128__char_traits_length_checkedB7v160006INS_11char_traitsIcEEEEmPKNT_9char_typeE, symObjAddr: 0x5038, symBinAddr: 0x100008DD0, symSize: 0x24 }
  - { offsetInCU: 0x178B1, offset: 0x178B1, size: 0x8, addend: 0x0, symName: __ZNSt3__118__constexpr_strlenB7v160006EPKc, symObjAddr: 0x5090, symBinAddr: 0x100008E28, symSize: 0x24 }
  - { offsetInCU: 0x178F9, offset: 0x178F9, size: 0x8, addend: 0x0, symName: __ZNSt3__118__debug_db_erase_cB7v160006INS_6vectorIdNS_9allocatorIdEEEEEEvPT_, symObjAddr: 0x5658, symBinAddr: 0x1000093F0, symSize: 0x10 }
  - { offsetInCU: 0x1792A, offset: 0x1792A, size: 0x8, addend: 0x0, symName: __ZNSt3__112__to_addressB7v160006IdEEPT_S2_, symObjAddr: 0x579C, symBinAddr: 0x100009534, symSize: 0x14 }
  - { offsetInCU: 0x1795F, offset: 0x1795F, size: 0x8, addend: 0x0, symName: __ZNSt3__110destroy_atB7v160006IdLi0EEEvPT_, symObjAddr: 0x5864, symBinAddr: 0x1000095FC, symSize: 0x24 }
  - { offsetInCU: 0x17996, offset: 0x17996, size: 0x8, addend: 0x0, symName: __ZNSt3__112__destroy_atB7v160006IdLi0EEEvPT_, symObjAddr: 0x5888, symBinAddr: 0x100009620, symSize: 0x10 }
  - { offsetInCU: 0x179CD, offset: 0x179CD, size: 0x8, addend: 0x0, symName: __ZNSt3__116__pad_and_outputB7v160006IcNS_11char_traitsIcEEEENS_19ostreambuf_iteratorIT_T0_EES6_PKS4_S8_S8_RNS_8ios_baseES4_, symObjAddr: 0x5D80, symBinAddr: 0x100009B18, symSize: 0x240 }
  - { offsetInCU: 0x17A9C, offset: 0x17A9C, size: 0x8, addend: 0x0, symName: __ZNSt3__112__to_addressB7v160006IcEEPT_S2_, symObjAddr: 0x61CC, symBinAddr: 0x100009F64, symSize: 0x14 }
  - { offsetInCU: 0x17AD1, offset: 0x17AD1, size: 0x8, addend: 0x0, symName: __ZNSt3__19use_facetB7v160006INS_5ctypeIcEEEERKT_RKNS_6localeE, symObjAddr: 0x63D4, symBinAddr: 0x10000A16C, symSize: 0x2C }
  - { offsetInCU: 0x17FA0, offset: 0x17FA0, size: 0x8, addend: 0x0, symName: __ZNSt3__17getlineB7v160006IcNS_11char_traitsIcEENS_9allocatorIcEEEERNS_13basic_istreamIT_T0_EES9_RNS_12basic_stringIS6_S7_T1_EES6_, symObjAddr: 0x649C, symBinAddr: 0x10000A234, symSize: 0x238 }
  - { offsetInCU: 0x1805E, offset: 0x1805E, size: 0x8, addend: 0x0, symName: __ZNSt3__125__debug_db_invalidate_allB7v160006INS_12basic_stringIcNS_11char_traitsIcEENS_9allocatorIcEEEEEEvPT_, symObjAddr: 0x6964, symBinAddr: 0x10000A6FC, symSize: 0x10 }
  - { offsetInCU: 0x18A3E, offset: 0x18A3E, size: 0x8, addend: 0x0, symName: _allLecturers, symObjAddr: 0x72FE8, symBinAddr: 0x100050020, symSize: 0x0 }
  - { offsetInCU: 0x18C61, offset: 0x18C61, size: 0x8, addend: 0x0, symName: _allTimeSlots, symObjAddr: 0x73000, symBinAddr: 0x100050038, symSize: 0x0 }
  - { offsetInCU: 0x18EE4, offset: 0x18EE4, size: 0x8, addend: 0x0, symName: _allModules, symObjAddr: 0x73018, symBinAddr: 0x100050050, symSize: 0x0 }
  - { offsetInCU: 0x19233, offset: 0x19233, size: 0x8, addend: 0x0, symName: _allVenues, symObjAddr: 0x73030, symBinAddr: 0x100050068, symSize: 0x0 }
  - { offsetInCU: 0x194C8, offset: 0x194C8, size: 0x8, addend: 0x0, symName: _globalLecturerPreferences, symObjAddr: 0x73048, symBinAddr: 0x100050080, symSize: 0x0 }
  - { offsetInCU: 0x196C0, offset: 0x196C0, size: 0x8, addend: 0x0, symName: _initialPopulation, symObjAddr: 0x73060, symBinAddr: 0x100050098, symSize: 0x0 }
  - { offsetInCU: 0x1A435, offset: 0x1A435, size: 0x8, addend: 0x0, symName: __ZNKSt3__16chrono15__duration_castINS0_8durationIxNS_5ratioILl1ELl1000000000EEEEENS2_IxNS3_ILl1ELl1EEEEES4_Lb1ELb0EEclB7v160006ERKS5_, symObjAddr: 0x5240, symBinAddr: 0x100008FD8, symSize: 0x4C }
  - { offsetInCU: 0x1C849, offset: 0x1C849, size: 0x8, addend: 0x0, symName: __ZNSt3__16vectorI8LecturerNS_9allocatorIS1_EEED1B7v160006Ev, symObjAddr: 0x0, symBinAddr: 0x100003D98, symSize: 0x2C }
  - { offsetInCU: 0x1C873, offset: 0x1C873, size: 0x8, addend: 0x0, symName: __ZNSt3__16vectorI8TimeSlotNS_9allocatorIS1_EEED1B7v160006Ev, symObjAddr: 0x2C, symBinAddr: 0x100003DC4, symSize: 0x2C }
  - { offsetInCU: 0x1C89D, offset: 0x1C89D, size: 0x8, addend: 0x0, symName: __ZNSt3__16vectorI6ModuleNS_9allocatorIS1_EEED1B7v160006Ev, symObjAddr: 0x58, symBinAddr: 0x100003DF0, symSize: 0x2C }
  - { offsetInCU: 0x1C8C7, offset: 0x1C8C7, size: 0x8, addend: 0x0, symName: __ZNSt3__16vectorI5VenueNS_9allocatorIS1_EEED1B7v160006Ev, symObjAddr: 0x84, symBinAddr: 0x100003E1C, symSize: 0x2C }
  - { offsetInCU: 0x1C8F1, offset: 0x1C8F1, size: 0x8, addend: 0x0, symName: __ZNSt3__16vectorI26LecturerTimeSlotPreferenceNS_9allocatorIS1_EEED1B7v160006Ev, symObjAddr: 0xB0, symBinAddr: 0x100003E48, symSize: 0x2C }
  - { offsetInCU: 0x1C91B, offset: 0x1C91B, size: 0x8, addend: 0x0, symName: __ZNSt3__16vectorI10ChromosomeNS_9allocatorIS1_EEED1B7v160006Ev, symObjAddr: 0xDC, symBinAddr: 0x100003E74, symSize: 0x2C }
  - { offsetInCU: 0x1C944, offset: 0x1C944, size: 0x8, addend: 0x0, symName: __Z20chromosomeToTextFileRK10ChromosomeRKNSt3__112basic_stringIcNS2_11char_traitsIcEENS2_9allocatorIcEEEE, symObjAddr: 0x108, symBinAddr: 0x100003EA0, symSize: 0x4CC }
  - { offsetInCU: 0x1CA83, offset: 0x1CA83, size: 0x8, addend: 0x0, symName: __ZNSt3__114basic_ofstreamIcNS_11char_traitsIcEEEC1ERKNS_12basic_stringIcS2_NS_9allocatorIcEEEEj, symObjAddr: 0x5D4, symBinAddr: 0x10000436C, symSize: 0x16C }
  - { offsetInCU: 0x1CACD, offset: 0x1CACD, size: 0x8, addend: 0x0, symName: __ZNSt3__16vectorI15ScheduledModuleNS_9allocatorIS1_EEE5beginB7v160006Ev, symObjAddr: 0x740, symBinAddr: 0x1000044D8, symSize: 0x30 }
  - { offsetInCU: 0x1CAF5, offset: 0x1CAF5, size: 0x8, addend: 0x0, symName: __ZNSt3__16vectorI15ScheduledModuleNS_9allocatorIS1_EEE3endB7v160006Ev, symObjAddr: 0x770, symBinAddr: 0x100004508, symSize: 0x30 }
  - { offsetInCU: 0x1CB1D, offset: 0x1CB1D, size: 0x8, addend: 0x0, symName: __ZNKSt3__111__wrap_iterIP15ScheduledModuleEdeB7v160006Ev, symObjAddr: 0x7D4, symBinAddr: 0x10000456C, symSize: 0x18 }
  - { offsetInCU: 0x1CB43, offset: 0x1CB43, size: 0x8, addend: 0x0, symName: __ZN6ModuleD1Ev, symObjAddr: 0x880, symBinAddr: 0x100004618, symSize: 0x2C }
  - { offsetInCU: 0x1CB6F, offset: 0x1CB6F, size: 0x8, addend: 0x0, symName: __ZN8TimeSlotD1Ev, symObjAddr: 0x8AC, symBinAddr: 0x100004644, symSize: 0x2C }
  - { offsetInCU: 0x1CB9B, offset: 0x1CB9B, size: 0x8, addend: 0x0, symName: __ZN5VenueD1Ev, symObjAddr: 0x8D8, symBinAddr: 0x100004670, symSize: 0x2C }
  - { offsetInCU: 0x1CBC7, offset: 0x1CBC7, size: 0x8, addend: 0x0, symName: __ZNSt3__111__wrap_iterIP15ScheduledModuleEppB7v160006Ev, symObjAddr: 0x904, symBinAddr: 0x10000469C, symSize: 0x20 }
  - { offsetInCU: 0x1CBED, offset: 0x1CBED, size: 0x8, addend: 0x0, symName: __ZNSt3__16vectorI15ScheduledModuleNS_9allocatorIS1_EEED1B7v160006Ev, symObjAddr: 0x924, symBinAddr: 0x1000046BC, symSize: 0x2C }
  - { offsetInCU: 0x1CC17, offset: 0x1CC17, size: 0x8, addend: 0x0, symName: __ZNSt3__114basic_ofstreamIcNS_11char_traitsIcEEE5closeEv, symObjAddr: 0x950, symBinAddr: 0x1000046E8, symSize: 0x58 }
  - { offsetInCU: 0x1CC44, offset: 0x1CC44, size: 0x8, addend: 0x0, symName: __ZNSt3__114basic_ofstreamIcNS_11char_traitsIcEEED1Ev, symObjAddr: 0x9A8, symBinAddr: 0x100004740, symSize: 0x40 }
  - { offsetInCU: 0x1CC70, offset: 0x1CC70, size: 0x8, addend: 0x0, symName: __Z20textFileToChromosomeRKNSt3__112basic_stringIcNS_11char_traitsIcEENS_9allocatorIcEEEE, symObjAddr: 0x9E8, symBinAddr: 0x100004780, symSize: 0x3E0 }
  - { offsetInCU: 0x1CD9D, offset: 0x1CD9D, size: 0x8, addend: 0x0, symName: __ZNSt3__114basic_ifstreamIcNS_11char_traitsIcEEEC1ERKNS_12basic_stringIcS2_NS_9allocatorIcEEEEj, symObjAddr: 0xDC8, symBinAddr: 0x100004B60, symSize: 0x16C }
  - { offsetInCU: 0x1CDE7, offset: 0x1CDE7, size: 0x8, addend: 0x0, symName: __ZNSt3__112basic_stringIcNS_11char_traitsIcEENS_9allocatorIcEEEC1B7v160006Ev, symObjAddr: 0xF34, symBinAddr: 0x100004CCC, symSize: 0x2C }
  - { offsetInCU: 0x1CE11, offset: 0x1CE11, size: 0x8, addend: 0x0, symName: __ZNKSt3__19basic_iosIcNS_11char_traitsIcEEEcvbB7v160006Ev, symObjAddr: 0xFBC, symBinAddr: 0x100004D54, symSize: 0x2C }
  - { offsetInCU: 0x1CE37, offset: 0x1CE37, size: 0x8, addend: 0x0, symName: __ZNKSt3__112basic_stringIcNS_11char_traitsIcEENS_9allocatorIcEEE11starts_withB7v160006EPKc, symObjAddr: 0xFE8, symBinAddr: 0x100004D80, symSize: 0x50 }
  - { offsetInCU: 0x1CE6C, offset: 0x1CE6C, size: 0x8, addend: 0x0, symName: __ZN15ScheduledModuleD1Ev, symObjAddr: 0x1038, symBinAddr: 0x100004DD0, symSize: 0x2C }
  - { offsetInCU: 0x1CE98, offset: 0x1CE98, size: 0x8, addend: 0x0, symName: __ZNSt3__114basic_ifstreamIcNS_11char_traitsIcEEE5closeEv, symObjAddr: 0x1064, symBinAddr: 0x100004DFC, symSize: 0x58 }
  - { offsetInCU: 0x1CEC0, offset: 0x1CEC0, size: 0x8, addend: 0x0, symName: __ZN10ChromosomeD1Ev, symObjAddr: 0x10BC, symBinAddr: 0x100004E54, symSize: 0x2C }
  - { offsetInCU: 0x1CEF1, offset: 0x1CEF1, size: 0x8, addend: 0x0, symName: __ZNSt3__114basic_ifstreamIcNS_11char_traitsIcEEED1Ev, symObjAddr: 0x10E8, symBinAddr: 0x100004E80, symSize: 0x40 }
  - { offsetInCU: 0x1CF1E, offset: 0x1CF1E, size: 0x8, addend: 0x0, symName: _main, symObjAddr: 0x1128, symBinAddr: 0x100004EC0, symSize: 0x9C4 }
  - { offsetInCU: 0x1D100, offset: 0x1D100, size: 0x8, addend: 0x0, symName: __ZNSt3__112basic_stringIcNS_11char_traitsIcEENS_9allocatorIcEEEC1B7v160006IDnEEPKc, symObjAddr: 0x1AEC, symBinAddr: 0x100005884, symSize: 0x34 }
  - { offsetInCU: 0x1D13E, offset: 0x1D13E, size: 0x8, addend: 0x0, symName: __ZNSt3__113basic_ostreamIcNS_11char_traitsIcEEElsB7v160006EPFRS3_S4_E, symObjAddr: 0x1B20, symBinAddr: 0x1000058B8, symSize: 0x2C }
  - { offsetInCU: 0x1D172, offset: 0x1D172, size: 0x8, addend: 0x0, symName: __ZNSt3__14pairIiNS_12basic_stringIcNS_11char_traitsIcEENS_9allocatorIcEEEEED1Ev, symObjAddr: 0x1BA4, symBinAddr: 0x10000593C, symSize: 0x2C }
  - { offsetInCU: 0x1D19E, offset: 0x1D19E, size: 0x8, addend: 0x0, symName: __ZNKSt3__16chrono8durationIxNS_5ratioILl1ELl1EEEE5countB7v160006Ev, symObjAddr: 0x1C58, symBinAddr: 0x1000059F0, symSize: 0x18 }
  - { offsetInCU: 0x1D5E6, offset: 0x1D5E6, size: 0x8, addend: 0x0, symName: __ZN16GeneticAlgorithmD1Ev, symObjAddr: 0x1C70, symBinAddr: 0x100005A08, symSize: 0x2C }
  - { offsetInCU: 0x1D612, offset: 0x1D612, size: 0x8, addend: 0x0, symName: __ZN10PopulationD1Ev, symObjAddr: 0x1C9C, symBinAddr: 0x100005A34, symSize: 0x2C }
  - { offsetInCU: 0x1D63E, offset: 0x1D63E, size: 0x8, addend: 0x0, symName: __ZNSt3__16vectorI8LecturerNS_9allocatorIS1_EEED2B7v160006Ev, symObjAddr: 0x1CC8, symBinAddr: 0x100005A60, symSize: 0x44 }
  - { offsetInCU: 0x1D668, offset: 0x1D668, size: 0x8, addend: 0x0, symName: __ZNSt3__16vectorI8LecturerNS_9allocatorIS1_EEE16__destroy_vectorC1ERS4_, symObjAddr: 0x1D0C, symBinAddr: 0x100005AA4, symSize: 0x34 }
  - { offsetInCU: 0x1D6A1, offset: 0x1D6A1, size: 0x8, addend: 0x0, symName: __ZNSt3__16vectorI8LecturerNS_9allocatorIS1_EEE16__destroy_vectorclB7v160006Ev, symObjAddr: 0x1D4C, symBinAddr: 0x100005AE4, symSize: 0x9C }
  - { offsetInCU: 0x1D6C7, offset: 0x1D6C7, size: 0x8, addend: 0x0, symName: __ZNSt3__16vectorI8LecturerNS_9allocatorIS1_EEE16__destroy_vectorC2ERS4_, symObjAddr: 0x1DE8, symBinAddr: 0x100005B80, symSize: 0x20 }
  - { offsetInCU: 0x1D700, offset: 0x1D700, size: 0x8, addend: 0x0, symName: __ZNKSt3__16vectorI8LecturerNS_9allocatorIS1_EEE17__annotate_deleteB7v160006Ev, symObjAddr: 0x1E08, symBinAddr: 0x100005BA0, symSize: 0xB8 }
  - { offsetInCU: 0x1D726, offset: 0x1D726, size: 0x8, addend: 0x0, symName: __ZNSt3__16vectorI8LecturerNS_9allocatorIS1_EEE7__clearB7v160006Ev, symObjAddr: 0x1ED0, symBinAddr: 0x100005C68, symSize: 0x28 }
  - { offsetInCU: 0x1D74C, offset: 0x1D74C, size: 0x8, addend: 0x0, symName: __ZNSt3__116allocator_traitsINS_9allocatorI8LecturerEEE10deallocateB7v160006ERS3_PS2_m, symObjAddr: 0x1EF8, symBinAddr: 0x100005C90, symSize: 0x34 }
  - { offsetInCU: 0x1D78E, offset: 0x1D78E, size: 0x8, addend: 0x0, symName: __ZNSt3__16vectorI8LecturerNS_9allocatorIS1_EEE7__allocB7v160006Ev, symObjAddr: 0x1F2C, symBinAddr: 0x100005CC4, symSize: 0x28 }
  - { offsetInCU: 0x1D7B4, offset: 0x1D7B4, size: 0x8, addend: 0x0, symName: __ZNKSt3__16vectorI8LecturerNS_9allocatorIS1_EEE8capacityB7v160006Ev, symObjAddr: 0x1F54, symBinAddr: 0x100005CEC, symSize: 0x40 }
  - { offsetInCU: 0x1D7DA, offset: 0x1D7DA, size: 0x8, addend: 0x0, symName: __ZNKSt3__16vectorI8LecturerNS_9allocatorIS1_EEE31__annotate_contiguous_containerB7v160006EPKvS6_S6_S6_, symObjAddr: 0x1F94, symBinAddr: 0x100005D2C, symSize: 0x20 }
  - { offsetInCU: 0x1D830, offset: 0x1D830, size: 0x8, addend: 0x0, symName: __ZNKSt3__16vectorI8LecturerNS_9allocatorIS1_EEE4dataB7v160006Ev, symObjAddr: 0x1FB4, symBinAddr: 0x100005D4C, symSize: 0x28 }
  - { offsetInCU: 0x1D856, offset: 0x1D856, size: 0x8, addend: 0x0, symName: __ZNKSt3__16vectorI8LecturerNS_9allocatorIS1_EEE4sizeB7v160006Ev, symObjAddr: 0x1FDC, symBinAddr: 0x100005D74, symSize: 0x28 }
  - { offsetInCU: 0x1D87C, offset: 0x1D87C, size: 0x8, addend: 0x0, symName: __ZNSt3__16vectorI8LecturerNS_9allocatorIS1_EEE22__base_destruct_at_endB7v160006EPS1_, symObjAddr: 0x2018, symBinAddr: 0x100005DB0, symSize: 0x8C }
  - { offsetInCU: 0x1D8C0, offset: 0x1D8C0, size: 0x8, addend: 0x0, symName: __ZNSt3__116allocator_traitsINS_9allocatorI8LecturerEEE7destroyB7v160006IS2_vvEEvRS3_PT_, symObjAddr: 0x20A4, symBinAddr: 0x100005E3C, symSize: 0x28 }
  - { offsetInCU: 0x1D8FB, offset: 0x1D8FB, size: 0x8, addend: 0x0, symName: __ZN8LecturerD1Ev, symObjAddr: 0x2114, symBinAddr: 0x100005EAC, symSize: 0x2C }
  - { offsetInCU: 0x1D927, offset: 0x1D927, size: 0x8, addend: 0x0, symName: __ZN8LecturerD2Ev, symObjAddr: 0x2140, symBinAddr: 0x100005ED8, symSize: 0x30 }
  - { offsetInCU: 0x1D953, offset: 0x1D953, size: 0x8, addend: 0x0, symName: __ZNSt3__19allocatorI8LecturerE10deallocateB7v160006EPS1_m, symObjAddr: 0x2170, symBinAddr: 0x100005F08, symSize: 0x40 }
  - { offsetInCU: 0x1D995, offset: 0x1D995, size: 0x8, addend: 0x0, symName: __ZNSt3__117__compressed_pairIP8LecturerNS_9allocatorIS1_EEE6secondB7v160006Ev, symObjAddr: 0x22D8, symBinAddr: 0x100006070, symSize: 0x24 }
  - { offsetInCU: 0x1D9BB, offset: 0x1D9BB, size: 0x8, addend: 0x0, symName: __ZNSt3__122__compressed_pair_elemINS_9allocatorI8LecturerEELi1ELb1EE5__getB7v160006Ev, symObjAddr: 0x22FC, symBinAddr: 0x100006094, symSize: 0x14 }
  - { offsetInCU: 0x1D9E1, offset: 0x1D9E1, size: 0x8, addend: 0x0, symName: __ZNKSt3__16vectorI8LecturerNS_9allocatorIS1_EEE9__end_capB7v160006Ev, symObjAddr: 0x2310, symBinAddr: 0x1000060A8, symSize: 0x28 }
  - { offsetInCU: 0x1DA07, offset: 0x1DA07, size: 0x8, addend: 0x0, symName: __ZNKSt3__117__compressed_pairIP8LecturerNS_9allocatorIS1_EEE5firstB7v160006Ev, symObjAddr: 0x2338, symBinAddr: 0x1000060D0, symSize: 0x24 }
  - { offsetInCU: 0x1DA2D, offset: 0x1DA2D, size: 0x8, addend: 0x0, symName: __ZNKSt3__122__compressed_pair_elemIP8LecturerLi0ELb0EE5__getB7v160006Ev, symObjAddr: 0x235C, symBinAddr: 0x1000060F4, symSize: 0x14 }
  - { offsetInCU: 0x1DA53, offset: 0x1DA53, size: 0x8, addend: 0x0, symName: __ZNSt3__16vectorI8TimeSlotNS_9allocatorIS1_EEED2B7v160006Ev, symObjAddr: 0x2370, symBinAddr: 0x100006108, symSize: 0x44 }
  - { offsetInCU: 0x1DA7D, offset: 0x1DA7D, size: 0x8, addend: 0x0, symName: __ZNSt3__16vectorI8TimeSlotNS_9allocatorIS1_EEE16__destroy_vectorC1ERS4_, symObjAddr: 0x23B4, symBinAddr: 0x10000614C, symSize: 0x34 }
  - { offsetInCU: 0x1DAB6, offset: 0x1DAB6, size: 0x8, addend: 0x0, symName: __ZNSt3__16vectorI8TimeSlotNS_9allocatorIS1_EEE16__destroy_vectorclB7v160006Ev, symObjAddr: 0x23E8, symBinAddr: 0x100006180, symSize: 0x9C }
  - { offsetInCU: 0x1DADC, offset: 0x1DADC, size: 0x8, addend: 0x0, symName: __ZNSt3__16vectorI8TimeSlotNS_9allocatorIS1_EEE16__destroy_vectorC2ERS4_, symObjAddr: 0x2484, symBinAddr: 0x10000621C, symSize: 0x20 }
  - { offsetInCU: 0x1DB15, offset: 0x1DB15, size: 0x8, addend: 0x0, symName: __ZNKSt3__16vectorI8TimeSlotNS_9allocatorIS1_EEE17__annotate_deleteB7v160006Ev, symObjAddr: 0x24A4, symBinAddr: 0x10000623C, symSize: 0xD4 }
  - { offsetInCU: 0x1DB3B, offset: 0x1DB3B, size: 0x8, addend: 0x0, symName: __ZNSt3__16vectorI8TimeSlotNS_9allocatorIS1_EEE7__clearB7v160006Ev, symObjAddr: 0x2588, symBinAddr: 0x100006320, symSize: 0x28 }
  - { offsetInCU: 0x1DB61, offset: 0x1DB61, size: 0x8, addend: 0x0, symName: __ZNSt3__116allocator_traitsINS_9allocatorI8TimeSlotEEE10deallocateB7v160006ERS3_PS2_m, symObjAddr: 0x25B0, symBinAddr: 0x100006348, symSize: 0x34 }
  - { offsetInCU: 0x1DBA3, offset: 0x1DBA3, size: 0x8, addend: 0x0, symName: __ZNSt3__16vectorI8TimeSlotNS_9allocatorIS1_EEE7__allocB7v160006Ev, symObjAddr: 0x25E4, symBinAddr: 0x10000637C, symSize: 0x28 }
  - { offsetInCU: 0x1DBC9, offset: 0x1DBC9, size: 0x8, addend: 0x0, symName: __ZNKSt3__16vectorI8TimeSlotNS_9allocatorIS1_EEE8capacityB7v160006Ev, symObjAddr: 0x260C, symBinAddr: 0x1000063A4, symSize: 0x40 }
  - { offsetInCU: 0x1DBEF, offset: 0x1DBEF, size: 0x8, addend: 0x0, symName: __ZNKSt3__16vectorI8TimeSlotNS_9allocatorIS1_EEE31__annotate_contiguous_containerB7v160006EPKvS6_S6_S6_, symObjAddr: 0x264C, symBinAddr: 0x1000063E4, symSize: 0x20 }
  - { offsetInCU: 0x1DC45, offset: 0x1DC45, size: 0x8, addend: 0x0, symName: __ZNKSt3__16vectorI8TimeSlotNS_9allocatorIS1_EEE4dataB7v160006Ev, symObjAddr: 0x266C, symBinAddr: 0x100006404, symSize: 0x28 }
  - { offsetInCU: 0x1DC6B, offset: 0x1DC6B, size: 0x8, addend: 0x0, symName: __ZNKSt3__16vectorI8TimeSlotNS_9allocatorIS1_EEE4sizeB7v160006Ev, symObjAddr: 0x2694, symBinAddr: 0x10000642C, symSize: 0x28 }
  - { offsetInCU: 0x1DC91, offset: 0x1DC91, size: 0x8, addend: 0x0, symName: __ZNSt3__16vectorI8TimeSlotNS_9allocatorIS1_EEE22__base_destruct_at_endB7v160006EPS1_, symObjAddr: 0x26D0, symBinAddr: 0x100006468, symSize: 0x8C }
  - { offsetInCU: 0x1DCD5, offset: 0x1DCD5, size: 0x8, addend: 0x0, symName: __ZNSt3__116allocator_traitsINS_9allocatorI8TimeSlotEEE7destroyB7v160006IS2_vvEEvRS3_PT_, symObjAddr: 0x275C, symBinAddr: 0x1000064F4, symSize: 0x28 }
  - { offsetInCU: 0x1DD10, offset: 0x1DD10, size: 0x8, addend: 0x0, symName: __ZNSt3__19allocatorI8TimeSlotE10deallocateB7v160006EPS1_m, symObjAddr: 0x27CC, symBinAddr: 0x100006564, symSize: 0x44 }
  - { offsetInCU: 0x1DD52, offset: 0x1DD52, size: 0x8, addend: 0x0, symName: __ZNSt3__117__compressed_pairIP8TimeSlotNS_9allocatorIS1_EEE6secondB7v160006Ev, symObjAddr: 0x2810, symBinAddr: 0x1000065A8, symSize: 0x24 }
  - { offsetInCU: 0x1DD78, offset: 0x1DD78, size: 0x8, addend: 0x0, symName: __ZNSt3__122__compressed_pair_elemINS_9allocatorI8TimeSlotEELi1ELb1EE5__getB7v160006Ev, symObjAddr: 0x2834, symBinAddr: 0x1000065CC, symSize: 0x14 }
  - { offsetInCU: 0x1DD9E, offset: 0x1DD9E, size: 0x8, addend: 0x0, symName: __ZNKSt3__16vectorI8TimeSlotNS_9allocatorIS1_EEE9__end_capB7v160006Ev, symObjAddr: 0x2848, symBinAddr: 0x1000065E0, symSize: 0x28 }
  - { offsetInCU: 0x1DDC4, offset: 0x1DDC4, size: 0x8, addend: 0x0, symName: __ZNKSt3__117__compressed_pairIP8TimeSlotNS_9allocatorIS1_EEE5firstB7v160006Ev, symObjAddr: 0x2870, symBinAddr: 0x100006608, symSize: 0x24 }
  - { offsetInCU: 0x1DDEA, offset: 0x1DDEA, size: 0x8, addend: 0x0, symName: __ZNKSt3__122__compressed_pair_elemIP8TimeSlotLi0ELb0EE5__getB7v160006Ev, symObjAddr: 0x2894, symBinAddr: 0x10000662C, symSize: 0x14 }
  - { offsetInCU: 0x1DE10, offset: 0x1DE10, size: 0x8, addend: 0x0, symName: __ZNSt3__16vectorI6ModuleNS_9allocatorIS1_EEED2B7v160006Ev, symObjAddr: 0x28A8, symBinAddr: 0x100006640, symSize: 0x44 }
  - { offsetInCU: 0x1DE3A, offset: 0x1DE3A, size: 0x8, addend: 0x0, symName: __ZNSt3__16vectorI6ModuleNS_9allocatorIS1_EEE16__destroy_vectorC1ERS4_, symObjAddr: 0x28EC, symBinAddr: 0x100006684, symSize: 0x34 }
  - { offsetInCU: 0x1DE73, offset: 0x1DE73, size: 0x8, addend: 0x0, symName: __ZNSt3__16vectorI6ModuleNS_9allocatorIS1_EEE16__destroy_vectorclB7v160006Ev, symObjAddr: 0x2920, symBinAddr: 0x1000066B8, symSize: 0x9C }
  - { offsetInCU: 0x1DE99, offset: 0x1DE99, size: 0x8, addend: 0x0, symName: __ZNSt3__16vectorI6ModuleNS_9allocatorIS1_EEE16__destroy_vectorC2ERS4_, symObjAddr: 0x29BC, symBinAddr: 0x100006754, symSize: 0x20 }
  - { offsetInCU: 0x1DED2, offset: 0x1DED2, size: 0x8, addend: 0x0, symName: __ZNKSt3__16vectorI6ModuleNS_9allocatorIS1_EEE17__annotate_deleteB7v160006Ev, symObjAddr: 0x29DC, symBinAddr: 0x100006774, symSize: 0xD4 }
  - { offsetInCU: 0x1DEF8, offset: 0x1DEF8, size: 0x8, addend: 0x0, symName: __ZNSt3__16vectorI6ModuleNS_9allocatorIS1_EEE7__clearB7v160006Ev, symObjAddr: 0x2AC0, symBinAddr: 0x100006858, symSize: 0x28 }
  - { offsetInCU: 0x1DF1E, offset: 0x1DF1E, size: 0x8, addend: 0x0, symName: __ZNSt3__116allocator_traitsINS_9allocatorI6ModuleEEE10deallocateB7v160006ERS3_PS2_m, symObjAddr: 0x2AE8, symBinAddr: 0x100006880, symSize: 0x34 }
  - { offsetInCU: 0x1DF60, offset: 0x1DF60, size: 0x8, addend: 0x0, symName: __ZNSt3__16vectorI6ModuleNS_9allocatorIS1_EEE7__allocB7v160006Ev, symObjAddr: 0x2B1C, symBinAddr: 0x1000068B4, symSize: 0x28 }
  - { offsetInCU: 0x1DF86, offset: 0x1DF86, size: 0x8, addend: 0x0, symName: __ZNKSt3__16vectorI6ModuleNS_9allocatorIS1_EEE8capacityB7v160006Ev, symObjAddr: 0x2B44, symBinAddr: 0x1000068DC, symSize: 0x40 }
  - { offsetInCU: 0x1DFAC, offset: 0x1DFAC, size: 0x8, addend: 0x0, symName: __ZNKSt3__16vectorI6ModuleNS_9allocatorIS1_EEE31__annotate_contiguous_containerB7v160006EPKvS6_S6_S6_, symObjAddr: 0x2B84, symBinAddr: 0x10000691C, symSize: 0x20 }
  - { offsetInCU: 0x1E002, offset: 0x1E002, size: 0x8, addend: 0x0, symName: __ZNKSt3__16vectorI6ModuleNS_9allocatorIS1_EEE4dataB7v160006Ev, symObjAddr: 0x2BA4, symBinAddr: 0x10000693C, symSize: 0x28 }
  - { offsetInCU: 0x1E028, offset: 0x1E028, size: 0x8, addend: 0x0, symName: __ZNKSt3__16vectorI6ModuleNS_9allocatorIS1_EEE4sizeB7v160006Ev, symObjAddr: 0x2BCC, symBinAddr: 0x100006964, symSize: 0x28 }
  - { offsetInCU: 0x1E04E, offset: 0x1E04E, size: 0x8, addend: 0x0, symName: __ZNSt3__16vectorI6ModuleNS_9allocatorIS1_EEE22__base_destruct_at_endB7v160006EPS1_, symObjAddr: 0x2C08, symBinAddr: 0x1000069A0, symSize: 0x8C }
  - { offsetInCU: 0x1E092, offset: 0x1E092, size: 0x8, addend: 0x0, symName: __ZNSt3__116allocator_traitsINS_9allocatorI6ModuleEEE7destroyB7v160006IS2_vvEEvRS3_PT_, symObjAddr: 0x2C94, symBinAddr: 0x100006A2C, symSize: 0x28 }
  - { offsetInCU: 0x1E0CD, offset: 0x1E0CD, size: 0x8, addend: 0x0, symName: __ZNSt3__19allocatorI6ModuleE10deallocateB7v160006EPS1_m, symObjAddr: 0x2D04, symBinAddr: 0x100006A9C, symSize: 0x44 }
  - { offsetInCU: 0x1E10F, offset: 0x1E10F, size: 0x8, addend: 0x0, symName: __ZNSt3__117__compressed_pairIP6ModuleNS_9allocatorIS1_EEE6secondB7v160006Ev, symObjAddr: 0x2D48, symBinAddr: 0x100006AE0, symSize: 0x24 }
  - { offsetInCU: 0x1E135, offset: 0x1E135, size: 0x8, addend: 0x0, symName: __ZNSt3__122__compressed_pair_elemINS_9allocatorI6ModuleEELi1ELb1EE5__getB7v160006Ev, symObjAddr: 0x2D6C, symBinAddr: 0x100006B04, symSize: 0x14 }
  - { offsetInCU: 0x1E15B, offset: 0x1E15B, size: 0x8, addend: 0x0, symName: __ZNKSt3__16vectorI6ModuleNS_9allocatorIS1_EEE9__end_capB7v160006Ev, symObjAddr: 0x2D80, symBinAddr: 0x100006B18, symSize: 0x28 }
  - { offsetInCU: 0x1E181, offset: 0x1E181, size: 0x8, addend: 0x0, symName: __ZNKSt3__117__compressed_pairIP6ModuleNS_9allocatorIS1_EEE5firstB7v160006Ev, symObjAddr: 0x2DA8, symBinAddr: 0x100006B40, symSize: 0x24 }
  - { offsetInCU: 0x1E1A7, offset: 0x1E1A7, size: 0x8, addend: 0x0, symName: __ZNKSt3__122__compressed_pair_elemIP6ModuleLi0ELb0EE5__getB7v160006Ev, symObjAddr: 0x2DCC, symBinAddr: 0x100006B64, symSize: 0x14 }
  - { offsetInCU: 0x1E1CD, offset: 0x1E1CD, size: 0x8, addend: 0x0, symName: __ZNSt3__16vectorI5VenueNS_9allocatorIS1_EEED2B7v160006Ev, symObjAddr: 0x2DE0, symBinAddr: 0x100006B78, symSize: 0x44 }
  - { offsetInCU: 0x1E1F7, offset: 0x1E1F7, size: 0x8, addend: 0x0, symName: __ZNSt3__16vectorI5VenueNS_9allocatorIS1_EEE16__destroy_vectorC1ERS4_, symObjAddr: 0x2E24, symBinAddr: 0x100006BBC, symSize: 0x34 }
  - { offsetInCU: 0x1E230, offset: 0x1E230, size: 0x8, addend: 0x0, symName: __ZNSt3__16vectorI5VenueNS_9allocatorIS1_EEE16__destroy_vectorclB7v160006Ev, symObjAddr: 0x2E58, symBinAddr: 0x100006BF0, symSize: 0x9C }
  - { offsetInCU: 0x1E256, offset: 0x1E256, size: 0x8, addend: 0x0, symName: __ZNSt3__16vectorI5VenueNS_9allocatorIS1_EEE16__destroy_vectorC2ERS4_, symObjAddr: 0x2EF4, symBinAddr: 0x100006C8C, symSize: 0x20 }
  - { offsetInCU: 0x1E28F, offset: 0x1E28F, size: 0x8, addend: 0x0, symName: __ZNKSt3__16vectorI5VenueNS_9allocatorIS1_EEE17__annotate_deleteB7v160006Ev, symObjAddr: 0x2F14, symBinAddr: 0x100006CAC, symSize: 0xD4 }
  - { offsetInCU: 0x1E2B5, offset: 0x1E2B5, size: 0x8, addend: 0x0, symName: __ZNSt3__16vectorI5VenueNS_9allocatorIS1_EEE7__clearB7v160006Ev, symObjAddr: 0x2FF8, symBinAddr: 0x100006D90, symSize: 0x28 }
  - { offsetInCU: 0x1E2DB, offset: 0x1E2DB, size: 0x8, addend: 0x0, symName: __ZNSt3__116allocator_traitsINS_9allocatorI5VenueEEE10deallocateB7v160006ERS3_PS2_m, symObjAddr: 0x3020, symBinAddr: 0x100006DB8, symSize: 0x34 }
  - { offsetInCU: 0x1E31D, offset: 0x1E31D, size: 0x8, addend: 0x0, symName: __ZNSt3__16vectorI5VenueNS_9allocatorIS1_EEE7__allocB7v160006Ev, symObjAddr: 0x3054, symBinAddr: 0x100006DEC, symSize: 0x28 }
  - { offsetInCU: 0x1E343, offset: 0x1E343, size: 0x8, addend: 0x0, symName: __ZNKSt3__16vectorI5VenueNS_9allocatorIS1_EEE8capacityB7v160006Ev, symObjAddr: 0x307C, symBinAddr: 0x100006E14, symSize: 0x40 }
  - { offsetInCU: 0x1E369, offset: 0x1E369, size: 0x8, addend: 0x0, symName: __ZNKSt3__16vectorI5VenueNS_9allocatorIS1_EEE31__annotate_contiguous_containerB7v160006EPKvS6_S6_S6_, symObjAddr: 0x30BC, symBinAddr: 0x100006E54, symSize: 0x20 }
  - { offsetInCU: 0x1E3BF, offset: 0x1E3BF, size: 0x8, addend: 0x0, symName: __ZNKSt3__16vectorI5VenueNS_9allocatorIS1_EEE4dataB7v160006Ev, symObjAddr: 0x30DC, symBinAddr: 0x100006E74, symSize: 0x28 }
  - { offsetInCU: 0x1E3E5, offset: 0x1E3E5, size: 0x8, addend: 0x0, symName: __ZNKSt3__16vectorI5VenueNS_9allocatorIS1_EEE4sizeB7v160006Ev, symObjAddr: 0x3104, symBinAddr: 0x100006E9C, symSize: 0x28 }
  - { offsetInCU: 0x1E40B, offset: 0x1E40B, size: 0x8, addend: 0x0, symName: __ZNSt3__16vectorI5VenueNS_9allocatorIS1_EEE22__base_destruct_at_endB7v160006EPS1_, symObjAddr: 0x3140, symBinAddr: 0x100006ED8, symSize: 0x8C }
  - { offsetInCU: 0x1E44F, offset: 0x1E44F, size: 0x8, addend: 0x0, symName: __ZNSt3__116allocator_traitsINS_9allocatorI5VenueEEE7destroyB7v160006IS2_vvEEvRS3_PT_, symObjAddr: 0x31CC, symBinAddr: 0x100006F64, symSize: 0x28 }
  - { offsetInCU: 0x1E48A, offset: 0x1E48A, size: 0x8, addend: 0x0, symName: __ZNSt3__19allocatorI5VenueE10deallocateB7v160006EPS1_m, symObjAddr: 0x323C, symBinAddr: 0x100006FD4, symSize: 0x44 }
  - { offsetInCU: 0x1E4CC, offset: 0x1E4CC, size: 0x8, addend: 0x0, symName: __ZNSt3__117__compressed_pairIP5VenueNS_9allocatorIS1_EEE6secondB7v160006Ev, symObjAddr: 0x3280, symBinAddr: 0x100007018, symSize: 0x24 }
  - { offsetInCU: 0x1E4F2, offset: 0x1E4F2, size: 0x8, addend: 0x0, symName: __ZNSt3__122__compressed_pair_elemINS_9allocatorI5VenueEELi1ELb1EE5__getB7v160006Ev, symObjAddr: 0x32A4, symBinAddr: 0x10000703C, symSize: 0x14 }
  - { offsetInCU: 0x1E518, offset: 0x1E518, size: 0x8, addend: 0x0, symName: __ZNKSt3__16vectorI5VenueNS_9allocatorIS1_EEE9__end_capB7v160006Ev, symObjAddr: 0x32B8, symBinAddr: 0x100007050, symSize: 0x28 }
  - { offsetInCU: 0x1E53E, offset: 0x1E53E, size: 0x8, addend: 0x0, symName: __ZNKSt3__117__compressed_pairIP5VenueNS_9allocatorIS1_EEE5firstB7v160006Ev, symObjAddr: 0x32E0, symBinAddr: 0x100007078, symSize: 0x24 }
  - { offsetInCU: 0x1E564, offset: 0x1E564, size: 0x8, addend: 0x0, symName: __ZNKSt3__122__compressed_pair_elemIP5VenueLi0ELb0EE5__getB7v160006Ev, symObjAddr: 0x3304, symBinAddr: 0x10000709C, symSize: 0x14 }
  - { offsetInCU: 0x1E58A, offset: 0x1E58A, size: 0x8, addend: 0x0, symName: __ZNSt3__16vectorI26LecturerTimeSlotPreferenceNS_9allocatorIS1_EEED2B7v160006Ev, symObjAddr: 0x3318, symBinAddr: 0x1000070B0, symSize: 0x44 }
  - { offsetInCU: 0x1E5B4, offset: 0x1E5B4, size: 0x8, addend: 0x0, symName: __ZNSt3__16vectorI26LecturerTimeSlotPreferenceNS_9allocatorIS1_EEE16__destroy_vectorC1ERS4_, symObjAddr: 0x335C, symBinAddr: 0x1000070F4, symSize: 0x34 }
  - { offsetInCU: 0x1E5ED, offset: 0x1E5ED, size: 0x8, addend: 0x0, symName: __ZNSt3__16vectorI26LecturerTimeSlotPreferenceNS_9allocatorIS1_EEE16__destroy_vectorclB7v160006Ev, symObjAddr: 0x3390, symBinAddr: 0x100007128, symSize: 0x9C }
  - { offsetInCU: 0x1E613, offset: 0x1E613, size: 0x8, addend: 0x0, symName: __ZNSt3__16vectorI26LecturerTimeSlotPreferenceNS_9allocatorIS1_EEE16__destroy_vectorC2ERS4_, symObjAddr: 0x342C, symBinAddr: 0x1000071C4, symSize: 0x20 }
  - { offsetInCU: 0x1E64C, offset: 0x1E64C, size: 0x8, addend: 0x0, symName: __ZNKSt3__16vectorI26LecturerTimeSlotPreferenceNS_9allocatorIS1_EEE17__annotate_deleteB7v160006Ev, symObjAddr: 0x344C, symBinAddr: 0x1000071E4, symSize: 0xB8 }
  - { offsetInCU: 0x1E672, offset: 0x1E672, size: 0x8, addend: 0x0, symName: __ZNSt3__16vectorI26LecturerTimeSlotPreferenceNS_9allocatorIS1_EEE7__clearB7v160006Ev, symObjAddr: 0x3514, symBinAddr: 0x1000072AC, symSize: 0x28 }
  - { offsetInCU: 0x1E698, offset: 0x1E698, size: 0x8, addend: 0x0, symName: __ZNSt3__116allocator_traitsINS_9allocatorI26LecturerTimeSlotPreferenceEEE10deallocateB7v160006ERS3_PS2_m, symObjAddr: 0x353C, symBinAddr: 0x1000072D4, symSize: 0x34 }
  - { offsetInCU: 0x1E6DA, offset: 0x1E6DA, size: 0x8, addend: 0x0, symName: __ZNSt3__16vectorI26LecturerTimeSlotPreferenceNS_9allocatorIS1_EEE7__allocB7v160006Ev, symObjAddr: 0x3570, symBinAddr: 0x100007308, symSize: 0x28 }
  - { offsetInCU: 0x1E700, offset: 0x1E700, size: 0x8, addend: 0x0, symName: __ZNKSt3__16vectorI26LecturerTimeSlotPreferenceNS_9allocatorIS1_EEE8capacityB7v160006Ev, symObjAddr: 0x3598, symBinAddr: 0x100007330, symSize: 0x40 }
  - { offsetInCU: 0x1E726, offset: 0x1E726, size: 0x8, addend: 0x0, symName: __ZNKSt3__16vectorI26LecturerTimeSlotPreferenceNS_9allocatorIS1_EEE31__annotate_contiguous_containerB7v160006EPKvS6_S6_S6_, symObjAddr: 0x35D8, symBinAddr: 0x100007370, symSize: 0x20 }
  - { offsetInCU: 0x1E77C, offset: 0x1E77C, size: 0x8, addend: 0x0, symName: __ZNKSt3__16vectorI26LecturerTimeSlotPreferenceNS_9allocatorIS1_EEE4dataB7v160006Ev, symObjAddr: 0x35F8, symBinAddr: 0x100007390, symSize: 0x28 }
  - { offsetInCU: 0x1E7A2, offset: 0x1E7A2, size: 0x8, addend: 0x0, symName: __ZNKSt3__16vectorI26LecturerTimeSlotPreferenceNS_9allocatorIS1_EEE4sizeB7v160006Ev, symObjAddr: 0x3620, symBinAddr: 0x1000073B8, symSize: 0x28 }
  - { offsetInCU: 0x1E7C8, offset: 0x1E7C8, size: 0x8, addend: 0x0, symName: __ZNSt3__16vectorI26LecturerTimeSlotPreferenceNS_9allocatorIS1_EEE22__base_destruct_at_endB7v160006EPS1_, symObjAddr: 0x365C, symBinAddr: 0x1000073F4, symSize: 0x8C }
  - { offsetInCU: 0x1E80C, offset: 0x1E80C, size: 0x8, addend: 0x0, symName: __ZNSt3__116allocator_traitsINS_9allocatorI26LecturerTimeSlotPreferenceEEE7destroyB7v160006IS2_vvEEvRS3_PT_, symObjAddr: 0x36E8, symBinAddr: 0x100007480, symSize: 0x28 }
  - { offsetInCU: 0x1E847, offset: 0x1E847, size: 0x8, addend: 0x0, symName: __ZN26LecturerTimeSlotPreferenceD1Ev, symObjAddr: 0x3758, symBinAddr: 0x1000074F0, symSize: 0x2C }
  - { offsetInCU: 0x1E873, offset: 0x1E873, size: 0x8, addend: 0x0, symName: __ZN26LecturerTimeSlotPreferenceD2Ev, symObjAddr: 0x3784, symBinAddr: 0x10000751C, symSize: 0x38 }
  - { offsetInCU: 0x1E89F, offset: 0x1E89F, size: 0x8, addend: 0x0, symName: __ZNSt3__19allocatorI26LecturerTimeSlotPreferenceE10deallocateB7v160006EPS1_m, symObjAddr: 0x37BC, symBinAddr: 0x100007554, symSize: 0x40 }
  - { offsetInCU: 0x1E8E1, offset: 0x1E8E1, size: 0x8, addend: 0x0, symName: __ZNSt3__117__compressed_pairIP26LecturerTimeSlotPreferenceNS_9allocatorIS1_EEE6secondB7v160006Ev, symObjAddr: 0x37FC, symBinAddr: 0x100007594, symSize: 0x24 }
  - { offsetInCU: 0x1E907, offset: 0x1E907, size: 0x8, addend: 0x0, symName: __ZNSt3__122__compressed_pair_elemINS_9allocatorI26LecturerTimeSlotPreferenceEELi1ELb1EE5__getB7v160006Ev, symObjAddr: 0x3820, symBinAddr: 0x1000075B8, symSize: 0x14 }
  - { offsetInCU: 0x1E92D, offset: 0x1E92D, size: 0x8, addend: 0x0, symName: __ZNKSt3__16vectorI26LecturerTimeSlotPreferenceNS_9allocatorIS1_EEE9__end_capB7v160006Ev, symObjAddr: 0x3834, symBinAddr: 0x1000075CC, symSize: 0x28 }
  - { offsetInCU: 0x1E953, offset: 0x1E953, size: 0x8, addend: 0x0, symName: __ZNKSt3__117__compressed_pairIP26LecturerTimeSlotPreferenceNS_9allocatorIS1_EEE5firstB7v160006Ev, symObjAddr: 0x385C, symBinAddr: 0x1000075F4, symSize: 0x24 }
  - { offsetInCU: 0x1E979, offset: 0x1E979, size: 0x8, addend: 0x0, symName: __ZNKSt3__122__compressed_pair_elemIP26LecturerTimeSlotPreferenceLi0ELb0EE5__getB7v160006Ev, symObjAddr: 0x3880, symBinAddr: 0x100007618, symSize: 0x14 }
  - { offsetInCU: 0x1E99F, offset: 0x1E99F, size: 0x8, addend: 0x0, symName: __ZNSt3__16vectorI10ChromosomeNS_9allocatorIS1_EEED2B7v160006Ev, symObjAddr: 0x3894, symBinAddr: 0x10000762C, symSize: 0x44 }
  - { offsetInCU: 0x1E9C9, offset: 0x1E9C9, size: 0x8, addend: 0x0, symName: __ZNSt3__16vectorI10ChromosomeNS_9allocatorIS1_EEE16__destroy_vectorC1ERS4_, symObjAddr: 0x38D8, symBinAddr: 0x100007670, symSize: 0x34 }
  - { offsetInCU: 0x1EA02, offset: 0x1EA02, size: 0x8, addend: 0x0, symName: __ZNSt3__16vectorI10ChromosomeNS_9allocatorIS1_EEE16__destroy_vectorclB7v160006Ev, symObjAddr: 0x390C, symBinAddr: 0x1000076A4, symSize: 0x9C }
  - { offsetInCU: 0x1EA28, offset: 0x1EA28, size: 0x8, addend: 0x0, symName: __ZNSt3__16vectorI10ChromosomeNS_9allocatorIS1_EEE16__destroy_vectorC2ERS4_, symObjAddr: 0x39A8, symBinAddr: 0x100007740, symSize: 0x20 }
  - { offsetInCU: 0x1EA61, offset: 0x1EA61, size: 0x8, addend: 0x0, symName: __ZNKSt3__16vectorI10ChromosomeNS_9allocatorIS1_EEE17__annotate_deleteB7v160006Ev, symObjAddr: 0x39C8, symBinAddr: 0x100007760, symSize: 0xD4 }
  - { offsetInCU: 0x1EA87, offset: 0x1EA87, size: 0x8, addend: 0x0, symName: __ZNSt3__16vectorI10ChromosomeNS_9allocatorIS1_EEE7__clearB7v160006Ev, symObjAddr: 0x3AAC, symBinAddr: 0x100007844, symSize: 0x28 }
  - { offsetInCU: 0x1EAAD, offset: 0x1EAAD, size: 0x8, addend: 0x0, symName: __ZNSt3__116allocator_traitsINS_9allocatorI10ChromosomeEEE10deallocateB7v160006ERS3_PS2_m, symObjAddr: 0x3AD4, symBinAddr: 0x10000786C, symSize: 0x34 }
  - { offsetInCU: 0x1EAEF, offset: 0x1EAEF, size: 0x8, addend: 0x0, symName: __ZNSt3__16vectorI10ChromosomeNS_9allocatorIS1_EEE7__allocB7v160006Ev, symObjAddr: 0x3B08, symBinAddr: 0x1000078A0, symSize: 0x28 }
  - { offsetInCU: 0x1EB15, offset: 0x1EB15, size: 0x8, addend: 0x0, symName: __ZNKSt3__16vectorI10ChromosomeNS_9allocatorIS1_EEE8capacityB7v160006Ev, symObjAddr: 0x3B30, symBinAddr: 0x1000078C8, symSize: 0x40 }
  - { offsetInCU: 0x1EB3B, offset: 0x1EB3B, size: 0x8, addend: 0x0, symName: __ZNKSt3__16vectorI10ChromosomeNS_9allocatorIS1_EEE31__annotate_contiguous_containerB7v160006EPKvS6_S6_S6_, symObjAddr: 0x3B70, symBinAddr: 0x100007908, symSize: 0x20 }
  - { offsetInCU: 0x1EB91, offset: 0x1EB91, size: 0x8, addend: 0x0, symName: __ZNKSt3__16vectorI10ChromosomeNS_9allocatorIS1_EEE4dataB7v160006Ev, symObjAddr: 0x3B90, symBinAddr: 0x100007928, symSize: 0x28 }
  - { offsetInCU: 0x1EBB7, offset: 0x1EBB7, size: 0x8, addend: 0x0, symName: __ZNKSt3__16vectorI10ChromosomeNS_9allocatorIS1_EEE4sizeB7v160006Ev, symObjAddr: 0x3BB8, symBinAddr: 0x100007950, symSize: 0x28 }
  - { offsetInCU: 0x1EBDD, offset: 0x1EBDD, size: 0x8, addend: 0x0, symName: __ZNSt3__16vectorI10ChromosomeNS_9allocatorIS1_EEE22__base_destruct_at_endB7v160006EPS1_, symObjAddr: 0x3BF4, symBinAddr: 0x10000798C, symSize: 0x8C }
  - { offsetInCU: 0x1EC21, offset: 0x1EC21, size: 0x8, addend: 0x0, symName: __ZNSt3__116allocator_traitsINS_9allocatorI10ChromosomeEEE7destroyB7v160006IS2_vvEEvRS3_PT_, symObjAddr: 0x3C80, symBinAddr: 0x100007A18, symSize: 0x28 }
  - { offsetInCU: 0x1EC5C, offset: 0x1EC5C, size: 0x8, addend: 0x0, symName: __ZNSt3__19allocatorI10ChromosomeE10deallocateB7v160006EPS1_m, symObjAddr: 0x3CF0, symBinAddr: 0x100007A88, symSize: 0x44 }
  - { offsetInCU: 0x1EC9E, offset: 0x1EC9E, size: 0x8, addend: 0x0, symName: __ZNSt3__117__compressed_pairIP10ChromosomeNS_9allocatorIS1_EEE6secondB7v160006Ev, symObjAddr: 0x3D34, symBinAddr: 0x100007ACC, symSize: 0x24 }
  - { offsetInCU: 0x1ECC4, offset: 0x1ECC4, size: 0x8, addend: 0x0, symName: __ZNSt3__122__compressed_pair_elemINS_9allocatorI10ChromosomeEELi1ELb1EE5__getB7v160006Ev, symObjAddr: 0x3D58, symBinAddr: 0x100007AF0, symSize: 0x14 }
  - { offsetInCU: 0x1ECEA, offset: 0x1ECEA, size: 0x8, addend: 0x0, symName: __ZNKSt3__16vectorI10ChromosomeNS_9allocatorIS1_EEE9__end_capB7v160006Ev, symObjAddr: 0x3D6C, symBinAddr: 0x100007B04, symSize: 0x28 }
  - { offsetInCU: 0x1ED10, offset: 0x1ED10, size: 0x8, addend: 0x0, symName: __ZNKSt3__117__compressed_pairIP10ChromosomeNS_9allocatorIS1_EEE5firstB7v160006Ev, symObjAddr: 0x3D94, symBinAddr: 0x100007B2C, symSize: 0x24 }
  - { offsetInCU: 0x1ED36, offset: 0x1ED36, size: 0x8, addend: 0x0, symName: __ZNKSt3__122__compressed_pair_elemIP10ChromosomeLi0ELb0EE5__getB7v160006Ev, symObjAddr: 0x3DB8, symBinAddr: 0x100007B50, symSize: 0x14 }
  - { offsetInCU: 0x1ED5C, offset: 0x1ED5C, size: 0x8, addend: 0x0, symName: __ZNSt3__16vectorI15ScheduledModuleNS_9allocatorIS1_EEE11__make_iterB7v160006EPS1_, symObjAddr: 0x3DCC, symBinAddr: 0x100007B64, symSize: 0x34 }
  - { offsetInCU: 0x1ED91, offset: 0x1ED91, size: 0x8, addend: 0x0, symName: __ZNSt3__111__wrap_iterIP15ScheduledModuleEC1B7v160006EPKvS2_, symObjAddr: 0x3E00, symBinAddr: 0x100007B98, symSize: 0x3C }
  - { offsetInCU: 0x1EDD7, offset: 0x1EDD7, size: 0x8, addend: 0x0, symName: __ZNSt3__111__wrap_iterIP15ScheduledModuleEC2B7v160006EPKvS2_, symObjAddr: 0x3E3C, symBinAddr: 0x100007BD4, symSize: 0x24 }
  - { offsetInCU: 0x1EE1D, offset: 0x1EE1D, size: 0x8, addend: 0x0, symName: __ZNKSt3__111__wrap_iterIP15ScheduledModuleE4baseB7v160006Ev, symObjAddr: 0x3EA8, symBinAddr: 0x100007C40, symSize: 0x18 }
  - { offsetInCU: 0x1EE43, offset: 0x1EE43, size: 0x8, addend: 0x0, symName: __ZN6ModuleD2Ev, symObjAddr: 0x3EC0, symBinAddr: 0x100007C58, symSize: 0x3C }
  - { offsetInCU: 0x1EE6F, offset: 0x1EE6F, size: 0x8, addend: 0x0, symName: __ZN8TimeSlotD2Ev, symObjAddr: 0x3EFC, symBinAddr: 0x100007C94, symSize: 0x3C }
  - { offsetInCU: 0x1EE9B, offset: 0x1EE9B, size: 0x8, addend: 0x0, symName: __ZN5VenueD2Ev, symObjAddr: 0x3F38, symBinAddr: 0x100007CD0, symSize: 0x30 }
  - { offsetInCU: 0x1EEC7, offset: 0x1EEC7, size: 0x8, addend: 0x0, symName: __ZNSt3__16vectorI15ScheduledModuleNS_9allocatorIS1_EEED2B7v160006Ev, symObjAddr: 0x3F68, symBinAddr: 0x100007D00, symSize: 0x44 }
  - { offsetInCU: 0x1EEF1, offset: 0x1EEF1, size: 0x8, addend: 0x0, symName: __ZNSt3__16vectorI15ScheduledModuleNS_9allocatorIS1_EEE16__destroy_vectorC1ERS4_, symObjAddr: 0x3FAC, symBinAddr: 0x100007D44, symSize: 0x34 }
  - { offsetInCU: 0x1EF2A, offset: 0x1EF2A, size: 0x8, addend: 0x0, symName: __ZNSt3__16vectorI15ScheduledModuleNS_9allocatorIS1_EEE16__destroy_vectorclB7v160006Ev, symObjAddr: 0x3FE0, symBinAddr: 0x100007D78, symSize: 0x9C }
  - { offsetInCU: 0x1EF50, offset: 0x1EF50, size: 0x8, addend: 0x0, symName: __ZNSt3__16vectorI15ScheduledModuleNS_9allocatorIS1_EEE16__destroy_vectorC2ERS4_, symObjAddr: 0x407C, symBinAddr: 0x100007E14, symSize: 0x20 }
  - { offsetInCU: 0x1EF89, offset: 0x1EF89, size: 0x8, addend: 0x0, symName: __ZNKSt3__16vectorI15ScheduledModuleNS_9allocatorIS1_EEE17__annotate_deleteB7v160006Ev, symObjAddr: 0x409C, symBinAddr: 0x100007E34, symSize: 0xD4 }
  - { offsetInCU: 0x1EFAF, offset: 0x1EFAF, size: 0x8, addend: 0x0, symName: __ZNSt3__16vectorI15ScheduledModuleNS_9allocatorIS1_EEE7__clearB7v160006Ev, symObjAddr: 0x4180, symBinAddr: 0x100007F18, symSize: 0x28 }
  - { offsetInCU: 0x1EFD5, offset: 0x1EFD5, size: 0x8, addend: 0x0, symName: __ZNSt3__116allocator_traitsINS_9allocatorI15ScheduledModuleEEE10deallocateB7v160006ERS3_PS2_m, symObjAddr: 0x41A8, symBinAddr: 0x100007F40, symSize: 0x34 }
  - { offsetInCU: 0x1F017, offset: 0x1F017, size: 0x8, addend: 0x0, symName: __ZNSt3__16vectorI15ScheduledModuleNS_9allocatorIS1_EEE7__allocB7v160006Ev, symObjAddr: 0x41DC, symBinAddr: 0x100007F74, symSize: 0x28 }
  - { offsetInCU: 0x1F03D, offset: 0x1F03D, size: 0x8, addend: 0x0, symName: __ZNKSt3__16vectorI15ScheduledModuleNS_9allocatorIS1_EEE8capacityB7v160006Ev, symObjAddr: 0x4204, symBinAddr: 0x100007F9C, symSize: 0x40 }
  - { offsetInCU: 0x1F063, offset: 0x1F063, size: 0x8, addend: 0x0, symName: __ZNKSt3__16vectorI15ScheduledModuleNS_9allocatorIS1_EEE31__annotate_contiguous_containerB7v160006EPKvS6_S6_S6_, symObjAddr: 0x4244, symBinAddr: 0x100007FDC, symSize: 0x20 }
  - { offsetInCU: 0x1F0B9, offset: 0x1F0B9, size: 0x8, addend: 0x0, symName: __ZNKSt3__16vectorI15ScheduledModuleNS_9allocatorIS1_EEE4dataB7v160006Ev, symObjAddr: 0x4264, symBinAddr: 0x100007FFC, symSize: 0x28 }
  - { offsetInCU: 0x1F0DF, offset: 0x1F0DF, size: 0x8, addend: 0x0, symName: __ZNKSt3__16vectorI15ScheduledModuleNS_9allocatorIS1_EEE4sizeB7v160006Ev, symObjAddr: 0x428C, symBinAddr: 0x100008024, symSize: 0x28 }
  - { offsetInCU: 0x1F105, offset: 0x1F105, size: 0x8, addend: 0x0, symName: __ZNSt3__16vectorI15ScheduledModuleNS_9allocatorIS1_EEE22__base_destruct_at_endB7v160006EPS1_, symObjAddr: 0x42C8, symBinAddr: 0x100008060, symSize: 0x8C }
  - { offsetInCU: 0x1F149, offset: 0x1F149, size: 0x8, addend: 0x0, symName: __ZNSt3__116allocator_traitsINS_9allocatorI15ScheduledModuleEEE7destroyB7v160006IS2_vvEEvRS3_PT_, symObjAddr: 0x4354, symBinAddr: 0x1000080EC, symSize: 0x28 }
  - { offsetInCU: 0x1F184, offset: 0x1F184, size: 0x8, addend: 0x0, symName: __ZNSt3__19allocatorI15ScheduledModuleE10deallocateB7v160006EPS1_m, symObjAddr: 0x43C4, symBinAddr: 0x10000815C, symSize: 0x44 }
  - { offsetInCU: 0x1F1C6, offset: 0x1F1C6, size: 0x8, addend: 0x0, symName: __ZNSt3__117__compressed_pairIP15ScheduledModuleNS_9allocatorIS1_EEE6secondB7v160006Ev, symObjAddr: 0x4408, symBinAddr: 0x1000081A0, symSize: 0x24 }
  - { offsetInCU: 0x1F1EC, offset: 0x1F1EC, size: 0x8, addend: 0x0, symName: __ZNSt3__122__compressed_pair_elemINS_9allocatorI15ScheduledModuleEELi1ELb1EE5__getB7v160006Ev, symObjAddr: 0x442C, symBinAddr: 0x1000081C4, symSize: 0x14 }
  - { offsetInCU: 0x1F212, offset: 0x1F212, size: 0x8, addend: 0x0, symName: __ZNKSt3__16vectorI15ScheduledModuleNS_9allocatorIS1_EEE9__end_capB7v160006Ev, symObjAddr: 0x4440, symBinAddr: 0x1000081D8, symSize: 0x28 }
  - { offsetInCU: 0x1F238, offset: 0x1F238, size: 0x8, addend: 0x0, symName: __ZNKSt3__117__compressed_pairIP15ScheduledModuleNS_9allocatorIS1_EEE5firstB7v160006Ev, symObjAddr: 0x4468, symBinAddr: 0x100008200, symSize: 0x24 }
  - { offsetInCU: 0x1F25E, offset: 0x1F25E, size: 0x8, addend: 0x0, symName: __ZNKSt3__122__compressed_pair_elemIP15ScheduledModuleLi0ELb0EE5__getB7v160006Ev, symObjAddr: 0x448C, symBinAddr: 0x100008224, symSize: 0x14 }
  - { offsetInCU: 0x1F284, offset: 0x1F284, size: 0x8, addend: 0x0, symName: __ZNSt3__114basic_ofstreamIcNS_11char_traitsIcEEED2Ev, symObjAddr: 0x44A0, symBinAddr: 0x100008238, symSize: 0x64 }
  - { offsetInCU: 0x1F2BE, offset: 0x1F2BE, size: 0x8, addend: 0x0, symName: __ZTv0_n24_NSt3__114basic_ofstreamIcNS_11char_traitsIcEEED1Ev, symObjAddr: 0x4504, symBinAddr: 0x10000829C, symSize: 0x28 }
  - { offsetInCU: 0x1F2D5, offset: 0x1F2D5, size: 0x8, addend: 0x0, symName: __ZNSt3__112basic_stringIcNS_11char_traitsIcEENS_9allocatorIcEEEC2B7v160006Ev, symObjAddr: 0x452C, symBinAddr: 0x1000082C4, symSize: 0x54 }
  - { offsetInCU: 0x1F304, offset: 0x1F304, size: 0x8, addend: 0x0, symName: __ZNSt3__117__compressed_pairINS_12basic_stringIcNS_11char_traitsIcEENS_9allocatorIcEEE5__repES5_EC1B7v160006INS_18__default_init_tagESA_EEOT_OT0_, symObjAddr: 0x4580, symBinAddr: 0x100008318, symSize: 0x3C }
  - { offsetInCU: 0x1F35C, offset: 0x1F35C, size: 0x8, addend: 0x0, symName: __ZNSt3__112basic_stringIcNS_11char_traitsIcEENS_9allocatorIcEEE14__default_initB7v160006Ev, symObjAddr: 0x45CC, symBinAddr: 0x100008364, symSize: 0x40 }
  - { offsetInCU: 0x1F382, offset: 0x1F382, size: 0x8, addend: 0x0, symName: __ZNSt3__117__compressed_pairINS_12basic_stringIcNS_11char_traitsIcEENS_9allocatorIcEEE5__repES5_EC2B7v160006INS_18__default_init_tagESA_EEOT_OT0_, symObjAddr: 0x460C, symBinAddr: 0x1000083A4, symSize: 0x3C }
  - { offsetInCU: 0x1F3DA, offset: 0x1F3DA, size: 0x8, addend: 0x0, symName: __ZNSt3__122__compressed_pair_elemINS_12basic_stringIcNS_11char_traitsIcEENS_9allocatorIcEEE5__repELi0ELb0EEC2B7v160006ENS_18__default_init_tagE, symObjAddr: 0x4648, symBinAddr: 0x1000083E0, symSize: 0x14 }
  - { offsetInCU: 0x1F40F, offset: 0x1F40F, size: 0x8, addend: 0x0, symName: __ZNSt3__122__compressed_pair_elemINS_9allocatorIcEELi1ELb1EEC2B7v160006ENS_18__default_init_tagE, symObjAddr: 0x465C, symBinAddr: 0x1000083F4, symSize: 0x2C }
  - { offsetInCU: 0x1F444, offset: 0x1F444, size: 0x8, addend: 0x0, symName: __ZNSt3__19allocatorIcEC2B7v160006Ev, symObjAddr: 0x4688, symBinAddr: 0x100008420, symSize: 0x2C }
  - { offsetInCU: 0x1F46E, offset: 0x1F46E, size: 0x8, addend: 0x0, symName: __ZNSt3__116__non_trivial_ifILb1ENS_9allocatorIcEEEC2B7v160006Ev, symObjAddr: 0x46B4, symBinAddr: 0x10000844C, symSize: 0x14 }
  - { offsetInCU: 0x1F498, offset: 0x1F498, size: 0x8, addend: 0x0, symName: __ZNSt3__117__compressed_pairINS_12basic_stringIcNS_11char_traitsIcEENS_9allocatorIcEEE5__repES5_E5firstB7v160006Ev, symObjAddr: 0x46C8, symBinAddr: 0x100008460, symSize: 0x24 }
  - { offsetInCU: 0x1F4BE, offset: 0x1F4BE, size: 0x8, addend: 0x0, symName: __ZNSt3__122__compressed_pair_elemINS_12basic_stringIcNS_11char_traitsIcEENS_9allocatorIcEEE5__repELi0ELb0EE5__getB7v160006Ev, symObjAddr: 0x46EC, symBinAddr: 0x100008484, symSize: 0x14 }
  - { offsetInCU: 0x1F4E4, offset: 0x1F4E4, size: 0x8, addend: 0x0, symName: __ZNKSt3__112basic_stringIcNS_11char_traitsIcEENS_9allocatorIcEEE11starts_withB7v160006ENS_17basic_string_viewIcS2_EE, symObjAddr: 0x4700, symBinAddr: 0x100008498, symSize: 0x70 }
  - { offsetInCU: 0x1F519, offset: 0x1F519, size: 0x8, addend: 0x0, symName: __ZNSt3__117basic_string_viewIcNS_11char_traitsIcEEEC1B7v160006EPKc, symObjAddr: 0x4770, symBinAddr: 0x100008508, symSize: 0x34 }
  - { offsetInCU: 0x1F552, offset: 0x1F552, size: 0x8, addend: 0x0, symName: __ZNKSt3__112basic_stringIcNS_11char_traitsIcEENS_9allocatorIcEEE4dataB7v160006Ev, symObjAddr: 0x47A4, symBinAddr: 0x10000853C, symSize: 0x28 }
  - { offsetInCU: 0x1F578, offset: 0x1F578, size: 0x8, addend: 0x0, symName: __ZNKSt3__112basic_stringIcNS_11char_traitsIcEENS_9allocatorIcEEE4sizeB7v160006Ev, symObjAddr: 0x47CC, symBinAddr: 0x100008564, symSize: 0x54 }
  - { offsetInCU: 0x1F59E, offset: 0x1F59E, size: 0x8, addend: 0x0, symName: __ZNSt3__117basic_string_viewIcNS_11char_traitsIcEEEC1B7v160006EPKcm, symObjAddr: 0x4820, symBinAddr: 0x1000085B8, symSize: 0x3C }
  - { offsetInCU: 0x1F5E6, offset: 0x1F5E6, size: 0x8, addend: 0x0, symName: __ZNKSt3__117basic_string_viewIcNS_11char_traitsIcEEE11starts_withB7v160006ES3_, symObjAddr: 0x485C, symBinAddr: 0x1000085F4, symSize: 0xB8 }
  - { offsetInCU: 0x1F61B, offset: 0x1F61B, size: 0x8, addend: 0x0, symName: __ZNKSt3__112basic_stringIcNS_11char_traitsIcEENS_9allocatorIcEEE13__get_pointerB7v160006Ev, symObjAddr: 0x4928, symBinAddr: 0x1000086C0, symSize: 0x54 }
  - { offsetInCU: 0x1F641, offset: 0x1F641, size: 0x8, addend: 0x0, symName: __ZNKSt3__112basic_stringIcNS_11char_traitsIcEENS_9allocatorIcEEE9__is_longB7v160006Ev, symObjAddr: 0x497C, symBinAddr: 0x100008714, symSize: 0x38 }
  - { offsetInCU: 0x1F667, offset: 0x1F667, size: 0x8, addend: 0x0, symName: __ZNKSt3__112basic_stringIcNS_11char_traitsIcEENS_9allocatorIcEEE18__get_long_pointerB7v160006Ev, symObjAddr: 0x49B4, symBinAddr: 0x10000874C, symSize: 0x28 }
  - { offsetInCU: 0x1F68D, offset: 0x1F68D, size: 0x8, addend: 0x0, symName: __ZNKSt3__112basic_stringIcNS_11char_traitsIcEENS_9allocatorIcEEE19__get_short_pointerB7v160006Ev, symObjAddr: 0x49DC, symBinAddr: 0x100008774, symSize: 0x28 }
  - { offsetInCU: 0x1F6B3, offset: 0x1F6B3, size: 0x8, addend: 0x0, symName: __ZNKSt3__117__compressed_pairINS_12basic_stringIcNS_11char_traitsIcEENS_9allocatorIcEEE5__repES5_E5firstB7v160006Ev, symObjAddr: 0x4A04, symBinAddr: 0x10000879C, symSize: 0x24 }
  - { offsetInCU: 0x1F6D9, offset: 0x1F6D9, size: 0x8, addend: 0x0, symName: __ZNKSt3__122__compressed_pair_elemINS_12basic_stringIcNS_11char_traitsIcEENS_9allocatorIcEEE5__repELi0ELb0EE5__getB7v160006Ev, symObjAddr: 0x4A28, symBinAddr: 0x1000087C0, symSize: 0x14 }
  - { offsetInCU: 0x1F6FF, offset: 0x1F6FF, size: 0x8, addend: 0x0, symName: __ZNSt3__114pointer_traitsIPKcE10pointer_toB7v160006ERS1_, symObjAddr: 0x4A3C, symBinAddr: 0x1000087D4, symSize: 0x14 }
  - { offsetInCU: 0x1F722, offset: 0x1F722, size: 0x8, addend: 0x0, symName: __ZNKSt3__112basic_stringIcNS_11char_traitsIcEENS_9allocatorIcEEE15__get_long_sizeB7v160006Ev, symObjAddr: 0x4A50, symBinAddr: 0x1000087E8, symSize: 0x28 }
  - { offsetInCU: 0x1F748, offset: 0x1F748, size: 0x8, addend: 0x0, symName: __ZNKSt3__112basic_stringIcNS_11char_traitsIcEENS_9allocatorIcEEE16__get_short_sizeB7v160006Ev, symObjAddr: 0x4A78, symBinAddr: 0x100008810, symSize: 0x34 }
  - { offsetInCU: 0x1F76E, offset: 0x1F76E, size: 0x8, addend: 0x0, symName: __ZNSt3__117basic_string_viewIcNS_11char_traitsIcEEEC2B7v160006EPKcm, symObjAddr: 0x4AAC, symBinAddr: 0x100008844, symSize: 0x50 }
  - { offsetInCU: 0x1F7B6, offset: 0x1F7B6, size: 0x8, addend: 0x0, symName: __ZNKSt3__117basic_string_viewIcNS_11char_traitsIcEEE4sizeB7v160006Ev, symObjAddr: 0x4AFC, symBinAddr: 0x100008894, symSize: 0x18 }
  - { offsetInCU: 0x1F7DC, offset: 0x1F7DC, size: 0x8, addend: 0x0, symName: __ZNKSt3__117basic_string_viewIcNS_11char_traitsIcEEE7compareB7v160006EmmS3_, symObjAddr: 0x4B14, symBinAddr: 0x1000088AC, symSize: 0x60 }
  - { offsetInCU: 0x1F82F, offset: 0x1F82F, size: 0x8, addend: 0x0, symName: __ZNKSt3__117basic_string_viewIcNS_11char_traitsIcEEE6substrB7v160006Emm, symObjAddr: 0x4B74, symBinAddr: 0x10000890C, symSize: 0xAC }
  - { offsetInCU: 0x1F873, offset: 0x1F873, size: 0x8, addend: 0x0, symName: __ZNKSt3__117basic_string_viewIcNS_11char_traitsIcEEE7compareES3_, symObjAddr: 0x4C20, symBinAddr: 0x1000089B8, symSize: 0x13C }
  - { offsetInCU: 0x1F8C6, offset: 0x1F8C6, size: 0x8, addend: 0x0, symName: __ZNSt3__117basic_string_viewIcNS_11char_traitsIcEEEC1B7v160006Ev, symObjAddr: 0x4DC0, symBinAddr: 0x100008B58, symSize: 0x2C }
  - { offsetInCU: 0x1F8F0, offset: 0x1F8F0, size: 0x8, addend: 0x0, symName: __ZNKSt3__117basic_string_viewIcNS_11char_traitsIcEEE4dataB7v160006Ev, symObjAddr: 0x4DEC, symBinAddr: 0x100008B84, symSize: 0x18 }
  - { offsetInCU: 0x1F916, offset: 0x1F916, size: 0x8, addend: 0x0, symName: __ZNSt12out_of_rangeC1B7v160006EPKc, symObjAddr: 0x4E30, symBinAddr: 0x100008BC8, symSize: 0x34 }
  - { offsetInCU: 0x1F94E, offset: 0x1F94E, size: 0x8, addend: 0x0, symName: __ZNSt12out_of_rangeC2B7v160006EPKc, symObjAddr: 0x4E64, symBinAddr: 0x100008BFC, symSize: 0x4C }
  - { offsetInCU: 0x1F986, offset: 0x1F986, size: 0x8, addend: 0x0, symName: __ZNSt3__117basic_string_viewIcNS_11char_traitsIcEEEC2B7v160006Ev, symObjAddr: 0x4EB0, symBinAddr: 0x100008C48, symSize: 0x1C }
  - { offsetInCU: 0x1F9C4, offset: 0x1F9C4, size: 0x8, addend: 0x0, symName: __ZNKSt3__16__lessImmEclB7v160006ERKmS3_, symObjAddr: 0x4F20, symBinAddr: 0x100008CB8, symSize: 0x34 }
  - { offsetInCU: 0x1FA06, offset: 0x1FA06, size: 0x8, addend: 0x0, symName: __ZNSt3__111char_traitsIcE7compareEPKcS3_m, symObjAddr: 0x4F54, symBinAddr: 0x100008CEC, symSize: 0x6C }
  - { offsetInCU: 0x1FA45, offset: 0x1FA45, size: 0x8, addend: 0x0, symName: __ZNSt3__117basic_string_viewIcNS_11char_traitsIcEEEC2B7v160006EPKc, symObjAddr: 0x4FF4, symBinAddr: 0x100008D8C, symSize: 0x44 }
  - { offsetInCU: 0x1FA7E, offset: 0x1FA7E, size: 0x8, addend: 0x0, symName: __ZNSt3__111char_traitsIcE6lengthEPKc, symObjAddr: 0x505C, symBinAddr: 0x100008DF4, symSize: 0x34 }
  - { offsetInCU: 0x1FAA1, offset: 0x1FAA1, size: 0x8, addend: 0x0, symName: __ZN15ScheduledModuleD2Ev, symObjAddr: 0x50B4, symBinAddr: 0x100008E4C, symSize: 0x44 }
  - { offsetInCU: 0x1FACD, offset: 0x1FACD, size: 0x8, addend: 0x0, symName: __ZN10ChromosomeD2Ev, symObjAddr: 0x50F8, symBinAddr: 0x100008E90, symSize: 0x2C }
  - { offsetInCU: 0x1FAF9, offset: 0x1FAF9, size: 0x8, addend: 0x0, symName: __ZNSt3__114basic_ifstreamIcNS_11char_traitsIcEEED2Ev, symObjAddr: 0x5124, symBinAddr: 0x100008EBC, symSize: 0x64 }
  - { offsetInCU: 0x1FB33, offset: 0x1FB33, size: 0x8, addend: 0x0, symName: __ZTv0_n24_NSt3__114basic_ifstreamIcNS_11char_traitsIcEEED1Ev, symObjAddr: 0x5188, symBinAddr: 0x100008F20, symSize: 0x28 }
  - { offsetInCU: 0x1FB4A, offset: 0x1FB4A, size: 0x8, addend: 0x0, symName: __ZNSt3__112basic_stringIcNS_11char_traitsIcEENS_9allocatorIcEEEC2B7v160006IDnEEPKc, symObjAddr: 0x51B0, symBinAddr: 0x100008F48, symSize: 0x60 }
  - { offsetInCU: 0x1FB88, offset: 0x1FB88, size: 0x8, addend: 0x0, symName: __ZNSt3__14pairIiNS_12basic_stringIcNS_11char_traitsIcEENS_9allocatorIcEEEEED2Ev, symObjAddr: 0x5210, symBinAddr: 0x100008FA8, symSize: 0x30 }
  - { offsetInCU: 0x1FBB4, offset: 0x1FBB4, size: 0x8, addend: 0x0, symName: __ZNKSt3__16chrono8durationIxNS_5ratioILl1ELl1000000000EEEE5countB7v160006Ev, symObjAddr: 0x528C, symBinAddr: 0x100009024, symSize: 0x18 }
  - { offsetInCU: 0x1FBE9, offset: 0x1FBE9, size: 0x8, addend: 0x0, symName: __ZNSt3__16chrono8durationIxNS_5ratioILl1ELl1EEEEC1B7v160006IxEERKT_PNS_9enable_ifIXaasr14is_convertibleIS8_xEE5valueooL_ZNS_17integral_constantIbLb0EE5valueEEntsr23treat_as_floating_pointIS6_EE5valueEvE4typeE, symObjAddr: 0x52A4, symBinAddr: 0x10000903C, symSize: 0x3C }
  - { offsetInCU: 0x1FC36, offset: 0x1FC36, size: 0x8, addend: 0x0, symName: __ZNSt3__16chrono8durationIxNS_5ratioILl1ELl1EEEEC2B7v160006IxEERKT_PNS_9enable_ifIXaasr14is_convertibleIS8_xEE5valueooL_ZNS_17integral_constantIbLb0EE5valueEEntsr23treat_as_floating_pointIS6_EE5valueEvE4typeE, symObjAddr: 0x52E0, symBinAddr: 0x100009078, symSize: 0x28 }
  - { offsetInCU: 0x1FCA1, offset: 0x1FCA1, size: 0x8, addend: 0x0, symName: __ZNKSt3__16chrono10time_pointINS0_12steady_clockENS0_8durationIxNS_5ratioILl1ELl1000000000EEEEEE16time_since_epochB7v160006Ev, symObjAddr: 0x5378, symBinAddr: 0x100009110, symSize: 0x20 }
  - { offsetInCU: 0x1FCC7, offset: 0x1FCC7, size: 0x8, addend: 0x0, symName: __ZNSt3__16chrono8durationIxNS_5ratioILl1ELl1000000000EEEEC1B7v160006IxEERKT_PNS_9enable_ifIXaasr14is_convertibleIS8_xEE5valueooL_ZNS_17integral_constantIbLb0EE5valueEEntsr23treat_as_floating_pointIS6_EE5valueEvE4typeE, symObjAddr: 0x5398, symBinAddr: 0x100009130, symSize: 0x3C }
  - { offsetInCU: 0x1FD14, offset: 0x1FD14, size: 0x8, addend: 0x0, symName: __ZNSt3__16chrono8durationIxNS_5ratioILl1ELl1000000000EEEEC2B7v160006IxEERKT_PNS_9enable_ifIXaasr14is_convertibleIS8_xEE5valueooL_ZNS_17integral_constantIbLb0EE5valueEEntsr23treat_as_floating_pointIS6_EE5valueEvE4typeE, symObjAddr: 0x53D4, symBinAddr: 0x10000916C, symSize: 0x28 }
  - { offsetInCU: 0x1FD61, offset: 0x1FD61, size: 0x8, addend: 0x0, symName: __ZN16GeneticAlgorithmD2Ev, symObjAddr: 0x53FC, symBinAddr: 0x100009194, symSize: 0x44 }
  - { offsetInCU: 0x1FD8D, offset: 0x1FD8D, size: 0x8, addend: 0x0, symName: __ZNSt3__16vectorIdNS_9allocatorIdEEED1B7v160006Ev, symObjAddr: 0x5440, symBinAddr: 0x1000091D8, symSize: 0x2C }
  - { offsetInCU: 0x1FDB7, offset: 0x1FDB7, size: 0x8, addend: 0x0, symName: __ZNSt3__16vectorIdNS_9allocatorIdEEED2B7v160006Ev, symObjAddr: 0x546C, symBinAddr: 0x100009204, symSize: 0x44 }
  - { offsetInCU: 0x1FDE1, offset: 0x1FDE1, size: 0x8, addend: 0x0, symName: __ZNSt3__16vectorIdNS_9allocatorIdEEE16__destroy_vectorC1ERS3_, symObjAddr: 0x54B0, symBinAddr: 0x100009248, symSize: 0x34 }
  - { offsetInCU: 0x1FE1A, offset: 0x1FE1A, size: 0x8, addend: 0x0, symName: __ZNSt3__16vectorIdNS_9allocatorIdEEE16__destroy_vectorclB7v160006Ev, symObjAddr: 0x54E4, symBinAddr: 0x10000927C, symSize: 0x9C }
  - { offsetInCU: 0x1FE40, offset: 0x1FE40, size: 0x8, addend: 0x0, symName: __ZNSt3__16vectorIdNS_9allocatorIdEEE16__destroy_vectorC2ERS3_, symObjAddr: 0x5580, symBinAddr: 0x100009318, symSize: 0x20 }
  - { offsetInCU: 0x1FE79, offset: 0x1FE79, size: 0x8, addend: 0x0, symName: __ZNKSt3__16vectorIdNS_9allocatorIdEEE17__annotate_deleteB7v160006Ev, symObjAddr: 0x55A0, symBinAddr: 0x100009338, symSize: 0xB8 }
  - { offsetInCU: 0x1FE9F, offset: 0x1FE9F, size: 0x8, addend: 0x0, symName: __ZNSt3__16vectorIdNS_9allocatorIdEEE7__clearB7v160006Ev, symObjAddr: 0x5668, symBinAddr: 0x100009400, symSize: 0x28 }
  - { offsetInCU: 0x1FEC5, offset: 0x1FEC5, size: 0x8, addend: 0x0, symName: __ZNSt3__116allocator_traitsINS_9allocatorIdEEE10deallocateB7v160006ERS2_Pdm, symObjAddr: 0x5690, symBinAddr: 0x100009428, symSize: 0x34 }
  - { offsetInCU: 0x1FF07, offset: 0x1FF07, size: 0x8, addend: 0x0, symName: __ZNSt3__16vectorIdNS_9allocatorIdEEE7__allocB7v160006Ev, symObjAddr: 0x56C4, symBinAddr: 0x10000945C, symSize: 0x28 }
  - { offsetInCU: 0x1FF2D, offset: 0x1FF2D, size: 0x8, addend: 0x0, symName: __ZNKSt3__16vectorIdNS_9allocatorIdEEE8capacityB7v160006Ev, symObjAddr: 0x56EC, symBinAddr: 0x100009484, symSize: 0x40 }
  - { offsetInCU: 0x1FF53, offset: 0x1FF53, size: 0x8, addend: 0x0, symName: __ZNKSt3__16vectorIdNS_9allocatorIdEEE31__annotate_contiguous_containerB7v160006EPKvS5_S5_S5_, symObjAddr: 0x572C, symBinAddr: 0x1000094C4, symSize: 0x20 }
  - { offsetInCU: 0x1FFA9, offset: 0x1FFA9, size: 0x8, addend: 0x0, symName: __ZNKSt3__16vectorIdNS_9allocatorIdEEE4dataB7v160006Ev, symObjAddr: 0x574C, symBinAddr: 0x1000094E4, symSize: 0x28 }
  - { offsetInCU: 0x1FFCF, offset: 0x1FFCF, size: 0x8, addend: 0x0, symName: __ZNKSt3__16vectorIdNS_9allocatorIdEEE4sizeB7v160006Ev, symObjAddr: 0x5774, symBinAddr: 0x10000950C, symSize: 0x28 }
  - { offsetInCU: 0x1FFF5, offset: 0x1FFF5, size: 0x8, addend: 0x0, symName: __ZNSt3__16vectorIdNS_9allocatorIdEEE22__base_destruct_at_endB7v160006EPd, symObjAddr: 0x57B0, symBinAddr: 0x100009548, symSize: 0x8C }
  - { offsetInCU: 0x20039, offset: 0x20039, size: 0x8, addend: 0x0, symName: __ZNSt3__116allocator_traitsINS_9allocatorIdEEE7destroyB7v160006IdvvEEvRS2_PT_, symObjAddr: 0x583C, symBinAddr: 0x1000095D4, symSize: 0x28 }
  - { offsetInCU: 0x20074, offset: 0x20074, size: 0x8, addend: 0x0, symName: __ZNSt3__19allocatorIdE10deallocateB7v160006EPdm, symObjAddr: 0x5898, symBinAddr: 0x100009630, symSize: 0x40 }
  - { offsetInCU: 0x200B6, offset: 0x200B6, size: 0x8, addend: 0x0, symName: __ZNSt3__117__compressed_pairIPdNS_9allocatorIdEEE6secondB7v160006Ev, symObjAddr: 0x58D8, symBinAddr: 0x100009670, symSize: 0x24 }
  - { offsetInCU: 0x200DC, offset: 0x200DC, size: 0x8, addend: 0x0, symName: __ZNSt3__122__compressed_pair_elemINS_9allocatorIdEELi1ELb1EE5__getB7v160006Ev, symObjAddr: 0x58FC, symBinAddr: 0x100009694, symSize: 0x14 }
  - { offsetInCU: 0x20102, offset: 0x20102, size: 0x8, addend: 0x0, symName: __ZNKSt3__16vectorIdNS_9allocatorIdEEE9__end_capB7v160006Ev, symObjAddr: 0x5910, symBinAddr: 0x1000096A8, symSize: 0x28 }
  - { offsetInCU: 0x20128, offset: 0x20128, size: 0x8, addend: 0x0, symName: __ZNKSt3__117__compressed_pairIPdNS_9allocatorIdEEE5firstB7v160006Ev, symObjAddr: 0x5938, symBinAddr: 0x1000096D0, symSize: 0x24 }
  - { offsetInCU: 0x2014E, offset: 0x2014E, size: 0x8, addend: 0x0, symName: __ZNKSt3__122__compressed_pair_elemIPdLi0ELb0EE5__getB7v160006Ev, symObjAddr: 0x595C, symBinAddr: 0x1000096F4, symSize: 0x14 }
  - { offsetInCU: 0x20174, offset: 0x20174, size: 0x8, addend: 0x0, symName: __ZN10PopulationD2Ev, symObjAddr: 0x5970, symBinAddr: 0x100009708, symSize: 0x2C }
  - { offsetInCU: 0x201A0, offset: 0x201A0, size: 0x8, addend: 0x0, symName: __ZNSt3__19basic_iosIcNS_11char_traitsIcEEEC2B7v160006Ev, symObjAddr: 0x599C, symBinAddr: 0x100009734, symSize: 0x44 }
  - { offsetInCU: 0x201CA, offset: 0x201CA, size: 0x8, addend: 0x0, symName: __ZNSt3__113basic_ostreamIcNS_11char_traitsIcEEEC2B7v160006EPNS_15basic_streambufIcS2_EE, symObjAddr: 0x59E0, symBinAddr: 0x100009778, symSize: 0x60 }
  - { offsetInCU: 0x2020F, offset: 0x2020F, size: 0x8, addend: 0x0, symName: __ZNSt3__113basic_filebufIcNS_11char_traitsIcEEE4openERKNS_12basic_stringIcS2_NS_9allocatorIcEEEEj, symObjAddr: 0x5A40, symBinAddr: 0x1000097D8, symSize: 0x44 }
  - { offsetInCU: 0x20253, offset: 0x20253, size: 0x8, addend: 0x0, symName: __ZNSt3__19basic_iosIcNS_11char_traitsIcEEE8setstateB7v160006Ej, symObjAddr: 0x5A84, symBinAddr: 0x10000981C, symSize: 0x2C }
  - { offsetInCU: 0x20288, offset: 0x20288, size: 0x8, addend: 0x0, symName: __ZNSt3__18ios_baseC2B7v160006Ev, symObjAddr: 0x5AB0, symBinAddr: 0x100009848, symSize: 0x24 }
  - { offsetInCU: 0x202B2, offset: 0x202B2, size: 0x8, addend: 0x0, symName: __ZNSt3__19basic_iosIcNS_11char_traitsIcEEE4initB7v160006EPNS_15basic_streambufIcS2_EE, symObjAddr: 0x5AD4, symBinAddr: 0x10000986C, symSize: 0x44 }
  - { offsetInCU: 0x202E9, offset: 0x202E9, size: 0x8, addend: 0x0, symName: __ZNSt3__111char_traitsIcE3eofEv, symObjAddr: 0x5B18, symBinAddr: 0x1000098B0, symSize: 0x8 }
  - { offsetInCU: 0x202FD, offset: 0x202FD, size: 0x8, addend: 0x0, symName: __ZNKSt3__112basic_stringIcNS_11char_traitsIcEENS_9allocatorIcEEE5c_strB7v160006Ev, symObjAddr: 0x5B20, symBinAddr: 0x1000098B8, symSize: 0x24 }
  - { offsetInCU: 0x20323, offset: 0x20323, size: 0x8, addend: 0x0, symName: __ZNSt3__18ios_base8setstateB7v160006Ej, symObjAddr: 0x5B44, symBinAddr: 0x1000098DC, symSize: 0x34 }
  - { offsetInCU: 0x20378, offset: 0x20378, size: 0x8, addend: 0x0, symName: __ZNKSt3__113basic_ostreamIcNS_11char_traitsIcEEE6sentrycvbB7v160006Ev, symObjAddr: 0x5D64, symBinAddr: 0x100009AFC, symSize: 0x1C }
  - { offsetInCU: 0x2039E, offset: 0x2039E, size: 0x8, addend: 0x0, symName: __ZNSt3__119ostreambuf_iteratorIcNS_11char_traitsIcEEEC1B7v160006ERNS_13basic_ostreamIcS2_EE, symObjAddr: 0x5FC0, symBinAddr: 0x100009D58, symSize: 0x34 }
  - { offsetInCU: 0x203D6, offset: 0x203D6, size: 0x8, addend: 0x0, symName: __ZNKSt3__18ios_base5flagsB7v160006Ev, symObjAddr: 0x5FF4, symBinAddr: 0x100009D8C, symSize: 0x18 }
  - { offsetInCU: 0x203FE, offset: 0x203FE, size: 0x8, addend: 0x0, symName: __ZNKSt3__19basic_iosIcNS_11char_traitsIcEEE4fillB7v160006Ev, symObjAddr: 0x600C, symBinAddr: 0x100009DA4, symSize: 0x64 }
  - { offsetInCU: 0x20426, offset: 0x20426, size: 0x8, addend: 0x0, symName: __ZNKSt3__119ostreambuf_iteratorIcNS_11char_traitsIcEEE6failedB7v160006Ev, symObjAddr: 0x6070, symBinAddr: 0x100009E08, symSize: 0x24 }
  - { offsetInCU: 0x2044C, offset: 0x2044C, size: 0x8, addend: 0x0, symName: __ZNKSt3__18ios_base5widthB7v160006Ev, symObjAddr: 0x6094, symBinAddr: 0x100009E2C, symSize: 0x18 }
  - { offsetInCU: 0x20474, offset: 0x20474, size: 0x8, addend: 0x0, symName: __ZNSt3__115basic_streambufIcNS_11char_traitsIcEEE5sputnB7v160006EPKcl, symObjAddr: 0x60AC, symBinAddr: 0x100009E44, symSize: 0x3C }
  - { offsetInCU: 0x204B6, offset: 0x204B6, size: 0x8, addend: 0x0, symName: __ZNSt3__112basic_stringIcNS_11char_traitsIcEENS_9allocatorIcEEEC1B7v160006Emc, symObjAddr: 0x60E8, symBinAddr: 0x100009E80, symSize: 0x3C }
  - { offsetInCU: 0x204FE, offset: 0x204FE, size: 0x8, addend: 0x0, symName: __ZNSt3__112basic_stringIcNS_11char_traitsIcEENS_9allocatorIcEEE4dataB7v160006Ev, symObjAddr: 0x6124, symBinAddr: 0x100009EBC, symSize: 0x28 }
  - { offsetInCU: 0x20524, offset: 0x20524, size: 0x8, addend: 0x0, symName: __ZNSt3__18ios_base5widthB7v160006El, symObjAddr: 0x614C, symBinAddr: 0x100009EE4, symSize: 0x2C }
  - { offsetInCU: 0x2056A, offset: 0x2056A, size: 0x8, addend: 0x0, symName: __ZNSt3__112basic_stringIcNS_11char_traitsIcEENS_9allocatorIcEEEC2B7v160006Emc, symObjAddr: 0x6178, symBinAddr: 0x100009F10, symSize: 0x54 }
  - { offsetInCU: 0x205B2, offset: 0x205B2, size: 0x8, addend: 0x0, symName: __ZNSt3__112basic_stringIcNS_11char_traitsIcEENS_9allocatorIcEEE13__get_pointerB7v160006Ev, symObjAddr: 0x61E0, symBinAddr: 0x100009F78, symSize: 0x54 }
  - { offsetInCU: 0x205D8, offset: 0x205D8, size: 0x8, addend: 0x0, symName: __ZNSt3__112basic_stringIcNS_11char_traitsIcEENS_9allocatorIcEEE18__get_long_pointerB7v160006Ev, symObjAddr: 0x6234, symBinAddr: 0x100009FCC, symSize: 0x28 }
  - { offsetInCU: 0x205FE, offset: 0x205FE, size: 0x8, addend: 0x0, symName: __ZNSt3__112basic_stringIcNS_11char_traitsIcEENS_9allocatorIcEEE19__get_short_pointerB7v160006Ev, symObjAddr: 0x625C, symBinAddr: 0x100009FF4, symSize: 0x28 }
  - { offsetInCU: 0x20624, offset: 0x20624, size: 0x8, addend: 0x0, symName: __ZNSt3__114pointer_traitsIPcE10pointer_toB7v160006ERc, symObjAddr: 0x6284, symBinAddr: 0x10000A01C, symSize: 0x14 }
  - { offsetInCU: 0x20647, offset: 0x20647, size: 0x8, addend: 0x0, symName: __ZNSt3__119ostreambuf_iteratorIcNS_11char_traitsIcEEEC2B7v160006ERNS_13basic_ostreamIcS2_EE, symObjAddr: 0x6298, symBinAddr: 0x10000A030, symSize: 0x54 }
  - { offsetInCU: 0x2067F, offset: 0x2067F, size: 0x8, addend: 0x0, symName: __ZNKSt3__19basic_iosIcNS_11char_traitsIcEEE5rdbufB7v160006Ev, symObjAddr: 0x62EC, symBinAddr: 0x10000A084, symSize: 0x24 }
  - { offsetInCU: 0x206A7, offset: 0x206A7, size: 0x8, addend: 0x0, symName: __ZNKSt3__18ios_base5rdbufB7v160006Ev, symObjAddr: 0x6310, symBinAddr: 0x10000A0A8, symSize: 0x18 }
  - { offsetInCU: 0x206CD, offset: 0x206CD, size: 0x8, addend: 0x0, symName: __ZNSt3__111char_traitsIcE11eq_int_typeEii, symObjAddr: 0x6328, symBinAddr: 0x10000A0C0, symSize: 0x28 }
  - { offsetInCU: 0x206FE, offset: 0x206FE, size: 0x8, addend: 0x0, symName: __ZNKSt3__19basic_iosIcNS_11char_traitsIcEEE5widenB7v160006Ec, symObjAddr: 0x6350, symBinAddr: 0x10000A0E8, symSize: 0x84 }
  - { offsetInCU: 0x2076C, offset: 0x2076C, size: 0x8, addend: 0x0, symName: __ZNKSt3__15ctypeIcE5widenB7v160006Ec, symObjAddr: 0x6400, symBinAddr: 0x10000A198, symSize: 0x38 }
  - { offsetInCU: 0x207A1, offset: 0x207A1, size: 0x8, addend: 0x0, symName: __ZNSt3__113basic_istreamIcNS_11char_traitsIcEEEC2B7v160006EPNS_15basic_streambufIcS2_EE, symObjAddr: 0x6438, symBinAddr: 0x10000A1D0, symSize: 0x64 }
  - { offsetInCU: 0x20804, offset: 0x20804, size: 0x8, addend: 0x0, symName: __ZNKSt3__113basic_istreamIcNS_11char_traitsIcEEE6sentrycvbB7v160006Ev, symObjAddr: 0x66D4, symBinAddr: 0x10000A46C, symSize: 0x1C }
  - { offsetInCU: 0x2082A, offset: 0x2082A, size: 0x8, addend: 0x0, symName: __ZNSt3__112basic_stringIcNS_11char_traitsIcEENS_9allocatorIcEEE5clearB7v160006Ev, symObjAddr: 0x66F0, symBinAddr: 0x10000A488, symSize: 0x88 }
  - { offsetInCU: 0x20852, offset: 0x20852, size: 0x8, addend: 0x0, symName: __ZNSt3__115basic_streambufIcNS_11char_traitsIcEEE6sbumpcB7v160006Ev, symObjAddr: 0x6778, symBinAddr: 0x10000A510, symSize: 0x78 }
  - { offsetInCU: 0x20878, offset: 0x20878, size: 0x8, addend: 0x0, symName: __ZNSt3__111char_traitsIcE12to_char_typeEi, symObjAddr: 0x67F0, symBinAddr: 0x10000A588, symSize: 0x18 }
  - { offsetInCU: 0x2089B, offset: 0x2089B, size: 0x8, addend: 0x0, symName: __ZNSt3__111char_traitsIcE2eqEcc, symObjAddr: 0x6808, symBinAddr: 0x10000A5A0, symSize: 0x28 }
  - { offsetInCU: 0x208CC, offset: 0x208CC, size: 0x8, addend: 0x0, symName: __ZNKSt3__112basic_stringIcNS_11char_traitsIcEENS_9allocatorIcEEE8max_sizeB7v160006Ev, symObjAddr: 0x6830, symBinAddr: 0x10000A5C8, symSize: 0xAC }
  - { offsetInCU: 0x2091E, offset: 0x2091E, size: 0x8, addend: 0x0, symName: __ZNSt3__18ios_base18__setstate_nothrowB7v160006Ej, symObjAddr: 0x68DC, symBinAddr: 0x10000A674, symSize: 0x64 }
  - { offsetInCU: 0x20953, offset: 0x20953, size: 0x8, addend: 0x0, symName: __ZNKSt3__19basic_iosIcNS_11char_traitsIcEEE10exceptionsB7v160006Ev, symObjAddr: 0x6940, symBinAddr: 0x10000A6D8, symSize: 0x24 }
  - { offsetInCU: 0x20979, offset: 0x20979, size: 0x8, addend: 0x0, symName: __ZNSt3__111char_traitsIcE6assignERcRKc, symObjAddr: 0x6974, symBinAddr: 0x10000A70C, symSize: 0x24 }
  - { offsetInCU: 0x209AA, offset: 0x209AA, size: 0x8, addend: 0x0, symName: __ZNSt3__112basic_stringIcNS_11char_traitsIcEENS_9allocatorIcEEE15__set_long_sizeB7v160006Em, symObjAddr: 0x6998, symBinAddr: 0x10000A730, symSize: 0x38 }
  - { offsetInCU: 0x209DF, offset: 0x209DF, size: 0x8, addend: 0x0, symName: __ZNSt3__112basic_stringIcNS_11char_traitsIcEENS_9allocatorIcEEE16__set_short_sizeB7v160006Em, symObjAddr: 0x69D0, symBinAddr: 0x10000A768, symSize: 0x78 }
  - { offsetInCU: 0x20A14, offset: 0x20A14, size: 0x8, addend: 0x0, symName: __ZNSt3__111char_traitsIcE11to_int_typeEc, symObjAddr: 0x6A48, symBinAddr: 0x10000A7E0, symSize: 0x14 }
  - { offsetInCU: 0x20A41, offset: 0x20A41, size: 0x8, addend: 0x0, symName: __ZNSt3__116allocator_traitsINS_9allocatorIcEEE8max_sizeB7v160006IS2_vvEEmRKS2_, symObjAddr: 0x6A5C, symBinAddr: 0x10000A7F4, symSize: 0x28 }
  - { offsetInCU: 0x20A6D, offset: 0x20A6D, size: 0x8, addend: 0x0, symName: __ZNKSt3__112basic_stringIcNS_11char_traitsIcEENS_9allocatorIcEEE7__allocB7v160006Ev, symObjAddr: 0x6A84, symBinAddr: 0x10000A81C, symSize: 0x24 }
  - { offsetInCU: 0x20A93, offset: 0x20A93, size: 0x8, addend: 0x0, symName: __ZNSt3__114numeric_limitsImE3maxB7v160006Ev, symObjAddr: 0x6AA8, symBinAddr: 0x10000A840, symSize: 0x14 }
  - { offsetInCU: 0x20AA7, offset: 0x20AA7, size: 0x8, addend: 0x0, symName: __ZNKSt3__117__compressed_pairINS_12basic_stringIcNS_11char_traitsIcEENS_9allocatorIcEEE5__repES5_E6secondB7v160006Ev, symObjAddr: 0x6ABC, symBinAddr: 0x10000A854, symSize: 0x24 }
  - { offsetInCU: 0x20ACD, offset: 0x20ACD, size: 0x8, addend: 0x0, symName: __ZNKSt3__122__compressed_pair_elemINS_9allocatorIcEELi1ELb1EE5__getB7v160006Ev, symObjAddr: 0x6AE0, symBinAddr: 0x10000A878, symSize: 0x14 }
  - { offsetInCU: 0x20AF3, offset: 0x20AF3, size: 0x8, addend: 0x0, symName: __ZNSt3__123__libcpp_numeric_limitsImLb1EE3maxB7v160006Ev, symObjAddr: 0x6AF4, symBinAddr: 0x10000A88C, symSize: 0x8 }
  - { offsetInCU: 0x20B07, offset: 0x20B07, size: 0x8, addend: 0x0, symName: __ZNKSt3__18ios_base10exceptionsB7v160006Ev, symObjAddr: 0x6AFC, symBinAddr: 0x10000A894, symSize: 0x18 }
  - { offsetInCU: 0x20B2F, offset: 0x20B2F, size: 0x8, addend: 0x0, symName: __ZNKSt3__19basic_iosIcNS_11char_traitsIcEEE4failB7v160006Ev, symObjAddr: 0x6B14, symBinAddr: 0x10000A8AC, symSize: 0x28 }
  - { offsetInCU: 0x20B55, offset: 0x20B55, size: 0x8, addend: 0x0, symName: __ZNKSt3__18ios_base4failB7v160006Ev, symObjAddr: 0x6B3C, symBinAddr: 0x10000A8D4, symSize: 0x28 }
  - { offsetInCU: 0x5C, offset: 0x20D90, size: 0x8, addend: 0x0, symName: __ZNSt3__1L19piecewise_constructE, symObjAddr: 0x14E33, symBinAddr: 0x100048F6A, symSize: 0x0 }
  - { offsetInCU: 0x8C, offset: 0x20DC0, size: 0x8, addend: 0x0, symName: __ZNSt3__117__synth_three_wayB7v160006E, symObjAddr: 0x14E34, symBinAddr: 0x100048F6B, symSize: 0x0 }
  - { offsetInCU: 0x3F1B, offset: 0x24C4F, size: 0x8, addend: 0x0, symName: __ZNSt3__17advanceB7v160006IP15ScheduledModulellvEEvRT_T0_, symObjAddr: 0x69F4, symBinAddr: 0x100010D7C, symSize: 0x50 }
  - { offsetInCU: 0x42DE, offset: 0x25012, size: 0x8, addend: 0x0, symName: __ZNSt3__17advanceB7v160006INS_16reverse_iteratorIP15ScheduledModuleEEllvEEvRT_T0_, symObjAddr: 0x8124, symBinAddr: 0x100012000, symSize: 0x50 }
  - { offsetInCU: 0x434A, offset: 0x2507E, size: 0x8, addend: 0x0, symName: __ZNSt3__17advanceB7v160006IP15ScheduledModulemmvEEvRT_T0_, symObjAddr: 0x8698, symBinAddr: 0x1000124CC, symSize: 0x50 }
  - { offsetInCU: 0x6ECE, offset: 0x27C02, size: 0x8, addend: 0x0, symName: __ZNSt3__17advanceB7v160006IPillvEEvRT_T0_, symObjAddr: 0xBD9C, symBinAddr: 0x100015474, symSize: 0x50 }
  - { offsetInCU: 0x11B94, offset: 0x328C8, size: 0x8, addend: 0x0, symName: __ZNSt3__1neB7v160006IPK15ScheduledModuleEEbRKNS_11__wrap_iterIT_EES8_, symObjAddr: 0xAA4, symBinAddr: 0x10000B454, symSize: 0x34 }
  - { offsetInCU: 0x11BD7, offset: 0x3290B, size: 0x8, addend: 0x0, symName: __ZNSt3__19make_pairB7v160006IRNS_12basic_stringIcNS_11char_traitsIcEENS_9allocatorIcEEEES7_EENS_4pairINS_18__unwrap_ref_decayIT_E4typeENS9_IT0_E4typeEEEOSA_OSD_, symObjAddr: 0xB1C, symBinAddr: 0x10000B4A0, symSize: 0x40 }
  - { offsetInCU: 0x11C26, offset: 0x3295A, size: 0x8, addend: 0x0, symName: __ZNSt3__1neB7v160006ERKNS_14__map_iteratorINS_15__tree_iteratorINS_12__value_typeINS_12basic_stringIcNS_11char_traitsIcEENS_9allocatorIcEEEENS_3mapIiNS_4pairIS8_S8_EENS_4lessIiEENS6_INSA_IKiSB_EEEEEEEEPNS_11__tree_nodeISI_PvEElEEEESQ_, symObjAddr: 0xD60, symBinAddr: 0x10000B6E4, symSize: 0x30 }
  - { offsetInCU: 0x11C63, offset: 0x32997, size: 0x8, addend: 0x0, symName: __ZNSt3__1neB7v160006ERKNS_20__map_const_iteratorINS_21__tree_const_iteratorINS_12__value_typeIiNS_4pairINS_12basic_stringIcNS_11char_traitsIcEENS_9allocatorIcEEEES9_EEEEPNS_11__tree_nodeISB_PvEElEEEESJ_, symObjAddr: 0xF40, symBinAddr: 0x10000B7AC, symSize: 0x30 }
  - { offsetInCU: 0x11CA0, offset: 0x329D4, size: 0x8, addend: 0x0, symName: __ZNSt3__1eqB7v160006I15ScheduledModuleNS_9allocatorIS1_EEEEbRKNS_6vectorIT_T0_EES9_, symObjAddr: 0x10AC, symBinAddr: 0x10000B918, symSize: 0x9C }
  - { offsetInCU: 0x11CFE, offset: 0x32A32, size: 0x8, addend: 0x0, symName: __ZNSt3__19make_pairB7v160006IRiS1_EENS_4pairINS_18__unwrap_ref_decayIT_E4typeENS3_IT0_E4typeEEEOS4_OS7_, symObjAddr: 0x263C, symBinAddr: 0x10000CDFC, symSize: 0x34 }
  - { offsetInCU: 0x11D4D, offset: 0x32A81, size: 0x8, addend: 0x0, symName: __ZNSt3__1neB7v160006ERKNS_14__map_iteratorINS_15__tree_iteratorINS_12__value_typeINS_4pairIiiEEiEEPNS_11__tree_nodeIS5_PvEElEEEESD_, symObjAddr: 0x2780, symBinAddr: 0x10000CF20, symSize: 0x30 }
  - { offsetInCU: 0x129D0, offset: 0x33704, size: 0x8, addend: 0x0, symName: __ZNSt3__1neB7v160006IP26LecturerTimeSlotPreferenceEEbRKNS_11__wrap_iterIT_EES7_, symObjAddr: 0x29A8, symBinAddr: 0x10000D148, symSize: 0x34 }
  - { offsetInCU: 0x12A13, offset: 0x33747, size: 0x8, addend: 0x0, symName: __ZNSt3__1neB7v160006IPK8TimeSlotEEbRKNS_11__wrap_iterIT_EES8_, symObjAddr: 0x2A54, symBinAddr: 0x10000D1F4, symSize: 0x34 }
  - { offsetInCU: 0x12A56, offset: 0x3378A, size: 0x8, addend: 0x0, symName: __ZNSt3__1neB7v160006ERKNS_14__map_iteratorINS_15__tree_iteratorINS_12__value_typeINS_4pairIiiEENS_6vectorIiNS_9allocatorIiEEEEEEPNS_11__tree_nodeIS9_PvEElEEEESH_, symObjAddr: 0x2CB8, symBinAddr: 0x10000D42C, symSize: 0x30 }
  - { offsetInCU: 0x12A93, offset: 0x337C7, size: 0x8, addend: 0x0, symName: __ZNSt3__14sortB7v160006INS_11__wrap_iterIPiEEEEvT_S4_, symObjAddr: 0x2D44, symBinAddr: 0x10000D4B8, symSize: 0x3C }
  - { offsetInCU: 0x12AD5, offset: 0x33809, size: 0x8, addend: 0x0, symName: __ZNSt3__1neB7v160006IPKiEEbRKNS_11__wrap_iterIT_EES7_, symObjAddr: 0x4F28, symBinAddr: 0x10000F63C, symSize: 0x34 }
  - { offsetInCU: 0x12B18, offset: 0x3384C, size: 0x8, addend: 0x0, symName: __ZNSt3__1plB7v160006IcNS_11char_traitsIcEENS_9allocatorIcEEEENS_12basic_stringIT_T0_T1_EEOS9_PKS6_, symObjAddr: 0x4F74, symBinAddr: 0x10000F688, symSize: 0x40 }
  - { offsetInCU: 0x12B70, offset: 0x338A4, size: 0x8, addend: 0x0, symName: __ZNSt3__1plB7v160006IcNS_11char_traitsIcEENS_9allocatorIcEEEENS_12basic_stringIT_T0_T1_EEPKS6_OS9_, symObjAddr: 0x5060, symBinAddr: 0x10000F774, symSize: 0x44 }
  - { offsetInCU: 0x12BC8, offset: 0x338FC, size: 0x8, addend: 0x0, symName: __ZNSt3__1eqB7v160006IPK8TimeSlotEEbRKNS_11__wrap_iterIT_EES8_, symObjAddr: 0x50E0, symBinAddr: 0x10000F7F4, symSize: 0x48 }
  - { offsetInCU: 0x12C0B, offset: 0x3393F, size: 0x8, addend: 0x0, symName: '__ZNSt3__17find_ifB7v160006INS_11__wrap_iterIPK8TimeSlotEEZN10Chromosome14catchViolationEvE3$_1EET_S8_S8_T0_', symObjAddr: 0x5128, symBinAddr: 0x10000F83C, symSize: 0x7C }
  - { offsetInCU: 0x12C66, offset: 0x3399A, size: 0x8, addend: 0x0, symName: __ZNSt3__1plB7v160006IcNS_11char_traitsIcEENS_9allocatorIcEEEENS_12basic_stringIT_T0_T1_EEOS9_SA_, symObjAddr: 0x5204, symBinAddr: 0x10000F918, symSize: 0x40 }
  - { offsetInCU: 0x12CBE, offset: 0x339F2, size: 0x8, addend: 0x0, symName: __ZNSt3__119__debug_db_insert_cB7v160006INS_6vectorI15ScheduledModuleNS_9allocatorIS2_EEEEEEvPT_, symObjAddr: 0x535C, symBinAddr: 0x10000FA64, symSize: 0x10 }
  - { offsetInCU: 0x12CEF, offset: 0x33A23, size: 0x8, addend: 0x0, symName: __ZNSt3__122__make_exception_guardB7v160006INS_6vectorI15ScheduledModuleNS_9allocatorIS2_EEE16__destroy_vectorEEENS_28__exception_guard_exceptionsIT_EES8_, symObjAddr: 0x55B8, symBinAddr: 0x10000FCC0, symSize: 0x40 }
  - { offsetInCU: 0x12D24, offset: 0x33A58, size: 0x8, addend: 0x0, symName: __ZNSt3__119__allocate_at_leastB7v160006INS_9allocatorI15ScheduledModuleEEEENS_19__allocation_resultINS_16allocator_traitsIT_E7pointerEEERS6_m, symObjAddr: 0x593C, symBinAddr: 0x10000FFF0, symSize: 0x40 }
  - { offsetInCU: 0x12F51, offset: 0x33C85, size: 0x8, addend: 0x0, symName: __ZNSt3__120__throw_length_errorB7v160006EPKc, symObjAddr: 0x5BA8, symBinAddr: 0x100010164, symSize: 0x64 }
  - { offsetInCU: 0x12F7A, offset: 0x33CAE, size: 0x8, addend: 0x0, symName: __ZNSt3__117__libcpp_allocateB7v160006Emm, symObjAddr: 0x5D1C, symBinAddr: 0x1000102D8, symSize: 0x60 }
  - { offsetInCU: 0x12FD4, offset: 0x33D08, size: 0x8, addend: 0x0, symName: __ZNSt3__121__libcpp_operator_newB7v160006IJmSt11align_val_tEEEPvDpT_, symObjAddr: 0x5D9C, symBinAddr: 0x100010338, symSize: 0x2C }
  - { offsetInCU: 0x13021, offset: 0x33D55, size: 0x8, addend: 0x0, symName: __ZNSt3__121__libcpp_operator_newB7v160006IJmEEEPvDpT_, symObjAddr: 0x5DC8, symBinAddr: 0x100010364, symSize: 0x24 }
  - { offsetInCU: 0x1305A, offset: 0x33D8E, size: 0x8, addend: 0x0, symName: __ZNSt3__130__uninitialized_allocator_copyB7v160006INS_9allocatorI15ScheduledModuleEEPS2_S4_S4_EET2_RT_T0_T1_S5_, symObjAddr: 0x5F94, symBinAddr: 0x1000103FC, symSize: 0xF4 }
  - { offsetInCU: 0x130F8, offset: 0x33E2C, size: 0x8, addend: 0x0, symName: __ZNSt3__122__make_exception_guardB7v160006INS_29_AllocatorDestroyRangeReverseINS_9allocatorI15ScheduledModuleEEPS3_EEEENS_28__exception_guard_exceptionsIT_EES8_, symObjAddr: 0x6100, symBinAddr: 0x100010568, symSize: 0x4C }
  - { offsetInCU: 0x13155, offset: 0x33E89, size: 0x8, addend: 0x0, symName: __ZNSt3__112construct_atB7v160006I15ScheduledModuleJRS1_EPS1_EEPT_S5_DpOT0_, symObjAddr: 0x62A4, symBinAddr: 0x10001070C, symSize: 0x3C }
  - { offsetInCU: 0x131C7, offset: 0x33EFB, size: 0x8, addend: 0x0, symName: __ZNSt3__119__allocator_destroyB7v160006INS_9allocatorI15ScheduledModuleEENS_16reverse_iteratorIPS2_EES6_EEvRT_T0_T1_, symObjAddr: 0x6718, symBinAddr: 0x100010B80, symSize: 0x70 }
  - { offsetInCU: 0x1322A, offset: 0x33F5E, size: 0x8, addend: 0x0, symName: __ZNSt3__1neB7v160006IP15ScheduledModuleS2_EEbRKNS_16reverse_iteratorIT_EERKNS3_IT0_EE, symObjAddr: 0x67BC, symBinAddr: 0x100010C24, symSize: 0x48 }
  - { offsetInCU: 0x13276, offset: 0x33FAA, size: 0x8, addend: 0x0, symName: __ZNSt3__112__to_addressB7v160006INS_16reverse_iteratorIP15ScheduledModuleEEvEENS_5decayIDTclsr19__to_address_helperIT_EE6__callclsr3stdE7declvalIRKS6_EEEEE4typeES8_, symObjAddr: 0x682C, symBinAddr: 0x100010C6C, symSize: 0x24 }
  - { offsetInCU: 0x132D5, offset: 0x34009, size: 0x8, addend: 0x0, symName: __ZNSt3__14prevB7v160006IP15ScheduledModuleEENS_9enable_ifIXsr25__is_cpp17_input_iteratorIT_EE5valueES4_E4typeES4_NS_15iterator_traitsIS4_E15difference_typeE, symObjAddr: 0x69A4, symBinAddr: 0x100010D2C, symSize: 0x50 }
  - { offsetInCU: 0x13318, offset: 0x3404C, size: 0x8, addend: 0x0, symName: __ZNSt3__121__convert_to_integralB7v160006El, symObjAddr: 0x6A44, symBinAddr: 0x100010DCC, symSize: 0x14 }
  - { offsetInCU: 0x13344, offset: 0x34078, size: 0x8, addend: 0x0, symName: __ZNSt3__19__advanceB7v160006IP15ScheduledModuleEEvRT_NS_15iterator_traitsIS3_E15difference_typeENS_26random_access_iterator_tagE, symObjAddr: 0x6A58, symBinAddr: 0x100010DE0, symSize: 0x30 }
  - { offsetInCU: 0x1338E, offset: 0x340C2, size: 0x8, addend: 0x0, symName: __ZNSt3__112construct_atB7v160006I15ScheduledModuleJRKS1_EPS1_EEPT_S6_DpOT0_, symObjAddr: 0x706C, symBinAddr: 0x100011040, symSize: 0x3C }
  - { offsetInCU: 0x13400, offset: 0x34134, size: 0x8, addend: 0x0, symName: __ZNSt3__13maxB7v160006ImEERKT_S3_S3_, symObjAddr: 0x72E4, symBinAddr: 0x1000112B8, symSize: 0x2C }
  - { offsetInCU: 0x13443, offset: 0x34177, size: 0x8, addend: 0x0, symName: __ZNSt3__13maxB7v160006ImNS_6__lessImmEEEERKT_S5_S5_T0_, symObjAddr: 0x7310, symBinAddr: 0x1000112E4, symSize: 0x54 }
  - { offsetInCU: 0x1349D, offset: 0x341D1, size: 0x8, addend: 0x0, symName: __ZNSt3__142__uninitialized_allocator_move_if_noexceptB7v160006INS_9allocatorI15ScheduledModuleEENS_16reverse_iteratorIPS2_EES6_S6_EET2_RT_T0_T1_S7_, symObjAddr: 0x759C, symBinAddr: 0x100011570, symSize: 0x124 }
  - { offsetInCU: 0x1353D, offset: 0x34271, size: 0x8, addend: 0x0, symName: __ZNSt3__14swapB7v160006IP15ScheduledModuleEENS_9enable_ifIXaasr21is_move_constructibleIT_EE5valuesr18is_move_assignableIS4_EE5valueEvE4typeERS4_S7_, symObjAddr: 0x76C0, symBinAddr: 0x100011694, symSize: 0x3C }
  - { offsetInCU: 0x1358F, offset: 0x342C3, size: 0x8, addend: 0x0, symName: __ZNSt3__125__debug_db_invalidate_allB7v160006INS_6vectorI15ScheduledModuleNS_9allocatorIS2_EEEEEEvPT_, symObjAddr: 0x76FC, symBinAddr: 0x1000116D0, symSize: 0x10 }
  - { offsetInCU: 0x135C0, offset: 0x342F4, size: 0x8, addend: 0x0, symName: __ZNSt3__122__make_exception_guardB7v160006INS_29_AllocatorDestroyRangeReverseINS_9allocatorI15ScheduledModuleEENS_16reverse_iteratorIPS3_EEEEEENS_28__exception_guard_exceptionsIT_EESA_, symObjAddr: 0x770C, symBinAddr: 0x1000116E0, symSize: 0x4C }
  - { offsetInCU: 0x135F6, offset: 0x3432A, size: 0x8, addend: 0x0, symName: __ZNSt3__112construct_atB7v160006I15ScheduledModuleJS1_EPS1_EEPT_S4_DpOT0_, symObjAddr: 0x78D8, symBinAddr: 0x1000118AC, symSize: 0x3C }
  - { offsetInCU: 0x13668, offset: 0x3439C, size: 0x8, addend: 0x0, symName: __ZNSt3__115__debug_db_swapB7v160006INS_12basic_stringIcNS_11char_traitsIcEENS_9allocatorIcEEEEEEvPT_S8_, symObjAddr: 0x7C7C, symBinAddr: 0x100011BC8, symSize: 0x14 }
  - { offsetInCU: 0x136A7, offset: 0x343DB, size: 0x8, addend: 0x0, symName: __ZNSt3__119__allocator_destroyB7v160006INS_9allocatorI15ScheduledModuleEENS_16reverse_iteratorINS4_IPS2_EEEES7_EEvRT_T0_T1_, symObjAddr: 0x7EBC, symBinAddr: 0x100011D98, symSize: 0x70 }
  - { offsetInCU: 0x1370C, offset: 0x34440, size: 0x8, addend: 0x0, symName: __ZNSt3__1neB7v160006INS_16reverse_iteratorIP15ScheduledModuleEES4_EEbRKNS1_IT_EERKNS1_IT0_EE, symObjAddr: 0x7F68, symBinAddr: 0x100011E44, symSize: 0x60 }
  - { offsetInCU: 0x13758, offset: 0x3448C, size: 0x8, addend: 0x0, symName: __ZNSt3__112__to_addressB7v160006INS_16reverse_iteratorINS1_IP15ScheduledModuleEEEEvEENS_5decayIDTclsr19__to_address_helperIT_EE6__callclsr3stdE7declvalIRKS7_EEEEE4typeES9_, symObjAddr: 0x7FC8, symBinAddr: 0x100011EA4, symSize: 0x24 }
  - { offsetInCU: 0x137B7, offset: 0x344EB, size: 0x8, addend: 0x0, symName: __ZNSt3__14prevB7v160006INS_16reverse_iteratorIP15ScheduledModuleEEEENS_9enable_ifIXsr25__is_cpp17_input_iteratorIT_EE5valueES6_E4typeES6_NS_15iterator_traitsIS6_E15difference_typeE, symObjAddr: 0x80C4, symBinAddr: 0x100011FA0, symSize: 0x60 }
  - { offsetInCU: 0x137FA, offset: 0x3452E, size: 0x8, addend: 0x0, symName: __ZNSt3__19__advanceB7v160006INS_16reverse_iteratorIP15ScheduledModuleEEEEvRT_NS_15iterator_traitsIS5_E15difference_typeENS_26random_access_iterator_tagE, symObjAddr: 0x8174, symBinAddr: 0x100012050, symSize: 0x2C }
  - { offsetInCU: 0x13844, offset: 0x34578, size: 0x8, addend: 0x0, symName: __ZNSt3__18distanceB7v160006IP15ScheduledModuleEENS_15iterator_traitsIT_E15difference_typeES4_S4_, symObjAddr: 0x866C, symBinAddr: 0x1000124A0, symSize: 0x2C }
  - { offsetInCU: 0x13887, offset: 0x345BB, size: 0x8, addend: 0x0, symName: __ZNSt3__14copyB7v160006IP15ScheduledModuleS2_EET0_T_S4_S3_, symObjAddr: 0x86E8, symBinAddr: 0x10001251C, symSize: 0x40 }
  - { offsetInCU: 0x138E1, offset: 0x34615, size: 0x8, addend: 0x0, symName: __ZNSt3__110__distanceB7v160006IP15ScheduledModuleEENS_15iterator_traitsIT_E15difference_typeES4_S4_NS_26random_access_iterator_tagE, symObjAddr: 0x8814, symBinAddr: 0x100012648, symSize: 0x28 }
  - { offsetInCU: 0x1392F, offset: 0x34663, size: 0x8, addend: 0x0, symName: __ZNSt3__121__convert_to_integralB7v160006Em, symObjAddr: 0x883C, symBinAddr: 0x100012670, symSize: 0x14 }
  - { offsetInCU: 0x1395B, offset: 0x3468F, size: 0x8, addend: 0x0, symName: __ZNSt3__16__copyB7v160006INS_17_ClassicAlgPolicyEP15ScheduledModuleS3_S3_EENS_4pairIT0_T2_EES5_T1_S6_, symObjAddr: 0x8850, symBinAddr: 0x100012684, symSize: 0x44 }
  - { offsetInCU: 0x139C7, offset: 0x346FB, size: 0x8, addend: 0x0, symName: __ZNSt3__123__dispatch_copy_or_moveB7v160006INS_17_ClassicAlgPolicyENS_11__copy_loopIS1_EENS_14__copy_trivialEP15ScheduledModuleS6_S6_EENS_4pairIT2_T4_EES8_T3_S9_, symObjAddr: 0x8894, symBinAddr: 0x1000126C8, symSize: 0x44 }
  - { offsetInCU: 0x13A45, offset: 0x34779, size: 0x8, addend: 0x0, symName: __ZNSt3__121__unwrap_and_dispatchB7v160006INS_10__overloadINS_11__copy_loopINS_17_ClassicAlgPolicyEEENS_14__copy_trivialEEEP15ScheduledModuleS8_S8_Li0EEENS_4pairIT0_T2_EESA_T1_SB_, symObjAddr: 0x88D8, symBinAddr: 0x10001270C, symSize: 0xB4 }
  - { offsetInCU: 0x13AD5, offset: 0x34809, size: 0x8, addend: 0x0, symName: __ZNSt3__114__unwrap_rangeB7v160006IP15ScheduledModuleS2_EEDaT_T0_, symObjAddr: 0x898C, symBinAddr: 0x1000127C0, symSize: 0x3C }
  - { offsetInCU: 0x13C50, offset: 0x34984, size: 0x8, addend: 0x0, symName: __ZNSt3__113__unwrap_iterB7v160006IP15ScheduledModuleNS_18__unwrap_iter_implIS2_Lb1EEELi0EEEDTclsrT0_8__unwrapclsr3stdE7declvalIT_EEEES6_, symObjAddr: 0x8A50, symBinAddr: 0x100012884, symSize: 0x24 }
  - { offsetInCU: 0x13C94, offset: 0x349C8, size: 0x8, addend: 0x0, symName: __ZNSt3__19make_pairB7v160006IP15ScheduledModuleS2_EENS_4pairINS_18__unwrap_ref_decayIT_E4typeENS4_IT0_E4typeEEEOS5_OS8_, symObjAddr: 0x8A74, symBinAddr: 0x1000128A8, symSize: 0x38 }
  - { offsetInCU: 0x13CE3, offset: 0x34A17, size: 0x8, addend: 0x0, symName: __ZNSt3__114__rewrap_rangeB7v160006IP15ScheduledModuleS2_S2_EET0_S3_T1_, symObjAddr: 0x8AAC, symBinAddr: 0x1000128E0, symSize: 0x2C }
  - { offsetInCU: 0x13D38, offset: 0x34A6C, size: 0x8, addend: 0x0, symName: __ZNSt3__113__rewrap_iterB7v160006IP15ScheduledModuleS2_NS_18__unwrap_iter_implIS2_Lb1EEEEET_S5_T0_, symObjAddr: 0x8AD8, symBinAddr: 0x10001290C, symSize: 0x3C }
  - { offsetInCU: 0x13E30, offset: 0x34B64, size: 0x8, addend: 0x0, symName: __ZNSt3__1eqB7v160006IPK15ScheduledModuleEEbRKNS_11__wrap_iterIT_EES8_, symObjAddr: 0x9020, symBinAddr: 0x100012E54, symSize: 0x48 }
  - { offsetInCU: 0x13E73, offset: 0x34BA7, size: 0x8, addend: 0x0, symName: __ZNSt3__15equalB7v160006INS_11__wrap_iterIPK15ScheduledModuleEES5_EEbT_S6_T0_, symObjAddr: 0x94F4, symBinAddr: 0x1000131F8, symSize: 0x50 }
  - { offsetInCU: 0x13ECD, offset: 0x34C01, size: 0x8, addend: 0x0, symName: __ZNSt3__15equalB7v160006INS_11__wrap_iterIPK15ScheduledModuleEES5_NS_10__equal_toEEEbT_S7_T0_T1_, symObjAddr: 0x9544, symBinAddr: 0x100013248, symSize: 0xB0 }
  - { offsetInCU: 0x13F79, offset: 0x34CAD, size: 0x8, addend: 0x0, symName: __ZNSt3__1eqB7v160006IP26LecturerTimeSlotPreferenceEEbRKNS_11__wrap_iterIT_EES7_, symObjAddr: 0x97B0, symBinAddr: 0x1000133C0, symSize: 0x48 }
  - { offsetInCU: 0x13FBC, offset: 0x34CF0, size: 0x8, addend: 0x0, symName: __ZNSt3__112__to_addressB7v160006IiEEPT_S2_, symObjAddr: 0xA038, symBinAddr: 0x100013710, symSize: 0x14 }
  - { offsetInCU: 0x14018, offset: 0x34D4C, size: 0x8, addend: 0x0, symName: __ZNSt3__112construct_atB7v160006IiJRKiEPiEEPT_S5_DpOT0_, symObjAddr: 0xA0BC, symBinAddr: 0x100013794, symSize: 0x2C }
  - { offsetInCU: 0x1408A, offset: 0x34DBE, size: 0x8, addend: 0x0, symName: __ZNSt3__119__allocate_at_leastB7v160006INS_9allocatorIiEEEENS_19__allocation_resultINS_16allocator_traitsIT_E7pointerEEERS5_m, symObjAddr: 0xA630, symBinAddr: 0x100013D08, symSize: 0x40 }
  - { offsetInCU: 0x140CD, offset: 0x34E01, size: 0x8, addend: 0x0, symName: __ZNSt3__142__uninitialized_allocator_move_if_noexceptB7v160006INS_9allocatorIiEENS_16reverse_iteratorIPiEES5_ivEET1_RT_T0_S9_S6_, symObjAddr: 0xA8B8, symBinAddr: 0x100013F90, symSize: 0x78 }
  - { offsetInCU: 0x1414B, offset: 0x34E7F, size: 0x8, addend: 0x0, symName: __ZNSt3__14swapB7v160006IPiEENS_9enable_ifIXaasr21is_move_constructibleIT_EE5valuesr18is_move_assignableIS3_EE5valueEvE4typeERS3_S6_, symObjAddr: 0xA97C, symBinAddr: 0x100014054, symSize: 0x3C }
  - { offsetInCU: 0x1419D, offset: 0x34ED1, size: 0x8, addend: 0x0, symName: __ZNSt3__125__debug_db_invalidate_allB7v160006INS_6vectorIiNS_9allocatorIiEEEEEEvPT_, symObjAddr: 0xAA64, symBinAddr: 0x10001413C, symSize: 0x10 }
  - { offsetInCU: 0x141CE, offset: 0x34F02, size: 0x8, addend: 0x0, symName: __ZNSt3__14moveB7v160006INS_16reverse_iteratorIPiEES3_EET0_T_S5_S4_, symObjAddr: 0xAABC, symBinAddr: 0x100014194, symSize: 0x78 }
  - { offsetInCU: 0x14228, offset: 0x34F5C, size: 0x8, addend: 0x0, symName: __ZNSt3__16__moveB7v160006INS_17_ClassicAlgPolicyENS_16reverse_iteratorIPiEES4_S4_EENS_4pairIT0_T2_EES6_T1_S7_, symObjAddr: 0xAB34, symBinAddr: 0x10001420C, symSize: 0x64 }
  - { offsetInCU: 0x14294, offset: 0x34FC8, size: 0x8, addend: 0x0, symName: __ZNSt3__123__dispatch_copy_or_moveB7v160006INS_17_ClassicAlgPolicyENS_11__move_loopIS1_EENS_14__move_trivialENS_16reverse_iteratorIPiEES7_S7_EENS_4pairIT2_T4_EES9_T3_SA_, symObjAddr: 0xAB98, symBinAddr: 0x100014270, symSize: 0x64 }
  - { offsetInCU: 0x14312, offset: 0x35046, size: 0x8, addend: 0x0, symName: __ZNSt3__121__unwrap_and_dispatchB7v160006INS_10__overloadINS_11__move_loopINS_17_ClassicAlgPolicyEEENS_14__move_trivialEEENS_16reverse_iteratorIPiEES9_S9_Li0EEENS_4pairIT0_T2_EESB_T1_SC_, symObjAddr: 0xABFC, symBinAddr: 0x1000142D4, symSize: 0x12C }
  - { offsetInCU: 0x143A4, offset: 0x350D8, size: 0x8, addend: 0x0, symName: __ZNSt3__114__unwrap_rangeB7v160006INS_16reverse_iteratorIPiEES3_EEDaT_T0_, symObjAddr: 0xAD28, symBinAddr: 0x100014400, symSize: 0x4C }
  - { offsetInCU: 0x14516, offset: 0x3524A, size: 0x8, addend: 0x0, symName: __ZNSt3__113__unwrap_iterB7v160006INS_16reverse_iteratorIPiEENS_18__unwrap_iter_implIS3_Lb0EEELi0EEEDTclsrT0_8__unwrapclsr3stdE7declvalIT_EEEES7_, symObjAddr: 0xAE14, symBinAddr: 0x1000144EC, symSize: 0x44 }
  - { offsetInCU: 0x1455A, offset: 0x3528E, size: 0x8, addend: 0x0, symName: __ZNSt3__19make_pairB7v160006INS_16reverse_iteratorIPiEES3_EENS_4pairINS_18__unwrap_ref_decayIT_E4typeENS5_IT0_E4typeEEEOS6_OS9_, symObjAddr: 0xAE58, symBinAddr: 0x100014530, symSize: 0x38 }
  - { offsetInCU: 0x145A9, offset: 0x352DD, size: 0x8, addend: 0x0, symName: __ZNSt3__114__rewrap_rangeB7v160006INS_16reverse_iteratorIPiEES3_S3_EET0_S4_T1_, symObjAddr: 0xAE90, symBinAddr: 0x100014568, symSize: 0x5C }
  - { offsetInCU: 0x145FE, offset: 0x35332, size: 0x8, addend: 0x0, symName: __ZNSt3__113__rewrap_iterB7v160006INS_16reverse_iteratorIPiEES3_NS_18__unwrap_iter_implIS3_Lb0EEEEET_S6_T0_, symObjAddr: 0xAEEC, symBinAddr: 0x1000145C4, symSize: 0x74 }
  - { offsetInCU: 0x146A3, offset: 0x353D7, size: 0x8, addend: 0x0, symName: __ZNSt3__1neB7v160006IPiS1_EEbRKNS_16reverse_iteratorIT_EERKNS2_IT0_EE, symObjAddr: 0xB054, symBinAddr: 0x10001472C, symSize: 0x48 }
  - { offsetInCU: 0x147A1, offset: 0x354D5, size: 0x8, addend: 0x0, symName: __ZNSt3__110destroy_atB7v160006IiLi0EEEvPT_, symObjAddr: 0xB3E0, symBinAddr: 0x100014AB8, symSize: 0x24 }
  - { offsetInCU: 0x147D8, offset: 0x3550C, size: 0x8, addend: 0x0, symName: __ZNSt3__112__destroy_atB7v160006IiLi0EEEvPT_, symObjAddr: 0xB404, symBinAddr: 0x100014ADC, symSize: 0x10 }
  - { offsetInCU: 0x1480F, offset: 0x35543, size: 0x8, addend: 0x0, symName: __ZNSt3__122__make_exception_guardB7v160006INS_6vectorIiNS_9allocatorIiEEE16__destroy_vectorEEENS_28__exception_guard_exceptionsIT_EES7_, symObjAddr: 0xB600, symBinAddr: 0x100014CD8, symSize: 0x40 }
  - { offsetInCU: 0x14844, offset: 0x35578, size: 0x8, addend: 0x0, symName: __ZNSt3__119__debug_db_insert_cB7v160006INS_6vectorIiNS_9allocatorIiEEEEEEvPT_, symObjAddr: 0xB674, symBinAddr: 0x100014D4C, symSize: 0x10 }
  - { offsetInCU: 0x14875, offset: 0x355A9, size: 0x8, addend: 0x0, symName: __ZNSt3__130__uninitialized_allocator_copyB7v160006INS_9allocatorIiEEPiS3_S3_EET2_RT_T0_T1_S4_, symObjAddr: 0xB8D8, symBinAddr: 0x100014FB0, symSize: 0xF4 }
  - { offsetInCU: 0x14913, offset: 0x35647, size: 0x8, addend: 0x0, symName: __ZNSt3__122__make_exception_guardB7v160006INS_29_AllocatorDestroyRangeReverseINS_9allocatorIiEEPiEEEENS_28__exception_guard_exceptionsIT_EES7_, symObjAddr: 0xB9CC, symBinAddr: 0x1000150A4, symSize: 0x4C }
  - { offsetInCU: 0x14949, offset: 0x3567D, size: 0x8, addend: 0x0, symName: __ZNSt3__112construct_atB7v160006IiJRiEPiEEPT_S4_DpOT0_, symObjAddr: 0xBB70, symBinAddr: 0x100015248, symSize: 0x2C }
  - { offsetInCU: 0x149BB, offset: 0x356EF, size: 0x8, addend: 0x0, symName: __ZNSt3__119__allocator_destroyB7v160006INS_9allocatorIiEENS_16reverse_iteratorIPiEES5_EEvRT_T0_T1_, symObjAddr: 0xBC54, symBinAddr: 0x10001532C, symSize: 0x70 }
  - { offsetInCU: 0x14A1E, offset: 0x35752, size: 0x8, addend: 0x0, symName: __ZNSt3__112__to_addressB7v160006INS_16reverse_iteratorIPiEEvEENS_5decayIDTclsr19__to_address_helperIT_EE6__callclsr3stdE7declvalIRKS5_EEEEE4typeES7_, symObjAddr: 0xBCC4, symBinAddr: 0x10001539C, symSize: 0x24 }
  - { offsetInCU: 0x14A7D, offset: 0x357B1, size: 0x8, addend: 0x0, symName: __ZNSt3__14prevB7v160006IPiEENS_9enable_ifIXsr25__is_cpp17_input_iteratorIT_EE5valueES3_E4typeES3_NS_15iterator_traitsIS3_E15difference_typeE, symObjAddr: 0xBD4C, symBinAddr: 0x100015424, symSize: 0x50 }
  - { offsetInCU: 0x14AC0, offset: 0x357F4, size: 0x8, addend: 0x0, symName: __ZNSt3__19__advanceB7v160006IPiEEvRT_NS_15iterator_traitsIS2_E15difference_typeENS_26random_access_iterator_tagE, symObjAddr: 0xBDEC, symBinAddr: 0x1000154C4, symSize: 0x28 }
  - { offsetInCU: 0x14B0A, offset: 0x3583E, size: 0x8, addend: 0x0, symName: __ZNSt3__118__debug_db_erase_cB7v160006INS_6vectorIiNS_9allocatorIiEEEEEEvPT_, symObjAddr: 0xBF00, symBinAddr: 0x1000155D8, symSize: 0x10 }
  - { offsetInCU: 0x14B3B, offset: 0x3586F, size: 0x8, addend: 0x0, symName: __ZNSt3__14sortB7v160006INS_11__wrap_iterIPiEENS_6__lessIiiEEEEvT_S6_T0_, symObjAddr: 0xBFC4, symBinAddr: 0x10001569C, symSize: 0x40 }
  - { offsetInCU: 0x14B95, offset: 0x358C9, size: 0x8, addend: 0x0, symName: __ZNSt3__111__sort_implB7v160006INS_17_ClassicAlgPolicyENS_11__wrap_iterIPiEENS_6__lessIiiEEEEvT0_S7_RT1_, symObjAddr: 0xC004, symBinAddr: 0x1000156DC, symSize: 0x84 }
  - { offsetInCU: 0x14C3C, offset: 0x35970, size: 0x8, addend: 0x0, symName: __ZNSt3__123__debug_randomize_rangeB7v160006INS_17_ClassicAlgPolicyENS_11__wrap_iterIPiEES4_EEvT0_T1_, symObjAddr: 0xC088, symBinAddr: 0x100015760, symSize: 0x14 }
  - { offsetInCU: 0x14C8D, offset: 0x359C1, size: 0x8, addend: 0x0, symName: __ZNSt3__113__unwrap_iterB7v160006INS_11__wrap_iterIPiEENS_18__unwrap_iter_implIS3_Lb1EEELi0EEEDTclsrT0_8__unwrapclsr3stdE7declvalIT_EEEES7_, symObjAddr: 0xC09C, symBinAddr: 0x100015774, symSize: 0x2C }
  - { offsetInCU: 0x14D24, offset: 0x35A58, size: 0x8, addend: 0x0, symName: __ZNSt3__112__to_addressB7v160006INS_11__wrap_iterIPiEEvEENS_5decayIDTclsr19__to_address_helperIT_EE6__callclsr3stdE7declvalIRKS5_EEEEE4typeES7_, symObjAddr: 0xC0F0, symBinAddr: 0x1000157C8, symSize: 0x24 }
  - { offsetInCU: 0x14DC5, offset: 0x35AF9, size: 0x8, addend: 0x0, symName: __ZNSt3__112construct_atB7v160006IiJiEPiEEPT_S3_DpOT0_, symObjAddr: 0xC470, symBinAddr: 0x100015B04, symSize: 0x2C }
  - { offsetInCU: 0x14E37, offset: 0x35B6B, size: 0x8, addend: 0x0, symName: __ZNSt3__1eqB7v160006IPKiEEbRKNS_11__wrap_iterIT_EES7_, symObjAddr: 0xC6E0, symBinAddr: 0x100015BC4, symSize: 0x48 }
  - { offsetInCU: 0x14EAD, offset: 0x35BE1, size: 0x8, addend: 0x0, symName: __ZNSt3__110destroy_atB7v160006INS_4pairIKNS_12basic_stringIcNS_11char_traitsIcEENS_9allocatorIcEEEENS_3mapIiNS1_IS7_S7_EENS_4lessIiEENS5_INS1_IKiSA_EEEEEEEELi0EEEvPT_, symObjAddr: 0xD0EC, symBinAddr: 0x10001642C, symSize: 0x24 }
  - { offsetInCU: 0x14EE4, offset: 0x35C18, size: 0x8, addend: 0x0, symName: __ZNSt3__112__destroy_atB7v160006INS_4pairIKNS_12basic_stringIcNS_11char_traitsIcEENS_9allocatorIcEEEENS_3mapIiNS1_IS7_S7_EENS_4lessIiEENS5_INS1_IKiSA_EEEEEEEELi0EEEvPT_, symObjAddr: 0xD110, symBinAddr: 0x100016450, symSize: 0x24 }
  - { offsetInCU: 0x14F1B, offset: 0x35C4F, size: 0x8, addend: 0x0, symName: __ZNSt3__110destroy_atB7v160006INS_4pairIKiNS1_INS_12basic_stringIcNS_11char_traitsIcEENS_9allocatorIcEEEES8_EEEELi0EEEvPT_, symObjAddr: 0xD408, symBinAddr: 0x100016748, symSize: 0x24 }
  - { offsetInCU: 0x14F52, offset: 0x35C86, size: 0x8, addend: 0x0, symName: __ZNSt3__112__destroy_atB7v160006INS_4pairIKiNS1_INS_12basic_stringIcNS_11char_traitsIcEENS_9allocatorIcEEEES8_EEEELi0EEEvPT_, symObjAddr: 0xD42C, symBinAddr: 0x10001676C, symSize: 0x24 }
  - { offsetInCU: 0x14F89, offset: 0x35CBD, size: 0x8, addend: 0x0, symName: __ZNSt3__17launderB7v160006INS_4pairIKiNS1_INS_12basic_stringIcNS_11char_traitsIcEENS_9allocatorIcEEEES8_EEEEEEPT_SC_, symObjAddr: 0xD4D0, symBinAddr: 0x100016810, symSize: 0x24 }
  - { offsetInCU: 0x14FC0, offset: 0x35CF4, size: 0x8, addend: 0x0, symName: __ZNSt3__19__launderB7v160006INS_4pairIKiNS1_INS_12basic_stringIcNS_11char_traitsIcEENS_9allocatorIcEEEES8_EEEEEEPT_SC_, symObjAddr: 0xD4F4, symBinAddr: 0x100016834, symSize: 0x14 }
  - { offsetInCU: 0x14FF7, offset: 0x35D2B, size: 0x8, addend: 0x0, symName: __ZNSt3__17launderB7v160006INS_4pairIKNS_12basic_stringIcNS_11char_traitsIcEENS_9allocatorIcEEEENS_3mapIiNS1_IS7_S7_EENS_4lessIiEENS5_INS1_IKiSA_EEEEEEEEEEPT_SJ_, symObjAddr: 0xD5D4, symBinAddr: 0x100016914, symSize: 0x24 }
  - { offsetInCU: 0x1502E, offset: 0x35D62, size: 0x8, addend: 0x0, symName: __ZNSt3__19__launderB7v160006INS_4pairIKNS_12basic_stringIcNS_11char_traitsIcEENS_9allocatorIcEEEENS_3mapIiNS1_IS7_S7_EENS_4lessIiEENS5_INS1_IKiSA_EEEEEEEEEEPT_SJ_, symObjAddr: 0xD5F8, symBinAddr: 0x100016938, symSize: 0x14 }
  - { offsetInCU: 0x1509C, offset: 0x35DD0, size: 0x8, addend: 0x0, symName: __ZNSt3__116forward_as_tupleB7v160006IJRKNS_12basic_stringIcNS_11char_traitsIcEENS_9allocatorIcEEEEEEENS_5tupleIJDpOT_EEESC_, symObjAddr: 0xD7A0, symBinAddr: 0x100016AE0, symSize: 0x2C }
  - { offsetInCU: 0x150D5, offset: 0x35E09, size: 0x8, addend: 0x0, symName: __ZNSt3__116forward_as_tupleB7v160006IJEEENS_5tupleIJDpOT_EEES4_, symObjAddr: 0xD7CC, symBinAddr: 0x100016B0C, symSize: 0x4 }
  - { offsetInCU: 0x150F9, offset: 0x35E2D, size: 0x8, addend: 0x0, symName: __ZNSt3__1ltB7v160006ENS_15strong_orderingENS_20_CmpUnspecifiedParamE, symObjAddr: 0xDE04, symBinAddr: 0x100017144, symSize: 0x24 }
  - { offsetInCU: 0x15133, offset: 0x35E67, size: 0x8, addend: 0x0, symName: __ZNSt3__1ssB7v160006IcNS_11char_traitsIcEENS_9allocatorIcEEEEDaRKNS_12basic_stringIT_T0_T1_EESC_, symObjAddr: 0xDE28, symBinAddr: 0x100017168, symSize: 0x5C }
  - { offsetInCU: 0x151A7, offset: 0x35EDB, size: 0x8, addend: 0x0, symName: __ZNSt3__1ssB7v160006IcNS_11char_traitsIcEEEEDaNS_17basic_string_viewIT_T0_EES7_, symObjAddr: 0xDEB8, symBinAddr: 0x1000171F8, symSize: 0x7C }
  - { offsetInCU: 0x151F6, offset: 0x35F2A, size: 0x8, addend: 0x0, symName: __ZNSt3__17launderB7v160006IKNS_4pairIKNS_12basic_stringIcNS_11char_traitsIcEENS_9allocatorIcEEEENS_3mapIiNS1_IS7_S7_EENS_4lessIiEENS5_INS1_IKiSA_EEEEEEEEEEPT_SK_, symObjAddr: 0xE234, symBinAddr: 0x1000172DC, symSize: 0x24 }
  - { offsetInCU: 0x1522D, offset: 0x35F61, size: 0x8, addend: 0x0, symName: __ZNSt3__19__launderB7v160006IKNS_4pairIKNS_12basic_stringIcNS_11char_traitsIcEENS_9allocatorIcEEEENS_3mapIiNS1_IS7_S7_EENS_4lessIiEENS5_INS1_IKiSA_EEEEEEEEEEPT_SK_, symObjAddr: 0xE258, symBinAddr: 0x100017300, symSize: 0x14 }
  - { offsetInCU: 0x152A9, offset: 0x35FDD, size: 0x8, addend: 0x0, symName: __ZNSt3__112construct_atB7v160006INS_4pairIKNS_12basic_stringIcNS_11char_traitsIcEENS_9allocatorIcEEEENS_3mapIiNS1_IS7_S7_EENS_4lessIiEENS5_INS1_IKiSA_EEEEEEEEJRKNS_21piecewise_construct_tENS_5tupleIJRS8_EEENSL_IJEEEEPSH_EEPT_SR_DpOT0_, symObjAddr: 0xE578, symBinAddr: 0x100017620, symSize: 0x50 }
  - { offsetInCU: 0x1534D, offset: 0x36081, size: 0x8, addend: 0x0, symName: __ZNSt3__13getB7v160006ILm0EJRKNS_12basic_stringIcNS_11char_traitsIcEENS_9allocatorIcEEEEEEERNS_13tuple_elementIXT_ENS_5tupleIJDpT0_EEEE4typeERSD_, symObjAddr: 0xE690, symBinAddr: 0x100017738, symSize: 0x24 }
  - { offsetInCU: 0x15390, offset: 0x360C4, size: 0x8, addend: 0x0, symName: __ZNSt3__127__tree_balance_after_insertB7v160006IPNS_16__tree_node_baseIPvEEEEvT_S5_, symObjAddr: 0xEA64, symBinAddr: 0x100017B0C, symSize: 0x32C }
  - { offsetInCU: 0x1540C, offset: 0x36140, size: 0x8, addend: 0x0, symName: __ZNSt3__120__tree_is_left_childB7v160006IPNS_16__tree_node_baseIPvEEEEbT_, symObjAddr: 0xEDD0, symBinAddr: 0x100017E78, symSize: 0x2C }
  - { offsetInCU: 0x15441, offset: 0x36175, size: 0x8, addend: 0x0, symName: __ZNSt3__118__tree_left_rotateB7v160006IPNS_16__tree_node_baseIPvEEEEvT_, symObjAddr: 0xEDFC, symBinAddr: 0x100017EA4, symSize: 0xD8 }
  - { offsetInCU: 0x15483, offset: 0x361B7, size: 0x8, addend: 0x0, symName: __ZNSt3__119__tree_right_rotateB7v160006IPNS_16__tree_node_baseIPvEEEEvT_, symObjAddr: 0xEED4, symBinAddr: 0x100017F7C, symSize: 0xCC }
  - { offsetInCU: 0x1551C, offset: 0x36250, size: 0x8, addend: 0x0, symName: __ZNSt3__116forward_as_tupleB7v160006IJRKiEEENS_5tupleIJDpOT_EEES6_, symObjAddr: 0xF3E4, symBinAddr: 0x10001848C, symSize: 0x2C }
  - { offsetInCU: 0x15555, offset: 0x36289, size: 0x8, addend: 0x0, symName: __ZNSt3__17launderB7v160006IKNS_4pairIKiNS1_INS_12basic_stringIcNS_11char_traitsIcEENS_9allocatorIcEEEES8_EEEEEEPT_SD_, symObjAddr: 0xFA28, symBinAddr: 0x100018AD0, symSize: 0x24 }
  - { offsetInCU: 0x1558C, offset: 0x362C0, size: 0x8, addend: 0x0, symName: __ZNSt3__19__launderB7v160006IKNS_4pairIKiNS1_INS_12basic_stringIcNS_11char_traitsIcEENS_9allocatorIcEEEES8_EEEEEEPT_SD_, symObjAddr: 0xFA4C, symBinAddr: 0x100018AF4, symSize: 0x14 }
  - { offsetInCU: 0x15608, offset: 0x3633C, size: 0x8, addend: 0x0, symName: __ZNSt3__112construct_atB7v160006INS_4pairIKiNS1_INS_12basic_stringIcNS_11char_traitsIcEENS_9allocatorIcEEEES8_EEEEJRKNS_21piecewise_construct_tENS_5tupleIJRS2_EEENSE_IJEEEEPSA_EEPT_SK_DpOT0_, symObjAddr: 0xFD6C, symBinAddr: 0x100018E14, symSize: 0x50 }
  - { offsetInCU: 0x156A0, offset: 0x363D4, size: 0x8, addend: 0x0, symName: __ZNSt3__13getB7v160006ILm0EJRKiEEERNS_13tuple_elementIXT_ENS_5tupleIJDpT0_EEEE4typeERS7_, symObjAddr: 0xFE88, symBinAddr: 0x100018F30, symSize: 0x24 }
  - { offsetInCU: 0x1572B, offset: 0x3645F, size: 0x8, addend: 0x0, symName: __ZNSt3__1neB7v160006ERKNS_15__tree_iteratorINS_12__value_typeINS_12basic_stringIcNS_11char_traitsIcEENS_9allocatorIcEEEENS_3mapIiNS_4pairIS7_S7_EENS_4lessIiEENS5_INS9_IKiSA_EEEEEEEEPNS_11__tree_nodeISH_PvEElEESO_, symObjAddr: 0x1045C, symBinAddr: 0x10001948C, symSize: 0x34 }
  - { offsetInCU: 0x15768, offset: 0x3649C, size: 0x8, addend: 0x0, symName: __ZNSt3__1eqB7v160006ERKNS_15__tree_iteratorINS_12__value_typeINS_12basic_stringIcNS_11char_traitsIcEENS_9allocatorIcEEEENS_3mapIiNS_4pairIS7_S7_EENS_4lessIiEENS5_INS9_IKiSA_EEEEEEEEPNS_11__tree_nodeISH_PvEElEESO_, symObjAddr: 0x10490, symBinAddr: 0x1000194C0, symSize: 0x30 }
  - { offsetInCU: 0x157A5, offset: 0x364D9, size: 0x8, addend: 0x0, symName: __ZNSt3__116__tree_next_iterB7v160006IPNS_15__tree_end_nodeIPNS_16__tree_node_baseIPvEEEES5_EET_T0_, symObjAddr: 0x104F8, symBinAddr: 0x100019528, symSize: 0x80 }
  - { offsetInCU: 0x157E3, offset: 0x36517, size: 0x8, addend: 0x0, symName: __ZNSt3__110__tree_minB7v160006IPNS_16__tree_node_baseIPvEEEET_S5_, symObjAddr: 0x10578, symBinAddr: 0x1000195A8, symSize: 0x40 }
  - { offsetInCU: 0x15818, offset: 0x3654C, size: 0x8, addend: 0x0, symName: __ZNSt3__1neB7v160006ERKNS_21__tree_const_iteratorINS_12__value_typeIiNS_4pairINS_12basic_stringIcNS_11char_traitsIcEENS_9allocatorIcEEEES8_EEEEPNS_11__tree_nodeISA_PvEElEESH_, symObjAddr: 0x10FA0, symBinAddr: 0x10001970C, symSize: 0x34 }
  - { offsetInCU: 0x15855, offset: 0x36589, size: 0x8, addend: 0x0, symName: __ZNSt3__1eqB7v160006ERKNS_21__tree_const_iteratorINS_12__value_typeIiNS_4pairINS_12basic_stringIcNS_11char_traitsIcEENS_9allocatorIcEEEES8_EEEEPNS_11__tree_nodeISA_PvEElEESH_, symObjAddr: 0x10FD4, symBinAddr: 0x100019740, symSize: 0x30 }
  - { offsetInCU: 0x158C5, offset: 0x365F9, size: 0x8, addend: 0x0, symName: __ZNSt3__110destroy_atB7v160006INS_4pairIKNS1_IiiEEiEELi0EEEvPT_, symObjAddr: 0x115D0, symBinAddr: 0x100019D3C, symSize: 0x24 }
  - { offsetInCU: 0x158FC, offset: 0x36630, size: 0x8, addend: 0x0, symName: __ZNSt3__112__destroy_atB7v160006INS_4pairIKNS1_IiiEEiEELi0EEEvPT_, symObjAddr: 0x115F4, symBinAddr: 0x100019D60, symSize: 0x10 }
  - { offsetInCU: 0x15933, offset: 0x36667, size: 0x8, addend: 0x0, symName: __ZNSt3__17launderB7v160006INS_4pairIKNS1_IiiEEiEEEEPT_S6_, symObjAddr: 0x11628, symBinAddr: 0x100019D94, symSize: 0x24 }
  - { offsetInCU: 0x1596A, offset: 0x3669E, size: 0x8, addend: 0x0, symName: __ZNSt3__19__launderB7v160006INS_4pairIKNS1_IiiEEiEEEEPT_S6_, symObjAddr: 0x1164C, symBinAddr: 0x100019DB8, symSize: 0x14 }
  - { offsetInCU: 0x159A1, offset: 0x366D5, size: 0x8, addend: 0x0, symName: __ZNSt3__116forward_as_tupleB7v160006IJRKNS_4pairIiiEEEEENS_5tupleIJDpOT_EEES8_, symObjAddr: 0x117F4, symBinAddr: 0x100019F60, symSize: 0x2C }
  - { offsetInCU: 0x159DA, offset: 0x3670E, size: 0x8, addend: 0x0, symName: __ZNSt3__1ssB7v160006IiiEENS_26common_comparison_categoryIJDTclL_ZNS_17__synth_three_wayB7v160006EEclsr3stdE7declvalIRT_EEclsr3stdE7declvalIS3_EEEEDTclL_ZNS_17__synth_three_wayB7v160006EEclsr3stdE7declvalIRT0_EEclsr3stdE7declvalIS6_EEEEEE4typeERKNS_4pairIS2_S5_EESD_, symObjAddr: 0x11E54, symBinAddr: 0x10001A5C0, symSize: 0x8C }
  - { offsetInCU: 0x15A46, offset: 0x3677A, size: 0x8, addend: 0x0, symName: __ZNSt3__1eqB7v160006ENS_15strong_orderingENS_20_CmpUnspecifiedParamE, symObjAddr: 0x11F40, symBinAddr: 0x10001A6AC, symSize: 0x24 }
  - { offsetInCU: 0x15A7D, offset: 0x367B1, size: 0x8, addend: 0x0, symName: __ZNSt3__17launderB7v160006IKNS_4pairIKNS1_IiiEEiEEEEPT_S7_, symObjAddr: 0x11F64, symBinAddr: 0x10001A6D0, symSize: 0x24 }
  - { offsetInCU: 0x15AB4, offset: 0x367E8, size: 0x8, addend: 0x0, symName: __ZNSt3__19__launderB7v160006IKNS_4pairIKNS1_IiiEEiEEEEPT_S7_, symObjAddr: 0x11F88, symBinAddr: 0x10001A6F4, symSize: 0x14 }
  - { offsetInCU: 0x15B30, offset: 0x36864, size: 0x8, addend: 0x0, symName: __ZNSt3__112construct_atB7v160006INS_4pairIKNS1_IiiEEiEEJRKNS_21piecewise_construct_tENS_5tupleIJRS3_EEENS8_IJEEEEPS4_EEPT_SE_DpOT0_, symObjAddr: 0x122A8, symBinAddr: 0x10001AA14, symSize: 0x50 }
  - { offsetInCU: 0x15BC8, offset: 0x368FC, size: 0x8, addend: 0x0, symName: __ZNSt3__13getB7v160006ILm0EJRKNS_4pairIiiEEEEERNS_13tuple_elementIXT_ENS_5tupleIJDpT0_EEEE4typeERS9_, symObjAddr: 0x123C0, symBinAddr: 0x10001AB2C, symSize: 0x24 }
  - { offsetInCU: 0x15C53, offset: 0x36987, size: 0x8, addend: 0x0, symName: __ZNSt3__1neB7v160006ERKNS_15__tree_iteratorINS_12__value_typeINS_4pairIiiEEiEEPNS_11__tree_nodeIS4_PvEElEESB_, symObjAddr: 0x128B8, symBinAddr: 0x10001B024, symSize: 0x34 }
  - { offsetInCU: 0x15C90, offset: 0x369C4, size: 0x8, addend: 0x0, symName: __ZNSt3__1eqB7v160006ERKNS_15__tree_iteratorINS_12__value_typeINS_4pairIiiEEiEEPNS_11__tree_nodeIS4_PvEElEESB_, symObjAddr: 0x128EC, symBinAddr: 0x10001B058, symSize: 0x30 }
  - { offsetInCU: 0x15CCD, offset: 0x36A01, size: 0x8, addend: 0x0, symName: __ZNSt3__110destroy_atB7v160006INS_4pairIKNS1_IiiEENS_6vectorIiNS_9allocatorIiEEEEEELi0EEEvPT_, symObjAddr: 0x12E90, symBinAddr: 0x10001B5FC, symSize: 0x24 }
  - { offsetInCU: 0x15D04, offset: 0x36A38, size: 0x8, addend: 0x0, symName: __ZNSt3__112__destroy_atB7v160006INS_4pairIKNS1_IiiEENS_6vectorIiNS_9allocatorIiEEEEEELi0EEEvPT_, symObjAddr: 0x12EB4, symBinAddr: 0x10001B620, symSize: 0x24 }
  - { offsetInCU: 0x15D3B, offset: 0x36A6F, size: 0x8, addend: 0x0, symName: __ZNSt3__17launderB7v160006INS_4pairIKNS1_IiiEENS_6vectorIiNS_9allocatorIiEEEEEEEEPT_SA_, symObjAddr: 0x12F58, symBinAddr: 0x10001B6C4, symSize: 0x24 }
  - { offsetInCU: 0x15D72, offset: 0x36AA6, size: 0x8, addend: 0x0, symName: __ZNSt3__19__launderB7v160006INS_4pairIKNS1_IiiEENS_6vectorIiNS_9allocatorIiEEEEEEEEPT_SA_, symObjAddr: 0x12F7C, symBinAddr: 0x10001B6E8, symSize: 0x14 }
  - { offsetInCU: 0x15DA9, offset: 0x36ADD, size: 0x8, addend: 0x0, symName: __ZNSt3__116forward_as_tupleB7v160006IJNS_4pairIiiEEEEENS_5tupleIJDpOT_EEES6_, symObjAddr: 0x13120, symBinAddr: 0x10001B88C, symSize: 0x2C }
  - { offsetInCU: 0x15DE2, offset: 0x36B16, size: 0x8, addend: 0x0, symName: __ZNSt3__17launderB7v160006IKNS_4pairIKNS1_IiiEENS_6vectorIiNS_9allocatorIiEEEEEEEEPT_SB_, symObjAddr: 0x13730, symBinAddr: 0x10001BE9C, symSize: 0x24 }
  - { offsetInCU: 0x15E19, offset: 0x36B4D, size: 0x8, addend: 0x0, symName: __ZNSt3__19__launderB7v160006IKNS_4pairIKNS1_IiiEENS_6vectorIiNS_9allocatorIiEEEEEEEEPT_SB_, symObjAddr: 0x13754, symBinAddr: 0x10001BEC0, symSize: 0x14 }
  - { offsetInCU: 0x15E95, offset: 0x36BC9, size: 0x8, addend: 0x0, symName: __ZNSt3__112construct_atB7v160006INS_4pairIKNS1_IiiEENS_6vectorIiNS_9allocatorIiEEEEEEJRKNS_21piecewise_construct_tENS_5tupleIJOS2_EEENSC_IJEEEEPS8_EEPT_SI_DpOT0_, symObjAddr: 0x13A70, symBinAddr: 0x10001C1DC, symSize: 0x50 }
  - { offsetInCU: 0x15F2D, offset: 0x36C61, size: 0x8, addend: 0x0, symName: __ZNSt3__13getB7v160006ILm0EJONS_4pairIiiEEEEERNS_13tuple_elementIXT_ENS_5tupleIJDpT0_EEEE4typeERS8_, symObjAddr: 0x13B8C, symBinAddr: 0x10001C2F8, symSize: 0x24 }
  - { offsetInCU: 0x15FB8, offset: 0x36CEC, size: 0x8, addend: 0x0, symName: __ZNSt3__1neB7v160006ERKNS_15__tree_iteratorINS_12__value_typeINS_4pairIiiEENS_6vectorIiNS_9allocatorIiEEEEEEPNS_11__tree_nodeIS8_PvEElEESF_, symObjAddr: 0x141EC, symBinAddr: 0x10001C958, symSize: 0x34 }
  - { offsetInCU: 0x15FF5, offset: 0x36D29, size: 0x8, addend: 0x0, symName: __ZNSt3__1eqB7v160006ERKNS_15__tree_iteratorINS_12__value_typeINS_4pairIiiEENS_6vectorIiNS_9allocatorIiEEEEEEPNS_11__tree_nodeIS8_PvEElEESF_, symObjAddr: 0x14220, symBinAddr: 0x10001C98C, symSize: 0x30 }
  - { offsetInCU: 0x163AD, offset: 0x370E1, size: 0x8, addend: 0x0, symName: __ZSt28__throw_bad_array_new_lengthB7v160006v, symObjAddr: 0x5CE8, symBinAddr: 0x1000102A4, symSize: 0x34 }
  - { offsetInCU: 0x17104, offset: 0x37E38, size: 0x8, addend: 0x0, symName: __ZNSt3__16vectorI15ScheduledModuleNS_9allocatorIS1_EEE26__swap_out_circular_bufferERNS_14__split_bufferIS1_RS3_EE, symObjAddr: 0x71A0, symBinAddr: 0x100011174, symSize: 0x118 }
  - { offsetInCU: 0x173B3, offset: 0x380E7, size: 0x8, addend: 0x0, symName: __ZNSt3__16vectorIiNS_9allocatorIiEEE26__swap_out_circular_bufferERNS_14__split_bufferIiRS2_EE, symObjAddr: 0xA238, symBinAddr: 0x100013910, symSize: 0x118 }
  - { offsetInCU: 0x1A376, offset: 0x3B0AA, size: 0x8, addend: 0x0, symName: __ZN10ChromosomeC2Ev, symObjAddr: 0x0, symBinAddr: 0x10000AA5C, symSize: 0x2C }
  - { offsetInCU: 0x1A3A2, offset: 0x3B0D6, size: 0x8, addend: 0x0, symName: __ZNSt3__16vectorI15ScheduledModuleNS_9allocatorIS1_EEEC1B7v160006Ev, symObjAddr: 0x2C, symBinAddr: 0x10000AA88, symSize: 0x2C }
  - { offsetInCU: 0x1A3CC, offset: 0x3B100, size: 0x8, addend: 0x0, symName: __ZN10ChromosomeC1Ev, symObjAddr: 0x58, symBinAddr: 0x10000AAB4, symSize: 0x2C }
  - { offsetInCU: 0x1A3F8, offset: 0x3B12C, size: 0x8, addend: 0x0, symName: __ZN10ChromosomeC2ERKNSt3__16vectorI15ScheduledModuleNS0_9allocatorIS2_EEEE, symObjAddr: 0x84, symBinAddr: 0x10000AAE0, symSize: 0x34 }
  - { offsetInCU: 0x1A432, offset: 0x3B166, size: 0x8, addend: 0x0, symName: __ZNSt3__16vectorI15ScheduledModuleNS_9allocatorIS1_EEEC1ERKS4_, symObjAddr: 0xB8, symBinAddr: 0x10000AB14, symSize: 0x34 }
  - { offsetInCU: 0x1A46D, offset: 0x3B1A1, size: 0x8, addend: 0x0, symName: __ZN10ChromosomeC1ERKNSt3__16vectorI15ScheduledModuleNS0_9allocatorIS2_EEEE, symObjAddr: 0xEC, symBinAddr: 0x10000AB48, symSize: 0x34 }
  - { offsetInCU: 0x1A4A7, offset: 0x3B1DB, size: 0x8, addend: 0x0, symName: __ZN10Chromosome7addGeneERK15ScheduledModule, symObjAddr: 0x120, symBinAddr: 0x10000AB7C, symSize: 0x2C }
  - { offsetInCU: 0x1A4DD, offset: 0x3B211, size: 0x8, addend: 0x0, symName: __ZNSt3__16vectorI15ScheduledModuleNS_9allocatorIS1_EEE9push_backB7v160006ERKS1_, symObjAddr: 0x14C, symBinAddr: 0x10000ABA8, symSize: 0x6C }
  - { offsetInCU: 0x1A514, offset: 0x3B248, size: 0x8, addend: 0x0, symName: __ZNK10Chromosome25findGeneIndexByTimeSlotIDEii, symObjAddr: 0x1B8, symBinAddr: 0x10000AC14, symSize: 0x258 }
  - { offsetInCU: 0x1A56D, offset: 0x3B2A1, size: 0x8, addend: 0x0, symName: __ZNKSt3__16vectorI15ScheduledModuleNS_9allocatorIS1_EEEixB7v160006Em, symObjAddr: 0x438, symBinAddr: 0x10000AE6C, symSize: 0x2C }
  - { offsetInCU: 0x1A5A4, offset: 0x3B2D8, size: 0x8, addend: 0x0, symName: __ZNK10Chromosome8getGenesEv, symObjAddr: 0x4E8, symBinAddr: 0x10000AE98, symSize: 0x38 }
  - { offsetInCU: 0x1A5CC, offset: 0x3B300, size: 0x8, addend: 0x0, symName: __ZN10Chromosome8setGenesERKNSt3__16vectorI15ScheduledModuleNS0_9allocatorIS2_EEEE, symObjAddr: 0x520, symBinAddr: 0x10000AED0, symSize: 0x2C }
  - { offsetInCU: 0x1A602, offset: 0x3B336, size: 0x8, addend: 0x0, symName: __ZNSt3__16vectorI15ScheduledModuleNS_9allocatorIS1_EEEaSB7v160006ERKS4_, symObjAddr: 0x54C, symBinAddr: 0x10000AEFC, symSize: 0x68 }
  - { offsetInCU: 0x1A639, offset: 0x3B36D, size: 0x8, addend: 0x0, symName: __ZNK10Chromosome15printGenesByDayEv, symObjAddr: 0x5B4, symBinAddr: 0x10000AF64, symSize: 0x464 }
  - { offsetInCU: 0x1A7AE, offset: 0x3B4E2, size: 0x8, addend: 0x0, symName: __ZNSt3__13mapINS_12basic_stringIcNS_11char_traitsIcEENS_9allocatorIcEEEENS0_IiNS_4pairIS6_S6_EENS_4lessIiEENS4_INS7_IKiS8_EEEEEENS9_IS6_EENS4_INS7_IKS6_SE_EEEEEC1B7v160006Ev, symObjAddr: 0xA18, symBinAddr: 0x10000B3C8, symSize: 0x2C }
  - { offsetInCU: 0x1A7D8, offset: 0x3B50C, size: 0x8, addend: 0x0, symName: __ZNKSt3__16vectorI15ScheduledModuleNS_9allocatorIS1_EEE5beginB7v160006Ev, symObjAddr: 0xA44, symBinAddr: 0x10000B3F4, symSize: 0x30 }
  - { offsetInCU: 0x1A800, offset: 0x3B534, size: 0x8, addend: 0x0, symName: __ZNKSt3__16vectorI15ScheduledModuleNS_9allocatorIS1_EEE3endB7v160006Ev, symObjAddr: 0xA74, symBinAddr: 0x10000B424, symSize: 0x30 }
  - { offsetInCU: 0x1A828, offset: 0x3B55C, size: 0x8, addend: 0x0, symName: __ZNKSt3__111__wrap_iterIPK15ScheduledModuleEdeB7v160006Ev, symObjAddr: 0xAD8, symBinAddr: 0x10000B488, symSize: 0x18 }
  - { offsetInCU: 0x1A84E, offset: 0x3B582, size: 0x8, addend: 0x0, symName: __ZNSt3__13mapINS_12basic_stringIcNS_11char_traitsIcEENS_9allocatorIcEEEENS0_IiNS_4pairIS6_S6_EENS_4lessIiEENS4_INS7_IKiS8_EEEEEENS9_IS6_EENS4_INS7_IKS6_SE_EEEEEixERSG_, symObjAddr: 0xB5C, symBinAddr: 0x10000B4E0, symSize: 0x80 }
  - { offsetInCU: 0x1A885, offset: 0x3B5B9, size: 0x8, addend: 0x0, symName: __ZNSt3__13mapIiNS_4pairINS_12basic_stringIcNS_11char_traitsIcEENS_9allocatorIcEEEES7_EENS_4lessIiEENS5_INS1_IKiS8_EEEEEixERSB_, symObjAddr: 0xBDC, symBinAddr: 0x10000B560, symSize: 0x80 }
  - { offsetInCU: 0x1A8BC, offset: 0x3B5F0, size: 0x8, addend: 0x0, symName: __ZNSt3__14pairINS_12basic_stringIcNS_11char_traitsIcEENS_9allocatorIcEEEES6_EaSB7v160006EOS7_, symObjAddr: 0xC5C, symBinAddr: 0x10000B5E0, symSize: 0x48 }
  - { offsetInCU: 0x1A8F1, offset: 0x3B625, size: 0x8, addend: 0x0, symName: __ZNSt3__14pairINS_12basic_stringIcNS_11char_traitsIcEENS_9allocatorIcEEEES6_ED1Ev, symObjAddr: 0xCA4, symBinAddr: 0x10000B628, symSize: 0x2C }
  - { offsetInCU: 0x1A91D, offset: 0x3B651, size: 0x8, addend: 0x0, symName: __ZNSt3__111__wrap_iterIPK15ScheduledModuleEppB7v160006Ev, symObjAddr: 0xCD0, symBinAddr: 0x10000B654, symSize: 0x20 }
  - { offsetInCU: 0x1A943, offset: 0x3B677, size: 0x8, addend: 0x0, symName: __ZNSt3__13mapINS_12basic_stringIcNS_11char_traitsIcEENS_9allocatorIcEEEENS0_IiNS_4pairIS6_S6_EENS_4lessIiEENS4_INS7_IKiS8_EEEEEENS9_IS6_EENS4_INS7_IKS6_SE_EEEEE5beginB7v160006Ev, symObjAddr: 0xCF0, symBinAddr: 0x10000B674, symSize: 0x38 }
  - { offsetInCU: 0x1A969, offset: 0x3B69D, size: 0x8, addend: 0x0, symName: __ZNSt3__13mapINS_12basic_stringIcNS_11char_traitsIcEENS_9allocatorIcEEEENS0_IiNS_4pairIS6_S6_EENS_4lessIiEENS4_INS7_IKiS8_EEEEEENS9_IS6_EENS4_INS7_IKS6_SE_EEEEE3endB7v160006Ev, symObjAddr: 0xD28, symBinAddr: 0x10000B6AC, symSize: 0x38 }
  - { offsetInCU: 0x1A98F, offset: 0x3B6C3, size: 0x8, addend: 0x0, symName: __ZNKSt3__114__map_iteratorINS_15__tree_iteratorINS_12__value_typeINS_12basic_stringIcNS_11char_traitsIcEENS_9allocatorIcEEEENS_3mapIiNS_4pairIS8_S8_EENS_4lessIiEENS6_INSA_IKiSB_EEEEEEEEPNS_11__tree_nodeISI_PvEElEEEdeB7v160006Ev, symObjAddr: 0xD90, symBinAddr: 0x10000B714, symSize: 0x28 }
  - { offsetInCU: 0x1A9B5, offset: 0x3B6E9, size: 0x8, addend: 0x0, symName: __ZNKSt3__13mapIiNS_4pairINS_12basic_stringIcNS_11char_traitsIcEENS_9allocatorIcEEEES7_EENS_4lessIiEENS5_INS1_IKiS8_EEEEE5beginB7v160006Ev, symObjAddr: 0xED0, symBinAddr: 0x10000B73C, symSize: 0x38 }
  - { offsetInCU: 0x1A9DB, offset: 0x3B70F, size: 0x8, addend: 0x0, symName: __ZNKSt3__13mapIiNS_4pairINS_12basic_stringIcNS_11char_traitsIcEENS_9allocatorIcEEEES7_EENS_4lessIiEENS5_INS1_IKiS8_EEEEE3endB7v160006Ev, symObjAddr: 0xF08, symBinAddr: 0x10000B774, symSize: 0x38 }
  - { offsetInCU: 0x1AA01, offset: 0x3B735, size: 0x8, addend: 0x0, symName: __ZNKSt3__120__map_const_iteratorINS_21__tree_const_iteratorINS_12__value_typeIiNS_4pairINS_12basic_stringIcNS_11char_traitsIcEENS_9allocatorIcEEEES9_EEEEPNS_11__tree_nodeISB_PvEElEEEdeB7v160006Ev, symObjAddr: 0xF70, symBinAddr: 0x10000B7DC, symSize: 0x28 }
  - { offsetInCU: 0x1AA27, offset: 0x3B75B, size: 0x8, addend: 0x0, symName: __ZNSt3__120__map_const_iteratorINS_21__tree_const_iteratorINS_12__value_typeIiNS_4pairINS_12basic_stringIcNS_11char_traitsIcEENS_9allocatorIcEEEES9_EEEEPNS_11__tree_nodeISB_PvEElEEEppB7v160006Ev, symObjAddr: 0xF98, symBinAddr: 0x10000B804, symSize: 0x2C }
  - { offsetInCU: 0x1AA4D, offset: 0x3B781, size: 0x8, addend: 0x0, symName: __ZNSt3__114__map_iteratorINS_15__tree_iteratorINS_12__value_typeINS_12basic_stringIcNS_11char_traitsIcEENS_9allocatorIcEEEENS_3mapIiNS_4pairIS8_S8_EENS_4lessIiEENS6_INSA_IKiSB_EEEEEEEEPNS_11__tree_nodeISI_PvEElEEEppB7v160006Ev, symObjAddr: 0xFC4, symBinAddr: 0x10000B830, symSize: 0x2C }
  - { offsetInCU: 0x1AA73, offset: 0x3B7A7, size: 0x8, addend: 0x0, symName: __ZNSt3__13mapINS_12basic_stringIcNS_11char_traitsIcEENS_9allocatorIcEEEENS0_IiNS_4pairIS6_S6_EENS_4lessIiEENS4_INS7_IKiS8_EEEEEENS9_IS6_EENS4_INS7_IKS6_SE_EEEEED1B7v160006Ev, symObjAddr: 0xFF0, symBinAddr: 0x10000B85C, symSize: 0x2C }
  - { offsetInCU: 0x1AA9D, offset: 0x3B7D1, size: 0x8, addend: 0x0, symName: __ZN10Chromosome13checkGeneSizeEv, symObjAddr: 0x101C, symBinAddr: 0x10000B888, symSize: 0x60 }
  - { offsetInCU: 0x1AAC5, offset: 0x3B7F9, size: 0x8, addend: 0x0, symName: __ZNK10ChromosomeeqERKS_, symObjAddr: 0x107C, symBinAddr: 0x10000B8E8, symSize: 0x30 }
  - { offsetInCU: 0x1AAFB, offset: 0x3B82F, size: 0x8, addend: 0x0, symName: __ZN10Chromosome15evaluateFitnessEv, symObjAddr: 0x1148, symBinAddr: 0x10000B9B4, symSize: 0x141C }
  - { offsetInCU: 0x1B301, offset: 0x3C035, size: 0x8, addend: 0x0, symName: __ZNSt3__13mapINS_4pairIiiEEiNS_4lessIS2_EENS_9allocatorINS1_IKS2_iEEEEEC1B7v160006Ev, symObjAddr: 0x2564, symBinAddr: 0x10000CDD0, symSize: 0x2C }
  - { offsetInCU: 0x1B32B, offset: 0x3C05F, size: 0x8, addend: 0x0, symName: __ZNSt3__13mapINS_4pairIiiEEiNS_4lessIS2_EENS_9allocatorINS1_IKS2_iEEEEEixERS6_, symObjAddr: 0x2670, symBinAddr: 0x10000CE30, symSize: 0x80 }
  - { offsetInCU: 0x1B362, offset: 0x3C096, size: 0x8, addend: 0x0, symName: __ZNSt3__13mapINS_4pairIiiEEiNS_4lessIS2_EENS_9allocatorINS1_IKS2_iEEEEE5beginB7v160006Ev, symObjAddr: 0x2710, symBinAddr: 0x10000CEB0, symSize: 0x38 }
  - { offsetInCU: 0x1B388, offset: 0x3C0BC, size: 0x8, addend: 0x0, symName: __ZNSt3__13mapINS_4pairIiiEEiNS_4lessIS2_EENS_9allocatorINS1_IKS2_iEEEEE3endB7v160006Ev, symObjAddr: 0x2748, symBinAddr: 0x10000CEE8, symSize: 0x38 }
  - { offsetInCU: 0x1B3AE, offset: 0x3C0E2, size: 0x8, addend: 0x0, symName: __ZNKSt3__114__map_iteratorINS_15__tree_iteratorINS_12__value_typeINS_4pairIiiEEiEEPNS_11__tree_nodeIS5_PvEElEEEdeB7v160006Ev, symObjAddr: 0x27B0, symBinAddr: 0x10000CF50, symSize: 0x28 }
  - { offsetInCU: 0x1B3D4, offset: 0x3C108, size: 0x8, addend: 0x0, symName: __ZNSt3__114__map_iteratorINS_15__tree_iteratorINS_12__value_typeINS_4pairIiiEEiEEPNS_11__tree_nodeIS5_PvEElEEEppB7v160006Ev, symObjAddr: 0x27D8, symBinAddr: 0x10000CF78, symSize: 0x2C }
  - { offsetInCU: 0x1B3FA, offset: 0x3C12E, size: 0x8, addend: 0x0, symName: __ZNK10Chromosome14getModuleHoursEi, symObjAddr: 0x2804, symBinAddr: 0x10000CFA4, symSize: 0x144 }
  - { offsetInCU: 0x1B5EF, offset: 0x3C323, size: 0x8, addend: 0x0, symName: __ZNSt3__16vectorI26LecturerTimeSlotPreferenceNS_9allocatorIS1_EEE5beginB7v160006Ev, symObjAddr: 0x2948, symBinAddr: 0x10000D0E8, symSize: 0x30 }
  - { offsetInCU: 0x1B617, offset: 0x3C34B, size: 0x8, addend: 0x0, symName: __ZNSt3__16vectorI26LecturerTimeSlotPreferenceNS_9allocatorIS1_EEE3endB7v160006Ev, symObjAddr: 0x2978, symBinAddr: 0x10000D118, symSize: 0x30 }
  - { offsetInCU: 0x1B63F, offset: 0x3C373, size: 0x8, addend: 0x0, symName: __ZNKSt3__111__wrap_iterIP26LecturerTimeSlotPreferenceEdeB7v160006Ev, symObjAddr: 0x29DC, symBinAddr: 0x10000D17C, symSize: 0x18 }
  - { offsetInCU: 0x1B665, offset: 0x3C399, size: 0x8, addend: 0x0, symName: __ZNKSt3__16vectorI8TimeSlotNS_9allocatorIS1_EEE5beginB7v160006Ev, symObjAddr: 0x29F4, symBinAddr: 0x10000D194, symSize: 0x30 }
  - { offsetInCU: 0x1B68D, offset: 0x3C3C1, size: 0x8, addend: 0x0, symName: __ZNKSt3__16vectorI8TimeSlotNS_9allocatorIS1_EEE3endB7v160006Ev, symObjAddr: 0x2A24, symBinAddr: 0x10000D1C4, symSize: 0x30 }
  - { offsetInCU: 0x1B6B5, offset: 0x3C3E9, size: 0x8, addend: 0x0, symName: __ZNKSt3__111__wrap_iterIPK8TimeSlotEdeB7v160006Ev, symObjAddr: 0x2A88, symBinAddr: 0x10000D228, symSize: 0x18 }
  - { offsetInCU: 0x1B6DB, offset: 0x3C40F, size: 0x8, addend: 0x0, symName: __ZNSt3__111__wrap_iterIPK8TimeSlotEppB7v160006Ev, symObjAddr: 0x2AA0, symBinAddr: 0x10000D240, symSize: 0x20 }
  - { offsetInCU: 0x1B701, offset: 0x3C435, size: 0x8, addend: 0x0, symName: __ZNSt3__111__wrap_iterIP26LecturerTimeSlotPreferenceEppB7v160006Ev, symObjAddr: 0x2AEC, symBinAddr: 0x10000D260, symSize: 0x20 }
  - { offsetInCU: 0x1B727, offset: 0x3C45B, size: 0x8, addend: 0x0, symName: __ZNSt3__13mapINS_4pairIiiEENS_6vectorIiNS_9allocatorIiEEEENS_4lessIS2_EENS4_INS1_IKS2_S6_EEEEEC1B7v160006Ev, symObjAddr: 0x2B0C, symBinAddr: 0x10000D280, symSize: 0x2C }
  - { offsetInCU: 0x1B75B, offset: 0x3C48F, size: 0x8, addend: 0x0, symName: '__ZZN10Chromosome15evaluateFitnessEvENK3$_0clEi', symObjAddr: 0x2B38, symBinAddr: 0x10000D2AC, symSize: 0x24 }
  - { offsetInCU: 0x1B794, offset: 0x3C4C8, size: 0x8, addend: 0x0, symName: __ZNSt3__13mapINS_4pairIiiEENS_6vectorIiNS_9allocatorIiEEEENS_4lessIS2_EENS4_INS1_IKS2_S6_EEEEEixEOS2_, symObjAddr: 0x2B5C, symBinAddr: 0x10000D2D0, symSize: 0x80 }
  - { offsetInCU: 0x1B7CB, offset: 0x3C4FF, size: 0x8, addend: 0x0, symName: __ZNSt3__16vectorIiNS_9allocatorIiEEE9push_backB7v160006ERKi, symObjAddr: 0x2BDC, symBinAddr: 0x10000D350, symSize: 0x6C }
  - { offsetInCU: 0x1B802, offset: 0x3C536, size: 0x8, addend: 0x0, symName: __ZNSt3__13mapINS_4pairIiiEENS_6vectorIiNS_9allocatorIiEEEENS_4lessIS2_EENS4_INS1_IKS2_S6_EEEEE5beginB7v160006Ev, symObjAddr: 0x2C48, symBinAddr: 0x10000D3BC, symSize: 0x38 }
  - { offsetInCU: 0x1B828, offset: 0x3C55C, size: 0x8, addend: 0x0, symName: __ZNSt3__13mapINS_4pairIiiEENS_6vectorIiNS_9allocatorIiEEEENS_4lessIS2_EENS4_INS1_IKS2_S6_EEEEE3endB7v160006Ev, symObjAddr: 0x2C80, symBinAddr: 0x10000D3F4, symSize: 0x38 }
  - { offsetInCU: 0x1B84E, offset: 0x3C582, size: 0x8, addend: 0x0, symName: __ZNKSt3__114__map_iteratorINS_15__tree_iteratorINS_12__value_typeINS_4pairIiiEENS_6vectorIiNS_9allocatorIiEEEEEEPNS_11__tree_nodeIS9_PvEElEEEdeB7v160006Ev, symObjAddr: 0x2CE8, symBinAddr: 0x10000D45C, symSize: 0x28 }
  - { offsetInCU: 0x1B874, offset: 0x3C5A8, size: 0x8, addend: 0x0, symName: __ZNSt3__16vectorIiNS_9allocatorIiEEEC1ERKS3_, symObjAddr: 0x2D10, symBinAddr: 0x10000D484, symSize: 0x34 }
  - { offsetInCU: 0x1B8AF, offset: 0x3C5E3, size: 0x8, addend: 0x0, symName: __ZNSt3__16vectorIiNS_9allocatorIiEEE5beginB7v160006Ev, symObjAddr: 0x2D80, symBinAddr: 0x10000D4F4, symSize: 0x30 }
  - { offsetInCU: 0x1B8D7, offset: 0x3C60B, size: 0x8, addend: 0x0, symName: __ZNSt3__16vectorIiNS_9allocatorIiEEE3endB7v160006Ev, symObjAddr: 0x2DB0, symBinAddr: 0x10000D524, symSize: 0x30 }
  - { offsetInCU: 0x1B8FF, offset: 0x3C633, size: 0x8, addend: 0x0, symName: __ZNKSt3__16vectorIiNS_9allocatorIiEEE4sizeB7v160006Ev, symObjAddr: 0x2DE0, symBinAddr: 0x10000D554, symSize: 0x28 }
  - { offsetInCU: 0x1B925, offset: 0x3C659, size: 0x8, addend: 0x0, symName: __ZNSt3__16vectorIiNS_9allocatorIiEEEixB7v160006Em, symObjAddr: 0x2E08, symBinAddr: 0x10000D57C, symSize: 0x24 }
  - { offsetInCU: 0x1B95C, offset: 0x3C690, size: 0x8, addend: 0x0, symName: __ZNSt3__16vectorIiNS_9allocatorIiEEED1B7v160006Ev, symObjAddr: 0x2E2C, symBinAddr: 0x10000D5A0, symSize: 0x2C }
  - { offsetInCU: 0x1B986, offset: 0x3C6BA, size: 0x8, addend: 0x0, symName: __ZNSt3__114__map_iteratorINS_15__tree_iteratorINS_12__value_typeINS_4pairIiiEENS_6vectorIiNS_9allocatorIiEEEEEEPNS_11__tree_nodeIS9_PvEElEEEppB7v160006Ev, symObjAddr: 0x2E58, symBinAddr: 0x10000D5CC, symSize: 0x2C }
  - { offsetInCU: 0x1B9AC, offset: 0x3C6E0, size: 0x8, addend: 0x0, symName: __ZNSt3__13mapINS_4pairIiiEENS_6vectorIiNS_9allocatorIiEEEENS_4lessIS2_EENS4_INS1_IKS2_S6_EEEEED1B7v160006Ev, symObjAddr: 0x2E84, symBinAddr: 0x10000D5F8, symSize: 0x2C }
  - { offsetInCU: 0x1B9D6, offset: 0x3C70A, size: 0x8, addend: 0x0, symName: __ZNSt3__13mapINS_4pairIiiEEiNS_4lessIS2_EENS_9allocatorINS1_IKS2_iEEEEED1B7v160006Ev, symObjAddr: 0x2EB0, symBinAddr: 0x10000D624, symSize: 0x2C }
  - { offsetInCU: 0x1BA00, offset: 0x3C734, size: 0x8, addend: 0x0, symName: __ZNK10Chromosome9isDiverseERKS_, symObjAddr: 0x2EDC, symBinAddr: 0x10000D650, symSize: 0x108 }
  - { offsetInCU: 0x1BA6B, offset: 0x3C79F, size: 0x8, addend: 0x0, symName: __ZNSt3__16vectorI15ScheduledModuleNS_9allocatorIS1_EEEixB7v160006Em, symObjAddr: 0x2FE4, symBinAddr: 0x10000D758, symSize: 0x2C }
  - { offsetInCU: 0x1BAA2, offset: 0x3C7D6, size: 0x8, addend: 0x0, symName: __ZN10Chromosome7getGeneEi, symObjAddr: 0x303C, symBinAddr: 0x10000D784, symSize: 0x2C }
  - { offsetInCU: 0x1BADA, offset: 0x3C80E, size: 0x8, addend: 0x0, symName: __ZN10Chromosome14catchViolationEv, symObjAddr: 0x3068, symBinAddr: 0x10000D7B0, symSize: 0x1D84 }
  - { offsetInCU: 0x1C354, offset: 0x3D088, size: 0x8, addend: 0x0, symName: __ZNSt3__14pairIiiEC1B7v160006IRiS3_LPv0EEEOT_OT0_, symObjAddr: 0x4DEC, symBinAddr: 0x10000F534, symSize: 0x3C }
  - { offsetInCU: 0x1C3B2, offset: 0x3D0E6, size: 0x8, addend: 0x0, symName: __ZNSt3__16vectorIiNS_9allocatorIiEEE9push_backB7v160006EOi, symObjAddr: 0x4E28, symBinAddr: 0x10000F570, symSize: 0x6C }
  - { offsetInCU: 0x1C3EE, offset: 0x3D122, size: 0x8, addend: 0x0, symName: __ZNKSt3__16vectorIiNS_9allocatorIiEEE5beginB7v160006Ev, symObjAddr: 0x4EC8, symBinAddr: 0x10000F5DC, symSize: 0x30 }
  - { offsetInCU: 0x1C416, offset: 0x3D14A, size: 0x8, addend: 0x0, symName: __ZNKSt3__16vectorIiNS_9allocatorIiEEE3endB7v160006Ev, symObjAddr: 0x4EF8, symBinAddr: 0x10000F60C, symSize: 0x30 }
  - { offsetInCU: 0x1C43E, offset: 0x3D172, size: 0x8, addend: 0x0, symName: __ZNKSt3__111__wrap_iterIPKiEdeB7v160006Ev, symObjAddr: 0x4F5C, symBinAddr: 0x10000F670, symSize: 0x18 }
  - { offsetInCU: 0x1C464, offset: 0x3D198, size: 0x8, addend: 0x0, symName: __ZNSt3__112basic_stringIcNS_11char_traitsIcEENS_9allocatorIcEEEpLB7v160006ERKS5_, symObjAddr: 0x4FB4, symBinAddr: 0x10000F6C8, symSize: 0x2C }
  - { offsetInCU: 0x1C499, offset: 0x3D1CD, size: 0x8, addend: 0x0, symName: __ZNSt3__111__wrap_iterIPKiEppB7v160006Ev, symObjAddr: 0x4FE0, symBinAddr: 0x10000F6F4, symSize: 0x20 }
  - { offsetInCU: 0x1C4BF, offset: 0x3D1F3, size: 0x8, addend: 0x0, symName: __ZNKSt3__16vectorIiNS_9allocatorIiEEEixB7v160006Em, symObjAddr: 0x5000, symBinAddr: 0x10000F714, symSize: 0x24 }
  - { offsetInCU: 0x1C4FB, offset: 0x3D22F, size: 0x8, addend: 0x0, symName: __ZNSt3__14pairIiNS_12basic_stringIcNS_11char_traitsIcEENS_9allocatorIcEEEEEC1B7v160006IRKiRS6_LPv0EEEOT_OT0_, symObjAddr: 0x5024, symBinAddr: 0x10000F738, symSize: 0x3C }
  - { offsetInCU: 0x1C559, offset: 0x3D28D, size: 0x8, addend: 0x0, symName: __ZNSt3__14pairIiNS_12basic_stringIcNS_11char_traitsIcEENS_9allocatorIcEEEEEC1B7v160006IRmRS6_LPv0EEEOT_OT0_, symObjAddr: 0x50A4, symBinAddr: 0x10000F7B8, symSize: 0x3C }
  - { offsetInCU: 0x1C5BC, offset: 0x3D2F0, size: 0x8, addend: 0x0, symName: __ZNSt3__14pairIiNS_12basic_stringIcNS_11char_traitsIcEENS_9allocatorIcEEEEEC1B7v160006IRmS6_LPv0EEEOT_OT0_, symObjAddr: 0x51A4, symBinAddr: 0x10000F8B8, symSize: 0x3C }
  - { offsetInCU: 0x1C624, offset: 0x3D358, size: 0x8, addend: 0x0, symName: '__ZZN10Chromosome14catchViolationEvENK3$_2clEi', symObjAddr: 0x51E0, symBinAddr: 0x10000F8F4, symSize: 0x24 }
  - { offsetInCU: 0x1C65D, offset: 0x3D391, size: 0x8, addend: 0x0, symName: __ZNSt3__14pairIiNS_12basic_stringIcNS_11char_traitsIcEENS_9allocatorIcEEEEEC1B7v160006IRiRS6_LPv0EEEOT_OT0_, symObjAddr: 0x5244, symBinAddr: 0x10000F958, symSize: 0x3C }
  - { offsetInCU: 0x1C6D6, offset: 0x3D40A, size: 0x8, addend: 0x0, symName: __ZNSt3__14pairIiNS_12basic_stringIcNS_11char_traitsIcEENS_9allocatorIcEEEEEC1B7v160006IiRA22_KcLPv0EEEOT_OT0_, symObjAddr: 0x5280, symBinAddr: 0x10000F994, symSize: 0x3C }
  - { offsetInCU: 0x1C734, offset: 0x3D468, size: 0x8, addend: 0x0, symName: __ZNSt3__16vectorI15ScheduledModuleNS_9allocatorIS1_EEEC2B7v160006Ev, symObjAddr: 0x52BC, symBinAddr: 0x10000F9D0, symSize: 0x58 }
  - { offsetInCU: 0x1C768, offset: 0x3D49C, size: 0x8, addend: 0x0, symName: __ZNSt3__117__compressed_pairIP15ScheduledModuleNS_9allocatorIS1_EEEC1B7v160006IDnNS_18__default_init_tagEEEOT_OT0_, symObjAddr: 0x5314, symBinAddr: 0x10000FA28, symSize: 0x3C }
  - { offsetInCU: 0x1C7C0, offset: 0x3D4F4, size: 0x8, addend: 0x0, symName: __ZNSt3__117__compressed_pairIP15ScheduledModuleNS_9allocatorIS1_EEEC2B7v160006IDnNS_18__default_init_tagEEEOT_OT0_, symObjAddr: 0x536C, symBinAddr: 0x10000FA74, symSize: 0x40 }
  - { offsetInCU: 0x1C818, offset: 0x3D54C, size: 0x8, addend: 0x0, symName: __ZNSt3__122__compressed_pair_elemIP15ScheduledModuleLi0ELb0EEC2B7v160006IDnvEEOT_, symObjAddr: 0x53AC, symBinAddr: 0x10000FAB4, symSize: 0x1C }
  - { offsetInCU: 0x1C85A, offset: 0x3D58E, size: 0x8, addend: 0x0, symName: __ZNSt3__122__compressed_pair_elemINS_9allocatorI15ScheduledModuleEELi1ELb1EEC2B7v160006ENS_18__default_init_tagE, symObjAddr: 0x53C8, symBinAddr: 0x10000FAD0, symSize: 0x2C }
  - { offsetInCU: 0x1C88F, offset: 0x3D5C3, size: 0x8, addend: 0x0, symName: __ZNSt3__19allocatorI15ScheduledModuleEC2B7v160006Ev, symObjAddr: 0x53F4, symBinAddr: 0x10000FAFC, symSize: 0x2C }
  - { offsetInCU: 0x1C8B9, offset: 0x3D5ED, size: 0x8, addend: 0x0, symName: __ZNSt3__116__non_trivial_ifILb1ENS_9allocatorI15ScheduledModuleEEEC2B7v160006Ev, symObjAddr: 0x5420, symBinAddr: 0x10000FB28, symSize: 0x14 }
  - { offsetInCU: 0x1C8E3, offset: 0x3D617, size: 0x8, addend: 0x0, symName: __ZNSt3__16vectorI15ScheduledModuleNS_9allocatorIS1_EEEC2ERKS4_, symObjAddr: 0x5434, symBinAddr: 0x10000FB3C, symSize: 0x110 }
  - { offsetInCU: 0x1C94C, offset: 0x3D680, size: 0x8, addend: 0x0, symName: __ZNSt3__116allocator_traitsINS_9allocatorI15ScheduledModuleEEE37select_on_container_copy_constructionB7v160006IS3_vvEES3_RKS3_, symObjAddr: 0x5544, symBinAddr: 0x10000FC4C, symSize: 0x10 }
  - { offsetInCU: 0x1C97B, offset: 0x3D6AF, size: 0x8, addend: 0x0, symName: __ZNKSt3__16vectorI15ScheduledModuleNS_9allocatorIS1_EEE7__allocB7v160006Ev, symObjAddr: 0x5554, symBinAddr: 0x10000FC5C, symSize: 0x28 }
  - { offsetInCU: 0x1C9A6, offset: 0x3D6DA, size: 0x8, addend: 0x0, symName: __ZNSt3__117__compressed_pairIP15ScheduledModuleNS_9allocatorIS1_EEEC1B7v160006IDnS4_EEOT_OT0_, symObjAddr: 0x557C, symBinAddr: 0x10000FC84, symSize: 0x3C }
  - { offsetInCU: 0x1C9FE, offset: 0x3D732, size: 0x8, addend: 0x0, symName: __ZNSt3__16vectorI15ScheduledModuleNS_9allocatorIS1_EEE11__vallocateB7v160006Em, symObjAddr: 0x562C, symBinAddr: 0x10000FD00, symSize: 0xB4 }
  - { offsetInCU: 0x1CA42, offset: 0x3D776, size: 0x8, addend: 0x0, symName: __ZNSt3__16vectorI15ScheduledModuleNS_9allocatorIS1_EEE18__construct_at_endIPS1_Li0EEEvT_S7_m, symObjAddr: 0x56E0, symBinAddr: 0x10000FDB4, symSize: 0x8C }
  - { offsetInCU: 0x1CAB5, offset: 0x3D7E9, size: 0x8, addend: 0x0, symName: __ZNSt3__128__exception_guard_exceptionsINS_6vectorI15ScheduledModuleNS_9allocatorIS2_EEE16__destroy_vectorEE10__completeB7v160006Ev, symObjAddr: 0x576C, symBinAddr: 0x10000FE40, symSize: 0x1C }
  - { offsetInCU: 0x1CADB, offset: 0x3D80F, size: 0x8, addend: 0x0, symName: __ZNSt3__128__exception_guard_exceptionsINS_6vectorI15ScheduledModuleNS_9allocatorIS2_EEE16__destroy_vectorEED1B7v160006Ev, symObjAddr: 0x5788, symBinAddr: 0x10000FE5C, symSize: 0x2C }
  - { offsetInCU: 0x1CB05, offset: 0x3D839, size: 0x8, addend: 0x0, symName: __ZNKSt3__117__compressed_pairIP15ScheduledModuleNS_9allocatorIS1_EEE6secondB7v160006Ev, symObjAddr: 0x57B4, symBinAddr: 0x10000FE88, symSize: 0x24 }
  - { offsetInCU: 0x1CB2B, offset: 0x3D85F, size: 0x8, addend: 0x0, symName: __ZNKSt3__122__compressed_pair_elemINS_9allocatorI15ScheduledModuleEELi1ELb1EE5__getB7v160006Ev, symObjAddr: 0x57D8, symBinAddr: 0x10000FEAC, symSize: 0x14 }
  - { offsetInCU: 0x1CB51, offset: 0x3D885, size: 0x8, addend: 0x0, symName: __ZNSt3__117__compressed_pairIP15ScheduledModuleNS_9allocatorIS1_EEEC2B7v160006IDnS4_EEOT_OT0_, symObjAddr: 0x57EC, symBinAddr: 0x10000FEC0, symSize: 0x44 }
  - { offsetInCU: 0x1CBA9, offset: 0x3D8DD, size: 0x8, addend: 0x0, symName: __ZNSt3__122__compressed_pair_elemINS_9allocatorI15ScheduledModuleEELi1ELb1EEC2B7v160006IS3_vEEOT_, symObjAddr: 0x5830, symBinAddr: 0x10000FF04, symSize: 0x18 }
  - { offsetInCU: 0x1CBEB, offset: 0x3D91F, size: 0x8, addend: 0x0, symName: __ZNSt3__128__exception_guard_exceptionsINS_6vectorI15ScheduledModuleNS_9allocatorIS2_EEE16__destroy_vectorEEC1B7v160006ES6_, symObjAddr: 0x5848, symBinAddr: 0x10000FF1C, symSize: 0x34 }
  - { offsetInCU: 0x1CC23, offset: 0x3D957, size: 0x8, addend: 0x0, symName: __ZNSt3__128__exception_guard_exceptionsINS_6vectorI15ScheduledModuleNS_9allocatorIS2_EEE16__destroy_vectorEEC2B7v160006ES6_, symObjAddr: 0x587C, symBinAddr: 0x10000FF50, symSize: 0x24 }
  - { offsetInCU: 0x1CC5B, offset: 0x3D98F, size: 0x8, addend: 0x0, symName: __ZNKSt3__16vectorI15ScheduledModuleNS_9allocatorIS1_EEE8max_sizeEv, symObjAddr: 0x58C0, symBinAddr: 0x10000FF74, symSize: 0x60 }
  - { offsetInCU: 0x1CC83, offset: 0x3D9B7, size: 0x8, addend: 0x0, symName: __ZNKSt3__16vectorI15ScheduledModuleNS_9allocatorIS1_EEE20__throw_length_errorB7v160006Ev, symObjAddr: 0x5920, symBinAddr: 0x10000FFD4, symSize: 0x1C }
  - { offsetInCU: 0x1CCA9, offset: 0x3D9DD, size: 0x8, addend: 0x0, symName: __ZNSt3__16vectorI15ScheduledModuleNS_9allocatorIS1_EEE9__end_capB7v160006Ev, symObjAddr: 0x59A4, symBinAddr: 0x100010030, symSize: 0x28 }
  - { offsetInCU: 0x1CCCF, offset: 0x3DA03, size: 0x8, addend: 0x0, symName: __ZNKSt3__16vectorI15ScheduledModuleNS_9allocatorIS1_EEE14__annotate_newB7v160006Em, symObjAddr: 0x59CC, symBinAddr: 0x100010058, symSize: 0xC8 }
  - { offsetInCU: 0x1CD04, offset: 0x3DA38, size: 0x8, addend: 0x0, symName: __ZNSt3__116allocator_traitsINS_9allocatorI15ScheduledModuleEEE8max_sizeB7v160006IS3_vvEEmRKS3_, symObjAddr: 0x5AC0, symBinAddr: 0x100010120, symSize: 0x28 }
  - { offsetInCU: 0x1CD30, offset: 0x3DA64, size: 0x8, addend: 0x0, symName: __ZNSt3__114numeric_limitsIlE3maxB7v160006Ev, symObjAddr: 0x5AE8, symBinAddr: 0x100010148, symSize: 0x14 }
  - { offsetInCU: 0x1CD44, offset: 0x3DA78, size: 0x8, addend: 0x0, symName: __ZNSt3__123__libcpp_numeric_limitsIlLb1EE3maxB7v160006Ev, symObjAddr: 0x5BA0, symBinAddr: 0x10001015C, symSize: 0x8 }
  - { offsetInCU: 0x1CD58, offset: 0x3DA8C, size: 0x8, addend: 0x0, symName: __ZNSt12length_errorC1B7v160006EPKc, symObjAddr: 0x5C0C, symBinAddr: 0x1000101C8, symSize: 0x34 }
  - { offsetInCU: 0x1CD90, offset: 0x3DAC4, size: 0x8, addend: 0x0, symName: __ZNSt12length_errorC2B7v160006EPKc, symObjAddr: 0x5C40, symBinAddr: 0x1000101FC, symSize: 0x4C }
  - { offsetInCU: 0x1CDC8, offset: 0x3DAFC, size: 0x8, addend: 0x0, symName: __ZNSt3__19allocatorI15ScheduledModuleE8allocateB7v160006Em, symObjAddr: 0x5C8C, symBinAddr: 0x100010248, symSize: 0x5C }
  - { offsetInCU: 0x1CDFC, offset: 0x3DB30, size: 0x8, addend: 0x0, symName: __ZNSt3__117__compressed_pairIP15ScheduledModuleNS_9allocatorIS1_EEE5firstB7v160006Ev, symObjAddr: 0x5E24, symBinAddr: 0x100010388, symSize: 0x24 }
  - { offsetInCU: 0x1CE22, offset: 0x3DB56, size: 0x8, addend: 0x0, symName: __ZNSt3__122__compressed_pair_elemIP15ScheduledModuleLi0ELb0EE5__getB7v160006Ev, symObjAddr: 0x5E48, symBinAddr: 0x1000103AC, symSize: 0x14 }
  - { offsetInCU: 0x1CE61, offset: 0x3DB95, size: 0x8, addend: 0x0, symName: __ZNSt3__16vectorI15ScheduledModuleNS_9allocatorIS1_EEE21_ConstructTransactionC1B7v160006ERS4_m, symObjAddr: 0x5F58, symBinAddr: 0x1000103C0, symSize: 0x3C }
  - { offsetInCU: 0x1CEA9, offset: 0x3DBDD, size: 0x8, addend: 0x0, symName: __ZNSt3__16vectorI15ScheduledModuleNS_9allocatorIS1_EEE21_ConstructTransactionD1B7v160006Ev, symObjAddr: 0x6088, symBinAddr: 0x1000104F0, symSize: 0x2C }
  - { offsetInCU: 0x1CED3, offset: 0x3DC07, size: 0x8, addend: 0x0, symName: __ZNSt3__16vectorI15ScheduledModuleNS_9allocatorIS1_EEE21_ConstructTransactionC2B7v160006ERS4_m, symObjAddr: 0x60B4, symBinAddr: 0x10001051C, symSize: 0x4C }
  - { offsetInCU: 0x1CF1B, offset: 0x3DC4F, size: 0x8, addend: 0x0, symName: __ZNSt3__129_AllocatorDestroyRangeReverseINS_9allocatorI15ScheduledModuleEEPS2_EC1B7v160006ERS3_RS4_S7_, symObjAddr: 0x614C, symBinAddr: 0x1000105B4, symSize: 0x44 }
  - { offsetInCU: 0x1CF72, offset: 0x3DCA6, size: 0x8, addend: 0x0, symName: __ZNSt3__116allocator_traitsINS_9allocatorI15ScheduledModuleEEE9constructB7v160006IS2_JRS2_EvvEEvRS3_PT_DpOT0_, symObjAddr: 0x6190, symBinAddr: 0x1000105F8, symSize: 0x30 }
  - { offsetInCU: 0x1CFC7, offset: 0x3DCFB, size: 0x8, addend: 0x0, symName: __ZNSt3__128__exception_guard_exceptionsINS_29_AllocatorDestroyRangeReverseINS_9allocatorI15ScheduledModuleEEPS3_EEE10__completeB7v160006Ev, symObjAddr: 0x61C0, symBinAddr: 0x100010628, symSize: 0x1C }
  - { offsetInCU: 0x1CFED, offset: 0x3DD21, size: 0x8, addend: 0x0, symName: __ZNSt3__128__exception_guard_exceptionsINS_29_AllocatorDestroyRangeReverseINS_9allocatorI15ScheduledModuleEEPS3_EEED1B7v160006Ev, symObjAddr: 0x61DC, symBinAddr: 0x100010644, symSize: 0x2C }
  - { offsetInCU: 0x1D017, offset: 0x3DD4B, size: 0x8, addend: 0x0, symName: __ZNSt3__128__exception_guard_exceptionsINS_29_AllocatorDestroyRangeReverseINS_9allocatorI15ScheduledModuleEEPS3_EEEC1B7v160006ES6_, symObjAddr: 0x6208, symBinAddr: 0x100010670, symSize: 0x34 }
  - { offsetInCU: 0x1D050, offset: 0x3DD84, size: 0x8, addend: 0x0, symName: __ZNSt3__128__exception_guard_exceptionsINS_29_AllocatorDestroyRangeReverseINS_9allocatorI15ScheduledModuleEEPS3_EEEC2B7v160006ES6_, symObjAddr: 0x623C, symBinAddr: 0x1000106A4, symSize: 0x30 }
  - { offsetInCU: 0x1D089, offset: 0x3DDBD, size: 0x8, addend: 0x0, symName: __ZNSt3__129_AllocatorDestroyRangeReverseINS_9allocatorI15ScheduledModuleEEPS2_EC2B7v160006ERS3_RS4_S7_, symObjAddr: 0x626C, symBinAddr: 0x1000106D4, symSize: 0x38 }
  - { offsetInCU: 0x1D0E0, offset: 0x3DE14, size: 0x8, addend: 0x0, symName: __ZN15ScheduledModuleC1ERKS_, symObjAddr: 0x62E0, symBinAddr: 0x100010748, symSize: 0x34 }
  - { offsetInCU: 0x1D115, offset: 0x3DE49, size: 0x8, addend: 0x0, symName: __ZN15ScheduledModuleC2ERKS_, symObjAddr: 0x6314, symBinAddr: 0x10001077C, symSize: 0xBC }
  - { offsetInCU: 0x1D14A, offset: 0x3DE7E, size: 0x8, addend: 0x0, symName: __ZN6ModuleC1ERKS_, symObjAddr: 0x63D0, symBinAddr: 0x100010838, symSize: 0x34 }
  - { offsetInCU: 0x1D17F, offset: 0x3DEB3, size: 0x8, addend: 0x0, symName: __ZN8TimeSlotC1ERKS_, symObjAddr: 0x6404, symBinAddr: 0x10001086C, symSize: 0x34 }
  - { offsetInCU: 0x1D1B4, offset: 0x3DEE8, size: 0x8, addend: 0x0, symName: __ZN5VenueC1ERKS_, symObjAddr: 0x6438, symBinAddr: 0x1000108A0, symSize: 0x34 }
  - { offsetInCU: 0x1D1E9, offset: 0x3DF1D, size: 0x8, addend: 0x0, symName: __ZN6ModuleC2ERKS_, symObjAddr: 0x646C, symBinAddr: 0x1000108D4, symSize: 0x94 }
  - { offsetInCU: 0x1D21E, offset: 0x3DF52, size: 0x8, addend: 0x0, symName: __ZN8LecturerC1ERKS_, symObjAddr: 0x6500, symBinAddr: 0x100010968, symSize: 0x34 }
  - { offsetInCU: 0x1D253, offset: 0x3DF87, size: 0x8, addend: 0x0, symName: __ZN8LecturerC2ERKS_, symObjAddr: 0x6534, symBinAddr: 0x10001099C, symSize: 0x48 }
  - { offsetInCU: 0x1D288, offset: 0x3DFBC, size: 0x8, addend: 0x0, symName: __ZN8TimeSlotC2ERKS_, symObjAddr: 0x657C, symBinAddr: 0x1000109E4, symSize: 0x88 }
  - { offsetInCU: 0x1D2BD, offset: 0x3DFF1, size: 0x8, addend: 0x0, symName: __ZN5VenueC2ERKS_, symObjAddr: 0x6604, symBinAddr: 0x100010A6C, symSize: 0x5C }
  - { offsetInCU: 0x1D2F2, offset: 0x3E026, size: 0x8, addend: 0x0, symName: __ZNSt3__128__exception_guard_exceptionsINS_29_AllocatorDestroyRangeReverseINS_9allocatorI15ScheduledModuleEEPS3_EEED2B7v160006Ev, symObjAddr: 0x6660, symBinAddr: 0x100010AC8, symSize: 0x50 }
  - { offsetInCU: 0x1D31C, offset: 0x3E050, size: 0x8, addend: 0x0, symName: __ZNKSt3__129_AllocatorDestroyRangeReverseINS_9allocatorI15ScheduledModuleEEPS2_EclB7v160006Ev, symObjAddr: 0x66B0, symBinAddr: 0x100010B18, symSize: 0x68 }
  - { offsetInCU: 0x1D342, offset: 0x3E076, size: 0x8, addend: 0x0, symName: __ZNSt3__116reverse_iteratorIP15ScheduledModuleEC1B7v160006ES2_, symObjAddr: 0x6788, symBinAddr: 0x100010BF0, symSize: 0x34 }
  - { offsetInCU: 0x1D37A, offset: 0x3E0AE, size: 0x8, addend: 0x0, symName: __ZNSt3__116reverse_iteratorIP15ScheduledModuleEppB7v160006Ev, symObjAddr: 0x6850, symBinAddr: 0x100010C90, symSize: 0x20 }
  - { offsetInCU: 0x1D3A0, offset: 0x3E0D4, size: 0x8, addend: 0x0, symName: __ZNKSt3__116reverse_iteratorIP15ScheduledModuleE4baseB7v160006Ev, symObjAddr: 0x6870, symBinAddr: 0x100010CB0, symSize: 0x18 }
  - { offsetInCU: 0x1D3CB, offset: 0x3E0FF, size: 0x8, addend: 0x0, symName: __ZNSt3__119__to_address_helperINS_16reverse_iteratorIP15ScheduledModuleEEvE6__callB7v160006ERKS4_, symObjAddr: 0x6940, symBinAddr: 0x100010CC8, symSize: 0x38 }
  - { offsetInCU: 0x1D3EE, offset: 0x3E122, size: 0x8, addend: 0x0, symName: __ZNKSt3__116reverse_iteratorIP15ScheduledModuleEptB7v160006Ev, symObjAddr: 0x6978, symBinAddr: 0x100010D00, symSize: 0x2C }
  - { offsetInCU: 0x1D414, offset: 0x3E148, size: 0x8, addend: 0x0, symName: __ZNSt3__116reverse_iteratorIP15ScheduledModuleEC2B7v160006ES2_, symObjAddr: 0x6A88, symBinAddr: 0x100010E10, symSize: 0x28 }
  - { offsetInCU: 0x1D44C, offset: 0x3E180, size: 0x8, addend: 0x0, symName: __ZNSt3__16vectorI15ScheduledModuleNS_9allocatorIS1_EEE21_ConstructTransactionD2B7v160006Ev, symObjAddr: 0x6AB0, symBinAddr: 0x100010E38, symSize: 0x20 }
  - { offsetInCU: 0x1D476, offset: 0x3E1AA, size: 0x8, addend: 0x0, symName: __ZNSt3__128__exception_guard_exceptionsINS_6vectorI15ScheduledModuleNS_9allocatorIS2_EEE16__destroy_vectorEED2B7v160006Ev, symObjAddr: 0x6AD0, symBinAddr: 0x100010E58, symSize: 0x50 }
  - { offsetInCU: 0x1D4A0, offset: 0x3E1D4, size: 0x8, addend: 0x0, symName: __ZNSt3__16vectorI15ScheduledModuleNS_9allocatorIS1_EEE22__construct_one_at_endB7v160006IJRKS1_EEEvDpOT_, symObjAddr: 0x6ED4, symBinAddr: 0x100010EA8, symSize: 0x90 }
  - { offsetInCU: 0x1D4EF, offset: 0x3E223, size: 0x8, addend: 0x0, symName: __ZNSt3__16vectorI15ScheduledModuleNS_9allocatorIS1_EEE21__push_back_slow_pathIRKS1_EEvOT_, symObjAddr: 0x6F64, symBinAddr: 0x100010F38, symSize: 0xD8 }
  - { offsetInCU: 0x1D54D, offset: 0x3E281, size: 0x8, addend: 0x0, symName: __ZNSt3__116allocator_traitsINS_9allocatorI15ScheduledModuleEEE9constructB7v160006IS2_JRKS2_EvvEEvRS3_PT_DpOT0_, symObjAddr: 0x703C, symBinAddr: 0x100011010, symSize: 0x30 }
  - { offsetInCU: 0x1D5A2, offset: 0x3E2D6, size: 0x8, addend: 0x0, symName: __ZNKSt3__16vectorI15ScheduledModuleNS_9allocatorIS1_EEE11__recommendB7v160006Em, symObjAddr: 0x70A8, symBinAddr: 0x10001107C, symSize: 0xB4 }
  - { offsetInCU: 0x1D5F7, offset: 0x3E32B, size: 0x8, addend: 0x0, symName: __ZNSt3__114__split_bufferI15ScheduledModuleRNS_9allocatorIS1_EEEC1EmmS4_, symObjAddr: 0x715C, symBinAddr: 0x100011130, symSize: 0x44 }
  - { offsetInCU: 0x1D64D, offset: 0x3E381, size: 0x8, addend: 0x0, symName: __ZNSt3__114__split_bufferI15ScheduledModuleRNS_9allocatorIS1_EEED1Ev, symObjAddr: 0x72B8, symBinAddr: 0x10001128C, symSize: 0x2C }
  - { offsetInCU: 0x1D679, offset: 0x3E3AD, size: 0x8, addend: 0x0, symName: __ZNSt3__114__split_bufferI15ScheduledModuleRNS_9allocatorIS1_EEEC2EmmS4_, symObjAddr: 0x7364, symBinAddr: 0x100011338, symSize: 0xE0 }
  - { offsetInCU: 0x1D6EC, offset: 0x3E420, size: 0x8, addend: 0x0, symName: __ZNSt3__117__compressed_pairIP15ScheduledModuleRNS_9allocatorIS1_EEEC1B7v160006IDnS5_EEOT_OT0_, symObjAddr: 0x7444, symBinAddr: 0x100011418, symSize: 0x3C }
  - { offsetInCU: 0x1D744, offset: 0x3E478, size: 0x8, addend: 0x0, symName: __ZNSt3__114__split_bufferI15ScheduledModuleRNS_9allocatorIS1_EEE7__allocB7v160006Ev, symObjAddr: 0x7480, symBinAddr: 0x100011454, symSize: 0x28 }
  - { offsetInCU: 0x1D76A, offset: 0x3E49E, size: 0x8, addend: 0x0, symName: __ZNSt3__114__split_bufferI15ScheduledModuleRNS_9allocatorIS1_EEE9__end_capB7v160006Ev, symObjAddr: 0x74A8, symBinAddr: 0x10001147C, symSize: 0x28 }
  - { offsetInCU: 0x1D790, offset: 0x3E4C4, size: 0x8, addend: 0x0, symName: __ZNSt3__117__compressed_pairIP15ScheduledModuleRNS_9allocatorIS1_EEEC2B7v160006IDnS5_EEOT_OT0_, symObjAddr: 0x74D0, symBinAddr: 0x1000114A4, symSize: 0x48 }
  - { offsetInCU: 0x1D7E8, offset: 0x3E51C, size: 0x8, addend: 0x0, symName: __ZNSt3__122__compressed_pair_elemIRNS_9allocatorI15ScheduledModuleEELi1ELb0EEC2B7v160006IS4_vEEOT_, symObjAddr: 0x7518, symBinAddr: 0x1000114EC, symSize: 0x20 }
  - { offsetInCU: 0x1D82A, offset: 0x3E55E, size: 0x8, addend: 0x0, symName: __ZNSt3__117__compressed_pairIP15ScheduledModuleRNS_9allocatorIS1_EEE6secondB7v160006Ev, symObjAddr: 0x7538, symBinAddr: 0x10001150C, symSize: 0x28 }
  - { offsetInCU: 0x1D850, offset: 0x3E584, size: 0x8, addend: 0x0, symName: __ZNSt3__122__compressed_pair_elemIRNS_9allocatorI15ScheduledModuleEELi1ELb0EE5__getB7v160006Ev, symObjAddr: 0x7560, symBinAddr: 0x100011534, symSize: 0x18 }
  - { offsetInCU: 0x1D876, offset: 0x3E5AA, size: 0x8, addend: 0x0, symName: __ZNSt3__117__compressed_pairIP15ScheduledModuleRNS_9allocatorIS1_EEE5firstB7v160006Ev, symObjAddr: 0x7578, symBinAddr: 0x10001154C, symSize: 0x24 }
  - { offsetInCU: 0x1D89C, offset: 0x3E5D0, size: 0x8, addend: 0x0, symName: __ZNSt3__129_AllocatorDestroyRangeReverseINS_9allocatorI15ScheduledModuleEENS_16reverse_iteratorIPS2_EEEC1B7v160006ERS3_RS6_S9_, symObjAddr: 0x7758, symBinAddr: 0x10001172C, symSize: 0x44 }
  - { offsetInCU: 0x1D8F8, offset: 0x3E62C, size: 0x8, addend: 0x0, symName: __ZNSt3__116allocator_traitsINS_9allocatorI15ScheduledModuleEEE9constructB7v160006IS2_JS2_EvvEEvRS3_PT_DpOT0_, symObjAddr: 0x779C, symBinAddr: 0x100011770, symSize: 0x30 }
  - { offsetInCU: 0x1D94D, offset: 0x3E681, size: 0x8, addend: 0x0, symName: __ZNKSt3__116reverse_iteratorIP15ScheduledModuleEdeB7v160006Ev, symObjAddr: 0x77CC, symBinAddr: 0x1000117A0, symSize: 0x28 }
  - { offsetInCU: 0x1D982, offset: 0x3E6B6, size: 0x8, addend: 0x0, symName: __ZNSt3__128__exception_guard_exceptionsINS_29_AllocatorDestroyRangeReverseINS_9allocatorI15ScheduledModuleEENS_16reverse_iteratorIPS3_EEEEE10__completeB7v160006Ev, symObjAddr: 0x77F4, symBinAddr: 0x1000117C8, symSize: 0x1C }
  - { offsetInCU: 0x1D9A8, offset: 0x3E6DC, size: 0x8, addend: 0x0, symName: __ZNSt3__128__exception_guard_exceptionsINS_29_AllocatorDestroyRangeReverseINS_9allocatorI15ScheduledModuleEENS_16reverse_iteratorIPS3_EEEEED1B7v160006Ev, symObjAddr: 0x7810, symBinAddr: 0x1000117E4, symSize: 0x2C }
  - { offsetInCU: 0x1D9D2, offset: 0x3E706, size: 0x8, addend: 0x0, symName: __ZNSt3__128__exception_guard_exceptionsINS_29_AllocatorDestroyRangeReverseINS_9allocatorI15ScheduledModuleEENS_16reverse_iteratorIPS3_EEEEEC1B7v160006ES8_, symObjAddr: 0x783C, symBinAddr: 0x100011810, symSize: 0x34 }
  - { offsetInCU: 0x1DA0B, offset: 0x3E73F, size: 0x8, addend: 0x0, symName: __ZNSt3__128__exception_guard_exceptionsINS_29_AllocatorDestroyRangeReverseINS_9allocatorI15ScheduledModuleEENS_16reverse_iteratorIPS3_EEEEEC2B7v160006ES8_, symObjAddr: 0x7870, symBinAddr: 0x100011844, symSize: 0x30 }
  - { offsetInCU: 0x1DA44, offset: 0x3E778, size: 0x8, addend: 0x0, symName: __ZNSt3__129_AllocatorDestroyRangeReverseINS_9allocatorI15ScheduledModuleEENS_16reverse_iteratorIPS2_EEEC2B7v160006ERS3_RS6_S9_, symObjAddr: 0x78A0, symBinAddr: 0x100011874, symSize: 0x38 }
  - { offsetInCU: 0x1DA9B, offset: 0x3E7CF, size: 0x8, addend: 0x0, symName: __ZN15ScheduledModuleC1EOS_, symObjAddr: 0x7914, symBinAddr: 0x1000118E8, symSize: 0x34 }
  - { offsetInCU: 0x1DAD0, offset: 0x3E804, size: 0x8, addend: 0x0, symName: __ZN15ScheduledModuleC2EOS_, symObjAddr: 0x7948, symBinAddr: 0x10001191C, symSize: 0x70 }
  - { offsetInCU: 0x1DB0A, offset: 0x3E83E, size: 0x8, addend: 0x0, symName: __ZN6ModuleC1EOS_, symObjAddr: 0x79B8, symBinAddr: 0x10001198C, symSize: 0x34 }
  - { offsetInCU: 0x1DB44, offset: 0x3E878, size: 0x8, addend: 0x0, symName: __ZN8TimeSlotC1EOS_, symObjAddr: 0x79EC, symBinAddr: 0x1000119C0, symSize: 0x34 }
  - { offsetInCU: 0x1DB7E, offset: 0x3E8B2, size: 0x8, addend: 0x0, symName: __ZN5VenueC1EOS_, symObjAddr: 0x7A20, symBinAddr: 0x1000119F4, symSize: 0x34 }
  - { offsetInCU: 0x1DBB3, offset: 0x3E8E7, size: 0x8, addend: 0x0, symName: __ZN6ModuleC2EOS_, symObjAddr: 0x7A54, symBinAddr: 0x100011A28, symSize: 0x68 }
  - { offsetInCU: 0x1DBED, offset: 0x3E921, size: 0x8, addend: 0x0, symName: __ZN8LecturerC1EOS_, symObjAddr: 0x7ABC, symBinAddr: 0x100011A90, symSize: 0x34 }
  - { offsetInCU: 0x1DC22, offset: 0x3E956, size: 0x8, addend: 0x0, symName: __ZNSt3__112basic_stringIcNS_11char_traitsIcEENS_9allocatorIcEEEC1B7v160006EOS5_, symObjAddr: 0x7AF0, symBinAddr: 0x100011AC4, symSize: 0x34 }
  - { offsetInCU: 0x1DC5B, offset: 0x3E98F, size: 0x8, addend: 0x0, symName: __ZN8LecturerC2EOS_, symObjAddr: 0x7B24, symBinAddr: 0x100011AF8, symSize: 0x48 }
  - { offsetInCU: 0x1DC90, offset: 0x3E9C4, size: 0x8, addend: 0x0, symName: __ZNSt3__112basic_stringIcNS_11char_traitsIcEENS_9allocatorIcEEEC2B7v160006EOS5_, symObjAddr: 0x7B6C, symBinAddr: 0x100011B40, symSize: 0x88 }
  - { offsetInCU: 0x1DCC9, offset: 0x3E9FD, size: 0x8, addend: 0x0, symName: __ZN8TimeSlotC2EOS_, symObjAddr: 0x7D00, symBinAddr: 0x100011BDC, symSize: 0x5C }
  - { offsetInCU: 0x1DCFE, offset: 0x3EA32, size: 0x8, addend: 0x0, symName: __ZN5VenueC2EOS_, symObjAddr: 0x7D5C, symBinAddr: 0x100011C38, symSize: 0x5C }
  - { offsetInCU: 0x1DD33, offset: 0x3EA67, size: 0x8, addend: 0x0, symName: __ZNSt3__128__exception_guard_exceptionsINS_29_AllocatorDestroyRangeReverseINS_9allocatorI15ScheduledModuleEENS_16reverse_iteratorIPS3_EEEEED2B7v160006Ev, symObjAddr: 0x7DB8, symBinAddr: 0x100011C94, symSize: 0x50 }
  - { offsetInCU: 0x1DD5D, offset: 0x3EA91, size: 0x8, addend: 0x0, symName: __ZNKSt3__129_AllocatorDestroyRangeReverseINS_9allocatorI15ScheduledModuleEENS_16reverse_iteratorIPS2_EEEclB7v160006Ev, symObjAddr: 0x7E08, symBinAddr: 0x100011CE4, symSize: 0xB4 }
  - { offsetInCU: 0x1DD84, offset: 0x3EAB8, size: 0x8, addend: 0x0, symName: __ZNSt3__116reverse_iteratorINS0_IP15ScheduledModuleEEEC1B7v160006ES3_, symObjAddr: 0x7F2C, symBinAddr: 0x100011E08, symSize: 0x3C }
  - { offsetInCU: 0x1DDBC, offset: 0x3EAF0, size: 0x8, addend: 0x0, symName: __ZNSt3__116reverse_iteratorINS0_IP15ScheduledModuleEEEppB7v160006Ev, symObjAddr: 0x7FEC, symBinAddr: 0x100011EC8, symSize: 0x30 }
  - { offsetInCU: 0x1DDE2, offset: 0x3EB16, size: 0x8, addend: 0x0, symName: __ZNKSt3__116reverse_iteratorINS0_IP15ScheduledModuleEEE4baseB7v160006Ev, symObjAddr: 0x801C, symBinAddr: 0x100011EF8, symSize: 0x24 }
  - { offsetInCU: 0x1DE0D, offset: 0x3EB41, size: 0x8, addend: 0x0, symName: __ZNSt3__119__to_address_helperINS_16reverse_iteratorINS1_IP15ScheduledModuleEEEEvE6__callB7v160006ERKS5_, symObjAddr: 0x8040, symBinAddr: 0x100011F1C, symSize: 0x38 }
  - { offsetInCU: 0x1DE30, offset: 0x3EB64, size: 0x8, addend: 0x0, symName: __ZNKSt3__116reverse_iteratorINS0_IP15ScheduledModuleEEEptB7v160006Ev, symObjAddr: 0x8078, symBinAddr: 0x100011F54, symSize: 0x4C }
  - { offsetInCU: 0x1DE56, offset: 0x3EB8A, size: 0x8, addend: 0x0, symName: __ZNSt3__116reverse_iteratorIP15ScheduledModuleEpLB7v160006El, symObjAddr: 0x81A0, symBinAddr: 0x10001207C, symSize: 0x30 }
  - { offsetInCU: 0x1DE8A, offset: 0x3EBBE, size: 0x8, addend: 0x0, symName: __ZNSt3__116reverse_iteratorIP15ScheduledModuleEmmB7v160006Ev, symObjAddr: 0x81D0, symBinAddr: 0x1000120AC, symSize: 0x20 }
  - { offsetInCU: 0x1DEB0, offset: 0x3EBE4, size: 0x8, addend: 0x0, symName: __ZNSt3__116reverse_iteratorINS0_IP15ScheduledModuleEEEC2B7v160006ES3_, symObjAddr: 0x81F0, symBinAddr: 0x1000120CC, symSize: 0x2C }
  - { offsetInCU: 0x1DEE8, offset: 0x3EC1C, size: 0x8, addend: 0x0, symName: __ZNSt3__114__split_bufferI15ScheduledModuleRNS_9allocatorIS1_EEED2Ev, symObjAddr: 0x821C, symBinAddr: 0x1000120F8, symSize: 0x8C }
  - { offsetInCU: 0x1DF14, offset: 0x3EC48, size: 0x8, addend: 0x0, symName: __ZNSt3__114__split_bufferI15ScheduledModuleRNS_9allocatorIS1_EEE5clearB7v160006Ev, symObjAddr: 0x82A8, symBinAddr: 0x100012184, symSize: 0x28 }
  - { offsetInCU: 0x1DF3A, offset: 0x3EC6E, size: 0x8, addend: 0x0, symName: __ZNKSt3__114__split_bufferI15ScheduledModuleRNS_9allocatorIS1_EEE8capacityB7v160006Ev, symObjAddr: 0x82D0, symBinAddr: 0x1000121AC, symSize: 0x40 }
  - { offsetInCU: 0x1DF60, offset: 0x3EC94, size: 0x8, addend: 0x0, symName: __ZNSt3__114__split_bufferI15ScheduledModuleRNS_9allocatorIS1_EEE17__destruct_at_endB7v160006EPS1_, symObjAddr: 0x8310, symBinAddr: 0x1000121EC, symSize: 0x2C }
  - { offsetInCU: 0x1DF94, offset: 0x3ECC8, size: 0x8, addend: 0x0, symName: __ZNSt3__114__split_bufferI15ScheduledModuleRNS_9allocatorIS1_EEE17__destruct_at_endB7v160006EPS1_NS_17integral_constantIbLb0EEE, symObjAddr: 0x833C, symBinAddr: 0x100012218, symSize: 0x80 }
  - { offsetInCU: 0x1DFD5, offset: 0x3ED09, size: 0x8, addend: 0x0, symName: __ZNKSt3__114__split_bufferI15ScheduledModuleRNS_9allocatorIS1_EEE9__end_capB7v160006Ev, symObjAddr: 0x83BC, symBinAddr: 0x100012298, symSize: 0x28 }
  - { offsetInCU: 0x1DFFB, offset: 0x3ED2F, size: 0x8, addend: 0x0, symName: __ZNKSt3__117__compressed_pairIP15ScheduledModuleRNS_9allocatorIS1_EEE5firstB7v160006Ev, symObjAddr: 0x83E4, symBinAddr: 0x1000122C0, symSize: 0x24 }
  - { offsetInCU: 0x1E021, offset: 0x3ED55, size: 0x8, addend: 0x0, symName: __ZNSt3__16vectorI15ScheduledModuleNS_9allocatorIS1_EEE19__copy_assign_allocB7v160006ERKS4_, symObjAddr: 0x84B0, symBinAddr: 0x1000122E4, symSize: 0x2C }
  - { offsetInCU: 0x1E056, offset: 0x3ED8A, size: 0x8, addend: 0x0, symName: __ZNSt3__16vectorI15ScheduledModuleNS_9allocatorIS1_EEE6assignIPS1_Li0EEEvT_S7_, symObjAddr: 0x84DC, symBinAddr: 0x100012310, symSize: 0x17C }
  - { offsetInCU: 0x1E0F5, offset: 0x3EE29, size: 0x8, addend: 0x0, symName: __ZNSt3__16vectorI15ScheduledModuleNS_9allocatorIS1_EEE19__copy_assign_allocB7v160006ERKS4_NS_17integral_constantIbLb0EEE, symObjAddr: 0x8658, symBinAddr: 0x10001248C, symSize: 0x14 }
  - { offsetInCU: 0x1E133, offset: 0x3EE67, size: 0x8, addend: 0x0, symName: __ZNSt3__16vectorI15ScheduledModuleNS_9allocatorIS1_EEE17__destruct_at_endB7v160006EPS1_, symObjAddr: 0x8728, symBinAddr: 0x10001255C, symSize: 0x60 }
  - { offsetInCU: 0x1E177, offset: 0x3EEAB, size: 0x8, addend: 0x0, symName: __ZNSt3__16vectorI15ScheduledModuleNS_9allocatorIS1_EEE13__vdeallocateEv, symObjAddr: 0x8788, symBinAddr: 0x1000125BC, symSize: 0x8C }
  - { offsetInCU: 0x1E1C2, offset: 0x3EEF6, size: 0x8, addend: 0x0, symName: __ZNKSt3__111__copy_loopINS_17_ClassicAlgPolicyEEclB7v160006IP15ScheduledModuleS5_S5_EENS_4pairIT_T1_EES7_T0_S8_, symObjAddr: 0x89C8, symBinAddr: 0x1000127FC, symSize: 0x88 }
  - { offsetInCU: 0x1E22D, offset: 0x3EF61, size: 0x8, addend: 0x0, symName: __ZNSt3__119__unwrap_range_implIP15ScheduledModuleS2_E8__unwrapB7v160006ES2_S2_, symObjAddr: 0x8B14, symBinAddr: 0x100012948, symSize: 0x58 }
  - { offsetInCU: 0x1E263, offset: 0x3EF97, size: 0x8, addend: 0x0, symName: __ZNSt3__14pairIP15ScheduledModuleS2_EC1B7v160006IS2_S2_LPv0EEEOT_OT0_, symObjAddr: 0x8B6C, symBinAddr: 0x1000129A0, symSize: 0x3C }
  - { offsetInCU: 0x1E2C1, offset: 0x3EFF5, size: 0x8, addend: 0x0, symName: __ZNSt3__14pairIP15ScheduledModuleS2_EC2B7v160006IS2_S2_LPv0EEEOT_OT0_, symObjAddr: 0x8BA8, symBinAddr: 0x1000129DC, symSize: 0x34 }
  - { offsetInCU: 0x1E31F, offset: 0x3F053, size: 0x8, addend: 0x0, symName: __ZN15ScheduledModuleaSERKS_, symObjAddr: 0x8BDC, symBinAddr: 0x100012A10, symSize: 0x70 }
  - { offsetInCU: 0x1E355, offset: 0x3F089, size: 0x8, addend: 0x0, symName: __ZN6ModuleaSERKS_, symObjAddr: 0x8C4C, symBinAddr: 0x100012A80, symSize: 0x68 }
  - { offsetInCU: 0x1E386, offset: 0x3F0BA, size: 0x8, addend: 0x0, symName: __ZN8TimeSlotaSERKS_, symObjAddr: 0x8CB4, symBinAddr: 0x100012AE8, symSize: 0x5C }
  - { offsetInCU: 0x1E3BC, offset: 0x3F0F0, size: 0x8, addend: 0x0, symName: __ZN5VenueaSERKS_, symObjAddr: 0x8D10, symBinAddr: 0x100012B44, symSize: 0x5C }
  - { offsetInCU: 0x1E3F2, offset: 0x3F126, size: 0x8, addend: 0x0, symName: __ZN8LectureraSERKS_, symObjAddr: 0x8D6C, symBinAddr: 0x100012BA0, symSize: 0x48 }
  - { offsetInCU: 0x1E423, offset: 0x3F157, size: 0x8, addend: 0x0, symName: __ZNSt3__118__unwrap_iter_implIP15ScheduledModuleLb1EE8__unwrapB7v160006ES2_, symObjAddr: 0x8DB4, symBinAddr: 0x100012BE8, symSize: 0x24 }
  - { offsetInCU: 0x1E446, offset: 0x3F17A, size: 0x8, addend: 0x0, symName: __ZNSt3__119__unwrap_range_implIP15ScheduledModuleS2_E8__rewrapB7v160006ES2_S2_, symObjAddr: 0x8DD8, symBinAddr: 0x100012C0C, symSize: 0x2C }
  - { offsetInCU: 0x1E477, offset: 0x3F1AB, size: 0x8, addend: 0x0, symName: __ZNSt3__118__unwrap_iter_implIP15ScheduledModuleLb1EE8__rewrapB7v160006ES2_S2_, symObjAddr: 0x8E04, symBinAddr: 0x100012C38, symSize: 0x58 }
  - { offsetInCU: 0x1E4A8, offset: 0x3F1DC, size: 0x8, addend: 0x0, symName: __ZNSt3__16vectorI15ScheduledModuleNS_9allocatorIS1_EEE27__invalidate_iterators_pastB7v160006EPS1_, symObjAddr: 0x8E5C, symBinAddr: 0x100012C90, symSize: 0x14 }
  - { offsetInCU: 0x1E4DF, offset: 0x3F213, size: 0x8, addend: 0x0, symName: __ZNKSt3__16vectorI15ScheduledModuleNS_9allocatorIS1_EEE17__annotate_shrinkB7v160006Em, symObjAddr: 0x8E70, symBinAddr: 0x100012CA4, symSize: 0xD0 }
  - { offsetInCU: 0x1E514, offset: 0x3F248, size: 0x8, addend: 0x0, symName: __ZNSt3__16vectorI15ScheduledModuleNS_9allocatorIS1_EEE5clearB7v160006Ev, symObjAddr: 0x8F40, symBinAddr: 0x100012D74, symSize: 0x4C }
  - { offsetInCU: 0x1E549, offset: 0x3F27D, size: 0x8, addend: 0x0, symName: __ZNKSt3__16vectorI15ScheduledModuleNS_9allocatorIS1_EEE11__make_iterB7v160006EPKS1_, symObjAddr: 0x8F8C, symBinAddr: 0x100012DC0, symSize: 0x34 }
  - { offsetInCU: 0x1E57E, offset: 0x3F2B2, size: 0x8, addend: 0x0, symName: __ZNSt3__111__wrap_iterIPK15ScheduledModuleEC1B7v160006EPKvS3_, symObjAddr: 0x8FC0, symBinAddr: 0x100012DF4, symSize: 0x3C }
  - { offsetInCU: 0x1E5C4, offset: 0x3F2F8, size: 0x8, addend: 0x0, symName: __ZNSt3__111__wrap_iterIPK15ScheduledModuleEC2B7v160006EPKvS3_, symObjAddr: 0x8FFC, symBinAddr: 0x100012E30, symSize: 0x24 }
  - { offsetInCU: 0x1E60A, offset: 0x3F33E, size: 0x8, addend: 0x0, symName: __ZNKSt3__111__wrap_iterIPK15ScheduledModuleE4baseB7v160006Ev, symObjAddr: 0x9068, symBinAddr: 0x100012E9C, symSize: 0x18 }
  - { offsetInCU: 0x1E630, offset: 0x3F364, size: 0x8, addend: 0x0, symName: __ZNSt3__14pairINS_12basic_stringIcNS_11char_traitsIcEENS_9allocatorIcEEEES6_EC1B7v160006IRS6_S9_LPv0EEEOT_OT0_, symObjAddr: 0x90B0, symBinAddr: 0x100012EB4, symSize: 0x3C }
  - { offsetInCU: 0x1E68E, offset: 0x3F3C2, size: 0x8, addend: 0x0, symName: __ZNSt3__14pairINS_12basic_stringIcNS_11char_traitsIcEENS_9allocatorIcEEEES6_EC2B7v160006IRS6_S9_LPv0EEEOT_OT0_, symObjAddr: 0x90EC, symBinAddr: 0x100012EF0, symSize: 0x70 }
  - { offsetInCU: 0x1E6EC, offset: 0x3F420, size: 0x8, addend: 0x0, symName: __ZNSt3__112basic_stringIcNS_11char_traitsIcEENS_9allocatorIcEEEaSB7v160006EOS5_, symObjAddr: 0x915C, symBinAddr: 0x100012F60, symSize: 0x34 }
  - { offsetInCU: 0x1E721, offset: 0x3F455, size: 0x8, addend: 0x0, symName: __ZNSt3__112basic_stringIcNS_11char_traitsIcEENS_9allocatorIcEEE13__move_assignB7v160006ERS5_NS_17integral_constantIbLb1EEE, symObjAddr: 0x9190, symBinAddr: 0x100012F94, symSize: 0xC8 }
  - { offsetInCU: 0x1E764, offset: 0x3F498, size: 0x8, addend: 0x0, symName: __ZNSt3__116allocator_traitsINS_9allocatorIcEEE10deallocateB7v160006ERS2_Pcm, symObjAddr: 0x9258, symBinAddr: 0x10001305C, symSize: 0x34 }
  - { offsetInCU: 0x1E7A6, offset: 0x3F4DA, size: 0x8, addend: 0x0, symName: __ZNSt3__112basic_stringIcNS_11char_traitsIcEENS_9allocatorIcEEE7__allocB7v160006Ev, symObjAddr: 0x928C, symBinAddr: 0x100013090, symSize: 0x24 }
  - { offsetInCU: 0x1E7CC, offset: 0x3F500, size: 0x8, addend: 0x0, symName: __ZNKSt3__112basic_stringIcNS_11char_traitsIcEENS_9allocatorIcEEE14__get_long_capB7v160006Ev, symObjAddr: 0x92D8, symBinAddr: 0x1000130B4, symSize: 0x30 }
  - { offsetInCU: 0x1E7F2, offset: 0x3F526, size: 0x8, addend: 0x0, symName: __ZNSt3__112basic_stringIcNS_11char_traitsIcEENS_9allocatorIcEEE19__move_assign_allocB7v160006ERS5_, symObjAddr: 0x9308, symBinAddr: 0x1000130E4, symSize: 0x2C }
  - { offsetInCU: 0x1E827, offset: 0x3F55B, size: 0x8, addend: 0x0, symName: __ZNSt3__19allocatorIcE10deallocateB7v160006EPcm, symObjAddr: 0x93F8, symBinAddr: 0x100013110, symSize: 0x40 }
  - { offsetInCU: 0x1E869, offset: 0x3F59D, size: 0x8, addend: 0x0, symName: __ZNSt3__117__compressed_pairINS_12basic_stringIcNS_11char_traitsIcEENS_9allocatorIcEEE5__repES5_E6secondB7v160006Ev, symObjAddr: 0x9438, symBinAddr: 0x100013150, symSize: 0x24 }
  - { offsetInCU: 0x1E88F, offset: 0x3F5C3, size: 0x8, addend: 0x0, symName: __ZNSt3__122__compressed_pair_elemINS_9allocatorIcEELi1ELb1EE5__getB7v160006Ev, symObjAddr: 0x945C, symBinAddr: 0x100013174, symSize: 0x14 }
  - { offsetInCU: 0x1E8B5, offset: 0x3F5E9, size: 0x8, addend: 0x0, symName: __ZNSt3__112basic_stringIcNS_11char_traitsIcEENS_9allocatorIcEEE19__move_assign_allocB7v160006ERS5_NS_17integral_constantIbLb1EEE, symObjAddr: 0x9470, symBinAddr: 0x100013188, symSize: 0x38 }
  - { offsetInCU: 0x1E8F6, offset: 0x3F62A, size: 0x8, addend: 0x0, symName: __ZNSt3__14pairINS_12basic_stringIcNS_11char_traitsIcEENS_9allocatorIcEEEES6_ED2Ev, symObjAddr: 0x94BC, symBinAddr: 0x1000131C0, symSize: 0x38 }
  - { offsetInCU: 0x1E92C, offset: 0x3F660, size: 0x8, addend: 0x0, symName: __ZNKSt3__110__equal_toclB7v160006I15ScheduledModuleS2_EEbRKT_RKT0_, symObjAddr: 0x95F4, symBinAddr: 0x1000132F8, symSize: 0x34 }
  - { offsetInCU: 0x1E980, offset: 0x3F6B4, size: 0x8, addend: 0x0, symName: __ZNSt3__16vectorI26LecturerTimeSlotPreferenceNS_9allocatorIS1_EEE11__make_iterB7v160006EPS1_, symObjAddr: 0x971C, symBinAddr: 0x10001332C, symSize: 0x34 }
  - { offsetInCU: 0x1E9B5, offset: 0x3F6E9, size: 0x8, addend: 0x0, symName: __ZNSt3__111__wrap_iterIP26LecturerTimeSlotPreferenceEC1B7v160006EPKvS2_, symObjAddr: 0x9750, symBinAddr: 0x100013360, symSize: 0x3C }
  - { offsetInCU: 0x1E9FB, offset: 0x3F72F, size: 0x8, addend: 0x0, symName: __ZNSt3__111__wrap_iterIP26LecturerTimeSlotPreferenceEC2B7v160006EPKvS2_, symObjAddr: 0x978C, symBinAddr: 0x10001339C, symSize: 0x24 }
  - { offsetInCU: 0x1EA41, offset: 0x3F775, size: 0x8, addend: 0x0, symName: __ZNKSt3__111__wrap_iterIP26LecturerTimeSlotPreferenceE4baseB7v160006Ev, symObjAddr: 0x97F8, symBinAddr: 0x100013408, symSize: 0x18 }
  - { offsetInCU: 0x1EA67, offset: 0x3F79B, size: 0x8, addend: 0x0, symName: __ZNKSt3__16vectorI8TimeSlotNS_9allocatorIS1_EEE11__make_iterB7v160006EPKS1_, symObjAddr: 0x9810, symBinAddr: 0x100013420, symSize: 0x34 }
  - { offsetInCU: 0x1EA9C, offset: 0x3F7D0, size: 0x8, addend: 0x0, symName: __ZNSt3__111__wrap_iterIPK8TimeSlotEC1B7v160006EPKvS3_, symObjAddr: 0x9844, symBinAddr: 0x100013454, symSize: 0x3C }
  - { offsetInCU: 0x1EAE2, offset: 0x3F816, size: 0x8, addend: 0x0, symName: __ZNSt3__111__wrap_iterIPK8TimeSlotEC2B7v160006EPKvS3_, symObjAddr: 0x9880, symBinAddr: 0x100013490, symSize: 0x24 }
  - { offsetInCU: 0x1EB28, offset: 0x3F85C, size: 0x8, addend: 0x0, symName: __ZNSt3__16vectorIiNS_9allocatorIiEEE9__end_capB7v160006Ev, symObjAddr: 0x9DDC, symBinAddr: 0x1000134B4, symSize: 0x28 }
  - { offsetInCU: 0x1EB4E, offset: 0x3F882, size: 0x8, addend: 0x0, symName: __ZNSt3__16vectorIiNS_9allocatorIiEEE22__construct_one_at_endB7v160006IJRKiEEEvDpOT_, symObjAddr: 0x9E04, symBinAddr: 0x1000134DC, symSize: 0x90 }
  - { offsetInCU: 0x1EB9D, offset: 0x3F8D1, size: 0x8, addend: 0x0, symName: __ZNSt3__16vectorIiNS_9allocatorIiEEE21__push_back_slow_pathIRKiEEvOT_, symObjAddr: 0x9E94, symBinAddr: 0x10001356C, symSize: 0xD8 }
  - { offsetInCU: 0x1EBFB, offset: 0x3F92F, size: 0x8, addend: 0x0, symName: __ZNSt3__117__compressed_pairIPiNS_9allocatorIiEEE5firstB7v160006Ev, symObjAddr: 0x9F6C, symBinAddr: 0x100013644, symSize: 0x24 }
  - { offsetInCU: 0x1EC21, offset: 0x3F955, size: 0x8, addend: 0x0, symName: __ZNSt3__122__compressed_pair_elemIPiLi0ELb0EE5__getB7v160006Ev, symObjAddr: 0x9F90, symBinAddr: 0x100013668, symSize: 0x14 }
  - { offsetInCU: 0x1EC60, offset: 0x3F994, size: 0x8, addend: 0x0, symName: __ZNSt3__16vectorIiNS_9allocatorIiEEE21_ConstructTransactionC1B7v160006ERS3_m, symObjAddr: 0x9FA4, symBinAddr: 0x10001367C, symSize: 0x3C }
  - { offsetInCU: 0x1ECA8, offset: 0x3F9DC, size: 0x8, addend: 0x0, symName: __ZNSt3__116allocator_traitsINS_9allocatorIiEEE9constructB7v160006IiJRKiEvvEEvRS2_PT_DpOT0_, symObjAddr: 0x9FE0, symBinAddr: 0x1000136B8, symSize: 0x30 }
  - { offsetInCU: 0x1ECFD, offset: 0x3FA31, size: 0x8, addend: 0x0, symName: __ZNSt3__16vectorIiNS_9allocatorIiEEE7__allocB7v160006Ev, symObjAddr: 0xA010, symBinAddr: 0x1000136E8, symSize: 0x28 }
  - { offsetInCU: 0x1ED23, offset: 0x3FA57, size: 0x8, addend: 0x0, symName: __ZNSt3__16vectorIiNS_9allocatorIiEEE21_ConstructTransactionD1B7v160006Ev, symObjAddr: 0xA04C, symBinAddr: 0x100013724, symSize: 0x2C }
  - { offsetInCU: 0x1ED4D, offset: 0x3FA81, size: 0x8, addend: 0x0, symName: __ZNSt3__16vectorIiNS_9allocatorIiEEE21_ConstructTransactionC2B7v160006ERS3_m, symObjAddr: 0xA078, symBinAddr: 0x100013750, symSize: 0x44 }
  - { offsetInCU: 0x1ED95, offset: 0x3FAC9, size: 0x8, addend: 0x0, symName: __ZNSt3__117__compressed_pairIPiNS_9allocatorIiEEE6secondB7v160006Ev, symObjAddr: 0xA0E8, symBinAddr: 0x1000137C0, symSize: 0x24 }
  - { offsetInCU: 0x1EDBB, offset: 0x3FAEF, size: 0x8, addend: 0x0, symName: __ZNSt3__122__compressed_pair_elemINS_9allocatorIiEELi1ELb1EE5__getB7v160006Ev, symObjAddr: 0xA10C, symBinAddr: 0x1000137E4, symSize: 0x14 }
  - { offsetInCU: 0x1EDE1, offset: 0x3FB15, size: 0x8, addend: 0x0, symName: __ZNSt3__16vectorIiNS_9allocatorIiEEE21_ConstructTransactionD2B7v160006Ev, symObjAddr: 0xA120, symBinAddr: 0x1000137F8, symSize: 0x20 }
  - { offsetInCU: 0x1EE0B, offset: 0x3FB3F, size: 0x8, addend: 0x0, symName: __ZNKSt3__16vectorIiNS_9allocatorIiEEE11__recommendB7v160006Em, symObjAddr: 0xA140, symBinAddr: 0x100013818, symSize: 0xB4 }
  - { offsetInCU: 0x1EE60, offset: 0x3FB94, size: 0x8, addend: 0x0, symName: __ZNSt3__114__split_bufferIiRNS_9allocatorIiEEEC1EmmS3_, symObjAddr: 0xA1F4, symBinAddr: 0x1000138CC, symSize: 0x44 }
  - { offsetInCU: 0x1EEB6, offset: 0x3FBEA, size: 0x8, addend: 0x0, symName: __ZNSt3__114__split_bufferIiRNS_9allocatorIiEEED1Ev, symObjAddr: 0xA350, symBinAddr: 0x100013A28, symSize: 0x2C }
  - { offsetInCU: 0x1EEE2, offset: 0x3FC16, size: 0x8, addend: 0x0, symName: __ZNKSt3__16vectorIiNS_9allocatorIiEEE8max_sizeEv, symObjAddr: 0xA37C, symBinAddr: 0x100013A54, symSize: 0x60 }
  - { offsetInCU: 0x1EF0A, offset: 0x3FC3E, size: 0x8, addend: 0x0, symName: __ZNKSt3__16vectorIiNS_9allocatorIiEEE20__throw_length_errorB7v160006Ev, symObjAddr: 0xA3DC, symBinAddr: 0x100013AB4, symSize: 0x1C }
  - { offsetInCU: 0x1EF30, offset: 0x3FC64, size: 0x8, addend: 0x0, symName: __ZNKSt3__16vectorIiNS_9allocatorIiEEE8capacityB7v160006Ev, symObjAddr: 0xA3F8, symBinAddr: 0x100013AD0, symSize: 0x40 }
  - { offsetInCU: 0x1EF60, offset: 0x3FC94, size: 0x8, addend: 0x0, symName: __ZNSt3__116allocator_traitsINS_9allocatorIiEEE8max_sizeB7v160006IS2_vvEEmRKS2_, symObjAddr: 0xA438, symBinAddr: 0x100013B10, symSize: 0x28 }
  - { offsetInCU: 0x1EF8C, offset: 0x3FCC0, size: 0x8, addend: 0x0, symName: __ZNKSt3__16vectorIiNS_9allocatorIiEEE7__allocB7v160006Ev, symObjAddr: 0xA460, symBinAddr: 0x100013B38, symSize: 0x28 }
  - { offsetInCU: 0x1EFB2, offset: 0x3FCE6, size: 0x8, addend: 0x0, symName: __ZNKSt3__117__compressed_pairIPiNS_9allocatorIiEEE6secondB7v160006Ev, symObjAddr: 0xA488, symBinAddr: 0x100013B60, symSize: 0x24 }
  - { offsetInCU: 0x1EFD8, offset: 0x3FD0C, size: 0x8, addend: 0x0, symName: __ZNKSt3__122__compressed_pair_elemINS_9allocatorIiEELi1ELb1EE5__getB7v160006Ev, symObjAddr: 0xA4AC, symBinAddr: 0x100013B84, symSize: 0x14 }
  - { offsetInCU: 0x1EFFE, offset: 0x3FD32, size: 0x8, addend: 0x0, symName: __ZNKSt3__16vectorIiNS_9allocatorIiEEE9__end_capB7v160006Ev, symObjAddr: 0xA4C0, symBinAddr: 0x100013B98, symSize: 0x28 }
  - { offsetInCU: 0x1F024, offset: 0x3FD58, size: 0x8, addend: 0x0, symName: __ZNKSt3__117__compressed_pairIPiNS_9allocatorIiEEE5firstB7v160006Ev, symObjAddr: 0xA4E8, symBinAddr: 0x100013BC0, symSize: 0x24 }
  - { offsetInCU: 0x1F04A, offset: 0x3FD7E, size: 0x8, addend: 0x0, symName: __ZNKSt3__122__compressed_pair_elemIPiLi0ELb0EE5__getB7v160006Ev, symObjAddr: 0xA50C, symBinAddr: 0x100013BE4, symSize: 0x14 }
  - { offsetInCU: 0x1F070, offset: 0x3FDA4, size: 0x8, addend: 0x0, symName: __ZNSt3__114__split_bufferIiRNS_9allocatorIiEEEC2EmmS3_, symObjAddr: 0xA520, symBinAddr: 0x100013BF8, symSize: 0xD4 }
  - { offsetInCU: 0x1F0E3, offset: 0x3FE17, size: 0x8, addend: 0x0, symName: __ZNSt3__117__compressed_pairIPiRNS_9allocatorIiEEEC1B7v160006IDnS4_EEOT_OT0_, symObjAddr: 0xA5F4, symBinAddr: 0x100013CCC, symSize: 0x3C }
  - { offsetInCU: 0x1F13B, offset: 0x3FE6F, size: 0x8, addend: 0x0, symName: __ZNSt3__114__split_bufferIiRNS_9allocatorIiEEE7__allocB7v160006Ev, symObjAddr: 0xA670, symBinAddr: 0x100013D48, symSize: 0x28 }
  - { offsetInCU: 0x1F161, offset: 0x3FE95, size: 0x8, addend: 0x0, symName: __ZNSt3__114__split_bufferIiRNS_9allocatorIiEEE9__end_capB7v160006Ev, symObjAddr: 0xA698, symBinAddr: 0x100013D70, symSize: 0x28 }
  - { offsetInCU: 0x1F187, offset: 0x3FEBB, size: 0x8, addend: 0x0, symName: __ZNSt3__117__compressed_pairIPiRNS_9allocatorIiEEEC2B7v160006IDnS4_EEOT_OT0_, symObjAddr: 0xA6C0, symBinAddr: 0x100013D98, symSize: 0x48 }
  - { offsetInCU: 0x1F1DF, offset: 0x3FF13, size: 0x8, addend: 0x0, symName: __ZNSt3__122__compressed_pair_elemIPiLi0ELb0EEC2B7v160006IDnvEEOT_, symObjAddr: 0xA708, symBinAddr: 0x100013DE0, symSize: 0x1C }
  - { offsetInCU: 0x1F221, offset: 0x3FF55, size: 0x8, addend: 0x0, symName: __ZNSt3__122__compressed_pair_elemIRNS_9allocatorIiEELi1ELb0EEC2B7v160006IS3_vEEOT_, symObjAddr: 0xA724, symBinAddr: 0x100013DFC, symSize: 0x20 }
  - { offsetInCU: 0x1F263, offset: 0x3FF97, size: 0x8, addend: 0x0, symName: __ZNSt3__19allocatorIiE8allocateB7v160006Em, symObjAddr: 0xA744, symBinAddr: 0x100013E1C, symSize: 0x58 }
  - { offsetInCU: 0x1F297, offset: 0x3FFCB, size: 0x8, addend: 0x0, symName: __ZNSt3__117__compressed_pairIPiRNS_9allocatorIiEEE6secondB7v160006Ev, symObjAddr: 0xA79C, symBinAddr: 0x100013E74, symSize: 0x28 }
  - { offsetInCU: 0x1F2BD, offset: 0x3FFF1, size: 0x8, addend: 0x0, symName: __ZNSt3__122__compressed_pair_elemIRNS_9allocatorIiEELi1ELb0EE5__getB7v160006Ev, symObjAddr: 0xA7C4, symBinAddr: 0x100013E9C, symSize: 0x18 }
  - { offsetInCU: 0x1F2E3, offset: 0x40017, size: 0x8, addend: 0x0, symName: __ZNSt3__117__compressed_pairIPiRNS_9allocatorIiEEE5firstB7v160006Ev, symObjAddr: 0xA7DC, symBinAddr: 0x100013EB4, symSize: 0x24 }
  - { offsetInCU: 0x1F309, offset: 0x4003D, size: 0x8, addend: 0x0, symName: __ZNKSt3__16vectorIiNS_9allocatorIiEEE17__annotate_deleteB7v160006Ev, symObjAddr: 0xA800, symBinAddr: 0x100013ED8, symSize: 0xB8 }
  - { offsetInCU: 0x1F32F, offset: 0x40063, size: 0x8, addend: 0x0, symName: __ZNSt3__116reverse_iteratorIPiEC1B7v160006ES1_, symObjAddr: 0xA930, symBinAddr: 0x100014008, symSize: 0x34 }
  - { offsetInCU: 0x1F367, offset: 0x4009B, size: 0x8, addend: 0x0, symName: __ZNKSt3__116reverse_iteratorIPiE4baseB7v160006Ev, symObjAddr: 0xA964, symBinAddr: 0x10001403C, symSize: 0x18 }
  - { offsetInCU: 0x1F38D, offset: 0x400C1, size: 0x8, addend: 0x0, symName: __ZNKSt3__16vectorIiNS_9allocatorIiEEE14__annotate_newB7v160006Em, symObjAddr: 0xA9B8, symBinAddr: 0x100014090, symSize: 0xAC }
  - { offsetInCU: 0x1F3C2, offset: 0x400F6, size: 0x8, addend: 0x0, symName: __ZNKSt3__16vectorIiNS_9allocatorIiEEE31__annotate_contiguous_containerB7v160006EPKvS5_S5_S5_, symObjAddr: 0xAA74, symBinAddr: 0x10001414C, symSize: 0x20 }
  - { offsetInCU: 0x1F418, offset: 0x4014C, size: 0x8, addend: 0x0, symName: __ZNKSt3__16vectorIiNS_9allocatorIiEEE4dataB7v160006Ev, symObjAddr: 0xAA94, symBinAddr: 0x10001416C, symSize: 0x28 }
  - { offsetInCU: 0x1F461, offset: 0x40195, size: 0x8, addend: 0x0, symName: __ZNKSt3__111__move_loopINS_17_ClassicAlgPolicyEEclB7v160006INS_16reverse_iteratorIPiEES6_S6_EENS_4pairIT_T1_EES8_T0_S9_, symObjAddr: 0xAD74, symBinAddr: 0x10001444C, symSize: 0xA0 }
  - { offsetInCU: 0x1F4CC, offset: 0x40200, size: 0x8, addend: 0x0, symName: __ZNSt3__119__unwrap_range_implINS_16reverse_iteratorIPiEES3_E8__unwrapB7v160006ES3_S3_, symObjAddr: 0xAF60, symBinAddr: 0x100014638, symSize: 0x84 }
  - { offsetInCU: 0x1F502, offset: 0x40236, size: 0x8, addend: 0x0, symName: __ZNSt3__14pairINS_16reverse_iteratorIPiEES3_EC1B7v160006IS3_S3_LPv0EEEOT_OT0_, symObjAddr: 0xAFE4, symBinAddr: 0x1000146BC, symSize: 0x3C }
  - { offsetInCU: 0x1F560, offset: 0x40294, size: 0x8, addend: 0x0, symName: __ZNSt3__14pairINS_16reverse_iteratorIPiEES3_EC2B7v160006IS3_S3_LPv0EEEOT_OT0_, symObjAddr: 0xB020, symBinAddr: 0x1000146F8, symSize: 0x34 }
  - { offsetInCU: 0x1F5BE, offset: 0x402F2, size: 0x8, addend: 0x0, symName: __ZNSt3__18_IterOpsINS_17_ClassicAlgPolicyEE11__iter_moveB7v160006IRNS_16reverse_iteratorIPiEEEENS_9enable_ifIXsr12is_referenceIDTdeclsr3stdE7declvalIRT_EEEEE5valueEDTclsr3stdE4movedeclsr3stdE7declvalISA_EEEEE4typeEOS9_, symObjAddr: 0xB09C, symBinAddr: 0x100014774, symSize: 0x28 }
  - { offsetInCU: 0x1F5EA, offset: 0x4031E, size: 0x8, addend: 0x0, symName: __ZNKSt3__116reverse_iteratorIPiEdeB7v160006Ev, symObjAddr: 0xB0C4, symBinAddr: 0x10001479C, symSize: 0x28 }
  - { offsetInCU: 0x1F61F, offset: 0x40353, size: 0x8, addend: 0x0, symName: __ZNSt3__116reverse_iteratorIPiEppB7v160006Ev, symObjAddr: 0xB0EC, symBinAddr: 0x1000147C4, symSize: 0x20 }
  - { offsetInCU: 0x1F645, offset: 0x40379, size: 0x8, addend: 0x0, symName: __ZNSt3__18_IterOpsINS_17_ClassicAlgPolicyEE25__validate_iter_referenceB7v160006IRNS_16reverse_iteratorIPiEEEEvv, symObjAddr: 0xB10C, symBinAddr: 0x1000147E4, symSize: 0x4 }
  - { offsetInCU: 0x1F663, offset: 0x40397, size: 0x8, addend: 0x0, symName: __ZNSt3__118__unwrap_iter_implINS_16reverse_iteratorIPiEELb0EE8__unwrapB7v160006ES3_, symObjAddr: 0xB110, symBinAddr: 0x1000147E8, symSize: 0x24 }
  - { offsetInCU: 0x1F686, offset: 0x403BA, size: 0x8, addend: 0x0, symName: __ZNSt3__119__unwrap_range_implINS_16reverse_iteratorIPiEES3_E8__rewrapB7v160006ES3_S3_, symObjAddr: 0xB134, symBinAddr: 0x10001480C, symSize: 0x5C }
  - { offsetInCU: 0x1F6B7, offset: 0x403EB, size: 0x8, addend: 0x0, symName: __ZNSt3__118__unwrap_iter_implINS_16reverse_iteratorIPiEELb0EE8__rewrapB7v160006ES3_S3_, symObjAddr: 0xB190, symBinAddr: 0x100014868, symSize: 0x2C }
  - { offsetInCU: 0x1F6E5, offset: 0x40419, size: 0x8, addend: 0x0, symName: __ZNSt3__116reverse_iteratorIPiEC2B7v160006ES1_, symObjAddr: 0xB1BC, symBinAddr: 0x100014894, symSize: 0x28 }
  - { offsetInCU: 0x1F71D, offset: 0x40451, size: 0x8, addend: 0x0, symName: __ZNSt3__114__split_bufferIiRNS_9allocatorIiEEED2Ev, symObjAddr: 0xB1E4, symBinAddr: 0x1000148BC, symSize: 0x8C }
  - { offsetInCU: 0x1F749, offset: 0x4047D, size: 0x8, addend: 0x0, symName: __ZNSt3__114__split_bufferIiRNS_9allocatorIiEEE5clearB7v160006Ev, symObjAddr: 0xB270, symBinAddr: 0x100014948, symSize: 0x28 }
  - { offsetInCU: 0x1F76F, offset: 0x404A3, size: 0x8, addend: 0x0, symName: __ZNSt3__116allocator_traitsINS_9allocatorIiEEE10deallocateB7v160006ERS2_Pim, symObjAddr: 0xB298, symBinAddr: 0x100014970, symSize: 0x34 }
  - { offsetInCU: 0x1F7B1, offset: 0x404E5, size: 0x8, addend: 0x0, symName: __ZNKSt3__114__split_bufferIiRNS_9allocatorIiEEE8capacityB7v160006Ev, symObjAddr: 0xB2CC, symBinAddr: 0x1000149A4, symSize: 0x40 }
  - { offsetInCU: 0x1F7D7, offset: 0x4050B, size: 0x8, addend: 0x0, symName: __ZNSt3__114__split_bufferIiRNS_9allocatorIiEEE17__destruct_at_endB7v160006EPi, symObjAddr: 0xB30C, symBinAddr: 0x1000149E4, symSize: 0x2C }
  - { offsetInCU: 0x1F80B, offset: 0x4053F, size: 0x8, addend: 0x0, symName: __ZNSt3__114__split_bufferIiRNS_9allocatorIiEEE17__destruct_at_endB7v160006EPiNS_17integral_constantIbLb0EEE, symObjAddr: 0xB338, symBinAddr: 0x100014A10, symSize: 0x80 }
  - { offsetInCU: 0x1F84C, offset: 0x40580, size: 0x8, addend: 0x0, symName: __ZNSt3__116allocator_traitsINS_9allocatorIiEEE7destroyB7v160006IivvEEvRS2_PT_, symObjAddr: 0xB3B8, symBinAddr: 0x100014A90, symSize: 0x28 }
  - { offsetInCU: 0x1F887, offset: 0x405BB, size: 0x8, addend: 0x0, symName: __ZNSt3__19allocatorIiE10deallocateB7v160006EPim, symObjAddr: 0xB414, symBinAddr: 0x100014AEC, symSize: 0x40 }
  - { offsetInCU: 0x1F8C9, offset: 0x405FD, size: 0x8, addend: 0x0, symName: __ZNKSt3__114__split_bufferIiRNS_9allocatorIiEEE9__end_capB7v160006Ev, symObjAddr: 0xB454, symBinAddr: 0x100014B2C, symSize: 0x28 }
  - { offsetInCU: 0x1F8EF, offset: 0x40623, size: 0x8, addend: 0x0, symName: __ZNKSt3__117__compressed_pairIPiRNS_9allocatorIiEEE5firstB7v160006Ev, symObjAddr: 0xB47C, symBinAddr: 0x100014B54, symSize: 0x24 }
  - { offsetInCU: 0x1F915, offset: 0x40649, size: 0x8, addend: 0x0, symName: __ZNSt3__16vectorIiNS_9allocatorIiEEEC2ERKS3_, symObjAddr: 0xB4A0, symBinAddr: 0x100014B78, symSize: 0x114 }
  - { offsetInCU: 0x1F974, offset: 0x406A8, size: 0x8, addend: 0x0, symName: __ZNSt3__116allocator_traitsINS_9allocatorIiEEE37select_on_container_copy_constructionB7v160006IS2_vvEES2_RKS2_, symObjAddr: 0xB5B4, symBinAddr: 0x100014C8C, symSize: 0x10 }
  - { offsetInCU: 0x1F9A8, offset: 0x406DC, size: 0x8, addend: 0x0, symName: __ZNSt3__117__compressed_pairIPiNS_9allocatorIiEEEC1B7v160006IDnS3_EEOT_OT0_, symObjAddr: 0xB5C4, symBinAddr: 0x100014C9C, symSize: 0x3C }
  - { offsetInCU: 0x1FA00, offset: 0x40734, size: 0x8, addend: 0x0, symName: __ZNSt3__16vectorIiNS_9allocatorIiEEE16__destroy_vectorC1ERS3_, symObjAddr: 0xB640, symBinAddr: 0x100014D18, symSize: 0x34 }
  - { offsetInCU: 0x1FA39, offset: 0x4076D, size: 0x8, addend: 0x0, symName: __ZNSt3__16vectorIiNS_9allocatorIiEEE11__vallocateB7v160006Em, symObjAddr: 0xB684, symBinAddr: 0x100014D5C, symSize: 0xAC }
  - { offsetInCU: 0x1FA7D, offset: 0x407B1, size: 0x8, addend: 0x0, symName: __ZNSt3__16vectorIiNS_9allocatorIiEEE18__construct_at_endIPiLi0EEEvT_S6_m, symObjAddr: 0xB730, symBinAddr: 0x100014E08, symSize: 0x8C }
  - { offsetInCU: 0x1FAF0, offset: 0x40824, size: 0x8, addend: 0x0, symName: __ZNSt3__128__exception_guard_exceptionsINS_6vectorIiNS_9allocatorIiEEE16__destroy_vectorEE10__completeB7v160006Ev, symObjAddr: 0xB7BC, symBinAddr: 0x100014E94, symSize: 0x1C }
  - { offsetInCU: 0x1FB16, offset: 0x4084A, size: 0x8, addend: 0x0, symName: __ZNSt3__128__exception_guard_exceptionsINS_6vectorIiNS_9allocatorIiEEE16__destroy_vectorEED1B7v160006Ev, symObjAddr: 0xB7D8, symBinAddr: 0x100014EB0, symSize: 0x2C }
  - { offsetInCU: 0x1FB40, offset: 0x40874, size: 0x8, addend: 0x0, symName: __ZNSt3__117__compressed_pairIPiNS_9allocatorIiEEEC2B7v160006IDnS3_EEOT_OT0_, symObjAddr: 0xB804, symBinAddr: 0x100014EDC, symSize: 0x44 }
  - { offsetInCU: 0x1FB98, offset: 0x408CC, size: 0x8, addend: 0x0, symName: __ZNSt3__122__compressed_pair_elemINS_9allocatorIiEELi1ELb1EEC2B7v160006IS2_vEEOT_, symObjAddr: 0xB848, symBinAddr: 0x100014F20, symSize: 0x18 }
  - { offsetInCU: 0x1FBDA, offset: 0x4090E, size: 0x8, addend: 0x0, symName: __ZNSt3__128__exception_guard_exceptionsINS_6vectorIiNS_9allocatorIiEEE16__destroy_vectorEEC1B7v160006ES5_, symObjAddr: 0xB860, symBinAddr: 0x100014F38, symSize: 0x34 }
  - { offsetInCU: 0x1FC12, offset: 0x40946, size: 0x8, addend: 0x0, symName: __ZNSt3__128__exception_guard_exceptionsINS_6vectorIiNS_9allocatorIiEEE16__destroy_vectorEEC2B7v160006ES5_, symObjAddr: 0xB894, symBinAddr: 0x100014F6C, symSize: 0x24 }
  - { offsetInCU: 0x1FC4A, offset: 0x4097E, size: 0x8, addend: 0x0, symName: __ZNSt3__16vectorIiNS_9allocatorIiEEE16__destroy_vectorC2ERS3_, symObjAddr: 0xB8B8, symBinAddr: 0x100014F90, symSize: 0x20 }
  - { offsetInCU: 0x1FC83, offset: 0x409B7, size: 0x8, addend: 0x0, symName: __ZNSt3__129_AllocatorDestroyRangeReverseINS_9allocatorIiEEPiEC1B7v160006ERS2_RS3_S6_, symObjAddr: 0xBA18, symBinAddr: 0x1000150F0, symSize: 0x44 }
  - { offsetInCU: 0x1FCDA, offset: 0x40A0E, size: 0x8, addend: 0x0, symName: __ZNSt3__116allocator_traitsINS_9allocatorIiEEE9constructB7v160006IiJRiEvvEEvRS2_PT_DpOT0_, symObjAddr: 0xBA5C, symBinAddr: 0x100015134, symSize: 0x30 }
  - { offsetInCU: 0x1FD2F, offset: 0x40A63, size: 0x8, addend: 0x0, symName: __ZNSt3__128__exception_guard_exceptionsINS_29_AllocatorDestroyRangeReverseINS_9allocatorIiEEPiEEE10__completeB7v160006Ev, symObjAddr: 0xBA8C, symBinAddr: 0x100015164, symSize: 0x1C }
  - { offsetInCU: 0x1FD55, offset: 0x40A89, size: 0x8, addend: 0x0, symName: __ZNSt3__128__exception_guard_exceptionsINS_29_AllocatorDestroyRangeReverseINS_9allocatorIiEEPiEEED1B7v160006Ev, symObjAddr: 0xBAA8, symBinAddr: 0x100015180, symSize: 0x2C }
  - { offsetInCU: 0x1FD7F, offset: 0x40AB3, size: 0x8, addend: 0x0, symName: __ZNSt3__128__exception_guard_exceptionsINS_29_AllocatorDestroyRangeReverseINS_9allocatorIiEEPiEEEC1B7v160006ES5_, symObjAddr: 0xBAD4, symBinAddr: 0x1000151AC, symSize: 0x34 }
  - { offsetInCU: 0x1FDB8, offset: 0x40AEC, size: 0x8, addend: 0x0, symName: __ZNSt3__128__exception_guard_exceptionsINS_29_AllocatorDestroyRangeReverseINS_9allocatorIiEEPiEEEC2B7v160006ES5_, symObjAddr: 0xBB08, symBinAddr: 0x1000151E0, symSize: 0x30 }
  - { offsetInCU: 0x1FDF1, offset: 0x40B25, size: 0x8, addend: 0x0, symName: __ZNSt3__129_AllocatorDestroyRangeReverseINS_9allocatorIiEEPiEC2B7v160006ERS2_RS3_S6_, symObjAddr: 0xBB38, symBinAddr: 0x100015210, symSize: 0x38 }
  - { offsetInCU: 0x1FE48, offset: 0x40B7C, size: 0x8, addend: 0x0, symName: __ZNSt3__128__exception_guard_exceptionsINS_29_AllocatorDestroyRangeReverseINS_9allocatorIiEEPiEEED2B7v160006Ev, symObjAddr: 0xBB9C, symBinAddr: 0x100015274, symSize: 0x50 }
  - { offsetInCU: 0x1FE72, offset: 0x40BA6, size: 0x8, addend: 0x0, symName: __ZNKSt3__129_AllocatorDestroyRangeReverseINS_9allocatorIiEEPiEclB7v160006Ev, symObjAddr: 0xBBEC, symBinAddr: 0x1000152C4, symSize: 0x68 }
  - { offsetInCU: 0x1FE9D, offset: 0x40BD1, size: 0x8, addend: 0x0, symName: __ZNSt3__119__to_address_helperINS_16reverse_iteratorIPiEEvE6__callB7v160006ERKS3_, symObjAddr: 0xBCE8, symBinAddr: 0x1000153C0, symSize: 0x38 }
  - { offsetInCU: 0x1FEC0, offset: 0x40BF4, size: 0x8, addend: 0x0, symName: __ZNKSt3__116reverse_iteratorIPiEptB7v160006Ev, symObjAddr: 0xBD20, symBinAddr: 0x1000153F8, symSize: 0x2C }
  - { offsetInCU: 0x1FEE6, offset: 0x40C1A, size: 0x8, addend: 0x0, symName: __ZNSt3__128__exception_guard_exceptionsINS_6vectorIiNS_9allocatorIiEEE16__destroy_vectorEED2B7v160006Ev, symObjAddr: 0xBE14, symBinAddr: 0x1000154EC, symSize: 0x50 }
  - { offsetInCU: 0x1FF10, offset: 0x40C44, size: 0x8, addend: 0x0, symName: __ZNSt3__16vectorIiNS_9allocatorIiEEE16__destroy_vectorclB7v160006Ev, symObjAddr: 0xBE64, symBinAddr: 0x10001553C, symSize: 0x9C }
  - { offsetInCU: 0x1FF36, offset: 0x40C6A, size: 0x8, addend: 0x0, symName: __ZNSt3__16vectorIiNS_9allocatorIiEEE7__clearB7v160006Ev, symObjAddr: 0xBF10, symBinAddr: 0x1000155E8, symSize: 0x28 }
  - { offsetInCU: 0x1FF5C, offset: 0x40C90, size: 0x8, addend: 0x0, symName: __ZNSt3__16vectorIiNS_9allocatorIiEEE22__base_destruct_at_endB7v160006EPi, symObjAddr: 0xBF38, symBinAddr: 0x100015610, symSize: 0x8C }
  - { offsetInCU: 0x1FFA0, offset: 0x40CD4, size: 0x8, addend: 0x0, symName: __ZNSt3__118__unwrap_iter_implINS_11__wrap_iterIPiEELb1EE8__unwrapB7v160006ES3_, symObjAddr: 0xC0C8, symBinAddr: 0x1000157A0, symSize: 0x28 }
  - { offsetInCU: 0x1FFCD, offset: 0x40D01, size: 0x8, addend: 0x0, symName: __ZNSt3__119__to_address_helperINS_11__wrap_iterIPiEEvE6__callB7v160006ERKS3_, symObjAddr: 0xC114, symBinAddr: 0x1000157EC, symSize: 0x30 }
  - { offsetInCU: 0x1FFF0, offset: 0x40D24, size: 0x8, addend: 0x0, symName: __ZNSt3__114pointer_traitsINS_11__wrap_iterIPiEEE10to_addressB7v160006ES3_, symObjAddr: 0xC144, symBinAddr: 0x10001581C, symSize: 0x2C }
  - { offsetInCU: 0x20014, offset: 0x40D48, size: 0x8, addend: 0x0, symName: __ZNKSt3__111__wrap_iterIPiE4baseB7v160006Ev, symObjAddr: 0xC170, symBinAddr: 0x100015848, symSize: 0x18 }
  - { offsetInCU: 0x2003A, offset: 0x40D6E, size: 0x8, addend: 0x0, symName: __ZNSt3__16vectorIiNS_9allocatorIiEEE11__make_iterB7v160006EPi, symObjAddr: 0xC188, symBinAddr: 0x100015860, symSize: 0x34 }
  - { offsetInCU: 0x2006F, offset: 0x40DA3, size: 0x8, addend: 0x0, symName: __ZNSt3__111__wrap_iterIPiEC1B7v160006EPKvS1_, symObjAddr: 0xC1BC, symBinAddr: 0x100015894, symSize: 0x3C }
  - { offsetInCU: 0x200B5, offset: 0x40DE9, size: 0x8, addend: 0x0, symName: __ZNSt3__111__wrap_iterIPiEC2B7v160006EPKvS1_, symObjAddr: 0xC1F8, symBinAddr: 0x1000158D0, symSize: 0x24 }
  - { offsetInCU: 0x200FB, offset: 0x40E2F, size: 0x8, addend: 0x0, symName: __ZNSt3__16vectorIiNS_9allocatorIiEEED2B7v160006Ev, symObjAddr: 0xC21C, symBinAddr: 0x1000158F4, symSize: 0x44 }
  - { offsetInCU: 0x20125, offset: 0x40E59, size: 0x8, addend: 0x0, symName: __ZNSt3__14pairIiiEC2B7v160006IRiS3_LPv0EEEOT_OT0_, symObjAddr: 0xC2A4, symBinAddr: 0x100015938, symSize: 0x34 }
  - { offsetInCU: 0x20183, offset: 0x40EB7, size: 0x8, addend: 0x0, symName: __ZNSt3__16vectorIiNS_9allocatorIiEEE22__construct_one_at_endB7v160006IJiEEEvDpOT_, symObjAddr: 0xC2D8, symBinAddr: 0x10001596C, symSize: 0x90 }
  - { offsetInCU: 0x201D2, offset: 0x40F06, size: 0x8, addend: 0x0, symName: __ZNSt3__16vectorIiNS_9allocatorIiEEE21__push_back_slow_pathIiEEvOT_, symObjAddr: 0xC368, symBinAddr: 0x1000159FC, symSize: 0xD8 }
  - { offsetInCU: 0x20230, offset: 0x40F64, size: 0x8, addend: 0x0, symName: __ZNSt3__116allocator_traitsINS_9allocatorIiEEE9constructB7v160006IiJiEvvEEvRS2_PT_DpOT0_, symObjAddr: 0xC440, symBinAddr: 0x100015AD4, symSize: 0x30 }
  - { offsetInCU: 0x20285, offset: 0x40FB9, size: 0x8, addend: 0x0, symName: __ZNKSt3__16vectorIiNS_9allocatorIiEEE11__make_iterB7v160006EPKi, symObjAddr: 0xC64C, symBinAddr: 0x100015B30, symSize: 0x34 }
  - { offsetInCU: 0x202BA, offset: 0x40FEE, size: 0x8, addend: 0x0, symName: __ZNSt3__111__wrap_iterIPKiEC1B7v160006EPKvS2_, symObjAddr: 0xC680, symBinAddr: 0x100015B64, symSize: 0x3C }
  - { offsetInCU: 0x20300, offset: 0x41034, size: 0x8, addend: 0x0, symName: __ZNSt3__111__wrap_iterIPKiEC2B7v160006EPKvS2_, symObjAddr: 0xC6BC, symBinAddr: 0x100015BA0, symSize: 0x24 }
  - { offsetInCU: 0x20346, offset: 0x4107A, size: 0x8, addend: 0x0, symName: __ZNKSt3__111__wrap_iterIPKiE4baseB7v160006Ev, symObjAddr: 0xC728, symBinAddr: 0x100015C0C, symSize: 0x18 }
  - { offsetInCU: 0x2036C, offset: 0x410A0, size: 0x8, addend: 0x0, symName: __ZNSt3__112basic_stringIcNS_11char_traitsIcEENS_9allocatorIcEEE6appendB7v160006ERKS5_, symObjAddr: 0xC740, symBinAddr: 0x100015C24, symSize: 0x4C }
  - { offsetInCU: 0x203A1, offset: 0x410D5, size: 0x8, addend: 0x0, symName: __ZNSt3__14pairIiNS_12basic_stringIcNS_11char_traitsIcEENS_9allocatorIcEEEEEC2B7v160006IRKiRS6_LPv0EEEOT_OT0_, symObjAddr: 0xC930, symBinAddr: 0x100015C70, symSize: 0x48 }
  - { offsetInCU: 0x203FF, offset: 0x41133, size: 0x8, addend: 0x0, symName: __ZNSt3__14pairIiNS_12basic_stringIcNS_11char_traitsIcEENS_9allocatorIcEEEEEC2B7v160006IRmRS6_LPv0EEEOT_OT0_, symObjAddr: 0xC978, symBinAddr: 0x100015CB8, symSize: 0x48 }
  - { offsetInCU: 0x2045D, offset: 0x41191, size: 0x8, addend: 0x0, symName: __ZNKSt3__111__wrap_iterIPK8TimeSlotE4baseB7v160006Ev, symObjAddr: 0xC9C0, symBinAddr: 0x100015D00, symSize: 0x18 }
  - { offsetInCU: 0x2048D, offset: 0x411C1, size: 0x8, addend: 0x0, symName: '__ZZN10Chromosome14catchViolationEvENK3$_1clERK8TimeSlot', symObjAddr: 0xC9D8, symBinAddr: 0x100015D18, symSize: 0x44 }
  - { offsetInCU: 0x204C6, offset: 0x411FA, size: 0x8, addend: 0x0, symName: __ZNSt3__14pairIiNS_12basic_stringIcNS_11char_traitsIcEENS_9allocatorIcEEEEEC2B7v160006IRmS6_LPv0EEEOT_OT0_, symObjAddr: 0xCA1C, symBinAddr: 0x100015D5C, symSize: 0x48 }
  - { offsetInCU: 0x20524, offset: 0x41258, size: 0x8, addend: 0x0, symName: __ZNSt3__14pairIiNS_12basic_stringIcNS_11char_traitsIcEENS_9allocatorIcEEEEEC2B7v160006IRiRS6_LPv0EEEOT_OT0_, symObjAddr: 0xCA64, symBinAddr: 0x100015DA4, symSize: 0x48 }
  - { offsetInCU: 0x20582, offset: 0x412B6, size: 0x8, addend: 0x0, symName: __ZNSt3__14pairIiNS_12basic_stringIcNS_11char_traitsIcEENS_9allocatorIcEEEEEC2B7v160006IiRA22_KcLPv0EEEOT_OT0_, symObjAddr: 0xCAAC, symBinAddr: 0x100015DEC, symSize: 0x48 }
  - { offsetInCU: 0x205E0, offset: 0x41314, size: 0x8, addend: 0x0, symName: __ZNSt3__13mapINS_12basic_stringIcNS_11char_traitsIcEENS_9allocatorIcEEEENS0_IiNS_4pairIS6_S6_EENS_4lessIiEENS4_INS7_IKiS8_EEEEEENS9_IS6_EENS4_INS7_IKS6_SE_EEEEEC2B7v160006Ev, symObjAddr: 0xCAF4, symBinAddr: 0x100015E34, symSize: 0x40 }
  - { offsetInCU: 0x2060A, offset: 0x4133E, size: 0x8, addend: 0x0, symName: __ZNSt3__119__map_value_compareINS_12basic_stringIcNS_11char_traitsIcEENS_9allocatorIcEEEENS_12__value_typeIS6_NS_3mapIiNS_4pairIS6_S6_EENS_4lessIiEENS4_INS9_IKiSA_EEEEEEEENSB_IS6_EELb1EEC1B7v160006ESI_, symObjAddr: 0xCB34, symBinAddr: 0x100015E74, symSize: 0x2C }
  - { offsetInCU: 0x20643, offset: 0x41377, size: 0x8, addend: 0x0, symName: __ZNSt3__16__treeINS_12__value_typeINS_12basic_stringIcNS_11char_traitsIcEENS_9allocatorIcEEEENS_3mapIiNS_4pairIS7_S7_EENS_4lessIiEENS5_INS9_IKiSA_EEEEEEEENS_19__map_value_compareIS7_SH_NSB_IS7_EELb1EEENS5_ISH_EEEC1ERKSK_, symObjAddr: 0xCB60, symBinAddr: 0x100015EA0, symSize: 0x34 }
  - { offsetInCU: 0x2067E, offset: 0x413B2, size: 0x8, addend: 0x0, symName: __ZNSt3__119__map_value_compareINS_12basic_stringIcNS_11char_traitsIcEENS_9allocatorIcEEEENS_12__value_typeIS6_NS_3mapIiNS_4pairIS6_S6_EENS_4lessIiEENS4_INS9_IKiSA_EEEEEEEENSB_IS6_EELb1EEC2B7v160006ESI_, symObjAddr: 0xCB94, symBinAddr: 0x100015ED4, symSize: 0x14 }
  - { offsetInCU: 0x206B7, offset: 0x413EB, size: 0x8, addend: 0x0, symName: __ZNSt3__16__treeINS_12__value_typeINS_12basic_stringIcNS_11char_traitsIcEENS_9allocatorIcEEEENS_3mapIiNS_4pairIS7_S7_EENS_4lessIiEENS5_INS9_IKiSA_EEEEEEEENS_19__map_value_compareIS7_SH_NSB_IS7_EELb1EEENS5_ISH_EEEC2ERKSK_, symObjAddr: 0xCBA8, symBinAddr: 0x100015EE8, symSize: 0x7C }
  - { offsetInCU: 0x206F2, offset: 0x41426, size: 0x8, addend: 0x0, symName: __ZNSt3__117__compressed_pairINS_15__tree_end_nodeIPNS_16__tree_node_baseIPvEEEENS_9allocatorINS_11__tree_nodeINS_12__value_typeINS_12basic_stringIcNS_11char_traitsIcEENS7_IcEEEENS_3mapIiNS_4pairISE_SE_EENS_4lessIiEENS7_INSG_IKiSH_EEEEEEEES3_EEEEEC1B7v160006ILb1EvEEv, symObjAddr: 0xCC24, symBinAddr: 0x100015F64, symSize: 0x2C }
  - { offsetInCU: 0x20727, offset: 0x4145B, size: 0x8, addend: 0x0, symName: __ZNSt3__117__compressed_pairImNS_19__map_value_compareINS_12basic_stringIcNS_11char_traitsIcEENS_9allocatorIcEEEENS_12__value_typeIS7_NS_3mapIiNS_4pairIS7_S7_EENS_4lessIiEENS5_INSA_IKiSB_EEEEEEEENSC_IS7_EELb1EEEEC1B7v160006IiRKSK_EEOT_OT0_, symObjAddr: 0xCC50, symBinAddr: 0x100015F90, symSize: 0x3C }
  - { offsetInCU: 0x2077F, offset: 0x414B3, size: 0x8, addend: 0x0, symName: __ZNSt3__16__treeINS_12__value_typeINS_12basic_stringIcNS_11char_traitsIcEENS_9allocatorIcEEEENS_3mapIiNS_4pairIS7_S7_EENS_4lessIiEENS5_INS9_IKiSA_EEEEEEEENS_19__map_value_compareIS7_SH_NSB_IS7_EELb1EEENS5_ISH_EEE10__end_nodeB7v160006Ev, symObjAddr: 0xCC8C, symBinAddr: 0x100015FCC, symSize: 0x2C }
  - { offsetInCU: 0x207A5, offset: 0x414D9, size: 0x8, addend: 0x0, symName: __ZNSt3__16__treeINS_12__value_typeINS_12basic_stringIcNS_11char_traitsIcEENS_9allocatorIcEEEENS_3mapIiNS_4pairIS7_S7_EENS_4lessIiEENS5_INS9_IKiSA_EEEEEEEENS_19__map_value_compareIS7_SH_NSB_IS7_EELb1EEENS5_ISH_EEE12__begin_nodeB7v160006Ev, symObjAddr: 0xCCB8, symBinAddr: 0x100015FF8, symSize: 0x14 }
  - { offsetInCU: 0x207CB, offset: 0x414FF, size: 0x8, addend: 0x0, symName: __ZNSt3__117__compressed_pairINS_15__tree_end_nodeIPNS_16__tree_node_baseIPvEEEENS_9allocatorINS_11__tree_nodeINS_12__value_typeINS_12basic_stringIcNS_11char_traitsIcEENS7_IcEEEENS_3mapIiNS_4pairISE_SE_EENS_4lessIiEENS7_INSG_IKiSH_EEEEEEEES3_EEEEEC2B7v160006ILb1EvEEv, symObjAddr: 0xCCCC, symBinAddr: 0x10001600C, symSize: 0x34 }
  - { offsetInCU: 0x20800, offset: 0x41534, size: 0x8, addend: 0x0, symName: __ZNSt3__122__compressed_pair_elemINS_15__tree_end_nodeIPNS_16__tree_node_baseIPvEEEELi0ELb0EEC2B7v160006ENS_16__value_init_tagE, symObjAddr: 0xCD00, symBinAddr: 0x100016040, symSize: 0x2C }
  - { offsetInCU: 0x20835, offset: 0x41569, size: 0x8, addend: 0x0, symName: __ZNSt3__122__compressed_pair_elemINS_9allocatorINS_11__tree_nodeINS_12__value_typeINS_12basic_stringIcNS_11char_traitsIcEENS1_IcEEEENS_3mapIiNS_4pairIS8_S8_EENS_4lessIiEENS1_INSA_IKiSB_EEEEEEEEPvEEEELi1ELb1EEC2B7v160006ENS_16__value_init_tagE, symObjAddr: 0xCD2C, symBinAddr: 0x10001606C, symSize: 0x2C }
  - { offsetInCU: 0x2086A, offset: 0x4159E, size: 0x8, addend: 0x0, symName: __ZNSt3__115__tree_end_nodeIPNS_16__tree_node_baseIPvEEEC1B7v160006Ev, symObjAddr: 0xCD58, symBinAddr: 0x100016098, symSize: 0x2C }
  - { offsetInCU: 0x20894, offset: 0x415C8, size: 0x8, addend: 0x0, symName: __ZNSt3__115__tree_end_nodeIPNS_16__tree_node_baseIPvEEEC2B7v160006Ev, symObjAddr: 0xCD84, symBinAddr: 0x1000160C4, symSize: 0x18 }
  - { offsetInCU: 0x208BE, offset: 0x415F2, size: 0x8, addend: 0x0, symName: __ZNSt3__19allocatorINS_11__tree_nodeINS_12__value_typeINS_12basic_stringIcNS_11char_traitsIcEENS0_IcEEEENS_3mapIiNS_4pairIS7_S7_EENS_4lessIiEENS0_INS9_IKiSA_EEEEEEEEPvEEEC2B7v160006Ev, symObjAddr: 0xCD9C, symBinAddr: 0x1000160DC, symSize: 0x2C }
  - { offsetInCU: 0x208E8, offset: 0x4161C, size: 0x8, addend: 0x0, symName: __ZNSt3__116__non_trivial_ifILb1ENS_9allocatorINS_11__tree_nodeINS_12__value_typeINS_12basic_stringIcNS_11char_traitsIcEENS1_IcEEEENS_3mapIiNS_4pairIS8_S8_EENS_4lessIiEENS1_INSA_IKiSB_EEEEEEEEPvEEEEEC2B7v160006Ev, symObjAddr: 0xCDC8, symBinAddr: 0x100016108, symSize: 0x14 }
  - { offsetInCU: 0x20912, offset: 0x41646, size: 0x8, addend: 0x0, symName: __ZNSt3__117__compressed_pairImNS_19__map_value_compareINS_12basic_stringIcNS_11char_traitsIcEENS_9allocatorIcEEEENS_12__value_typeIS7_NS_3mapIiNS_4pairIS7_S7_EENS_4lessIiEENS5_INSA_IKiSB_EEEEEEEENSC_IS7_EELb1EEEEC2B7v160006IiRKSK_EEOT_OT0_, symObjAddr: 0xCDDC, symBinAddr: 0x10001611C, symSize: 0x44 }
  - { offsetInCU: 0x2096A, offset: 0x4169E, size: 0x8, addend: 0x0, symName: __ZNSt3__122__compressed_pair_elemImLi0ELb0EEC2B7v160006IivEEOT_, symObjAddr: 0xCE20, symBinAddr: 0x100016160, symSize: 0x24 }
  - { offsetInCU: 0x209AC, offset: 0x416E0, size: 0x8, addend: 0x0, symName: __ZNSt3__122__compressed_pair_elemINS_19__map_value_compareINS_12basic_stringIcNS_11char_traitsIcEENS_9allocatorIcEEEENS_12__value_typeIS7_NS_3mapIiNS_4pairIS7_S7_EENS_4lessIiEENS5_INSA_IKiSB_EEEEEEEENSC_IS7_EELb1EEELi1ELb1EEC2B7v160006IRKSK_vEEOT_, symObjAddr: 0xCE44, symBinAddr: 0x100016184, symSize: 0x18 }
  - { offsetInCU: 0x209EE, offset: 0x41722, size: 0x8, addend: 0x0, symName: __ZNSt3__114pointer_traitsIPNS_15__tree_end_nodeIPNS_16__tree_node_baseIPvEEEEE10pointer_toB7v160006ERS6_, symObjAddr: 0xCE5C, symBinAddr: 0x10001619C, symSize: 0x14 }
  - { offsetInCU: 0x20A11, offset: 0x41745, size: 0x8, addend: 0x0, symName: __ZNSt3__117__compressed_pairINS_15__tree_end_nodeIPNS_16__tree_node_baseIPvEEEENS_9allocatorINS_11__tree_nodeINS_12__value_typeINS_12basic_stringIcNS_11char_traitsIcEENS7_IcEEEENS_3mapIiNS_4pairISE_SE_EENS_4lessIiEENS7_INSG_IKiSH_EEEEEEEES3_EEEEE5firstB7v160006Ev, symObjAddr: 0xCE70, symBinAddr: 0x1000161B0, symSize: 0x24 }
  - { offsetInCU: 0x20A37, offset: 0x4176B, size: 0x8, addend: 0x0, symName: __ZNSt3__122__compressed_pair_elemINS_15__tree_end_nodeIPNS_16__tree_node_baseIPvEEEELi0ELb0EE5__getB7v160006Ev, symObjAddr: 0xCE94, symBinAddr: 0x1000161D4, symSize: 0x14 }
  - { offsetInCU: 0x20A5D, offset: 0x41791, size: 0x8, addend: 0x0, symName: __ZNSt3__13mapINS_12basic_stringIcNS_11char_traitsIcEENS_9allocatorIcEEEENS0_IiNS_4pairIS6_S6_EENS_4lessIiEENS4_INS7_IKiS8_EEEEEENS9_IS6_EENS4_INS7_IKS6_SE_EEEEED2B7v160006Ev, symObjAddr: 0xCEA8, symBinAddr: 0x1000161E8, symSize: 0x2C }
  - { offsetInCU: 0x20A87, offset: 0x417BB, size: 0x8, addend: 0x0, symName: __ZNSt3__16__treeINS_12__value_typeINS_12basic_stringIcNS_11char_traitsIcEENS_9allocatorIcEEEENS_3mapIiNS_4pairIS7_S7_EENS_4lessIiEENS5_INS9_IKiSA_EEEEEEEENS_19__map_value_compareIS7_SH_NSB_IS7_EELb1EEENS5_ISH_EEED1Ev, symObjAddr: 0xCED4, symBinAddr: 0x100016214, symSize: 0x2C }
  - { offsetInCU: 0x20AB3, offset: 0x417E7, size: 0x8, addend: 0x0, symName: __ZNSt3__16__treeINS_12__value_typeINS_12basic_stringIcNS_11char_traitsIcEENS_9allocatorIcEEEENS_3mapIiNS_4pairIS7_S7_EENS_4lessIiEENS5_INS9_IKiSA_EEEEEEEENS_19__map_value_compareIS7_SH_NSB_IS7_EELb1EEENS5_ISH_EEED2Ev, symObjAddr: 0xCF00, symBinAddr: 0x100016240, symSize: 0x38 }
  - { offsetInCU: 0x20ADF, offset: 0x41813, size: 0x8, addend: 0x0, symName: __ZNSt3__16__treeINS_12__value_typeINS_12basic_stringIcNS_11char_traitsIcEENS_9allocatorIcEEEENS_3mapIiNS_4pairIS7_S7_EENS_4lessIiEENS5_INS9_IKiSA_EEEEEEEENS_19__map_value_compareIS7_SH_NSB_IS7_EELb1EEENS5_ISH_EEE7destroyEPNS_11__tree_nodeISH_PvEE, symObjAddr: 0xCF38, symBinAddr: 0x100016278, symSize: 0xAC }
  - { offsetInCU: 0x20B2B, offset: 0x4185F, size: 0x8, addend: 0x0, symName: __ZNKSt3__16__treeINS_12__value_typeINS_12basic_stringIcNS_11char_traitsIcEENS_9allocatorIcEEEENS_3mapIiNS_4pairIS7_S7_EENS_4lessIiEENS5_INS9_IKiSA_EEEEEEEENS_19__map_value_compareIS7_SH_NSB_IS7_EELb1EEENS5_ISH_EEE6__rootB7v160006Ev, symObjAddr: 0xCFE4, symBinAddr: 0x100016324, symSize: 0x28 }
  - { offsetInCU: 0x20B51, offset: 0x41885, size: 0x8, addend: 0x0, symName: __ZNSt3__16__treeINS_12__value_typeINS_12basic_stringIcNS_11char_traitsIcEENS_9allocatorIcEEEENS_3mapIiNS_4pairIS7_S7_EENS_4lessIiEENS5_INS9_IKiSA_EEEEEEEENS_19__map_value_compareIS7_SH_NSB_IS7_EELb1EEENS5_ISH_EEE12__node_allocB7v160006Ev, symObjAddr: 0xD00C, symBinAddr: 0x10001634C, symSize: 0x28 }
  - { offsetInCU: 0x20B77, offset: 0x418AB, size: 0x8, addend: 0x0, symName: __ZNSt3__116allocator_traitsINS_9allocatorINS_11__tree_nodeINS_12__value_typeINS_12basic_stringIcNS_11char_traitsIcEENS1_IcEEEENS_3mapIiNS_4pairIS8_S8_EENS_4lessIiEENS1_INSA_IKiSB_EEEEEEEEPvEEEEE7destroyB7v160006INSA_IKS8_SH_EEvvEEvRSL_PT_, symObjAddr: 0xD034, symBinAddr: 0x100016374, symSize: 0x28 }
  - { offsetInCU: 0x20BB2, offset: 0x418E6, size: 0x8, addend: 0x0, symName: __ZNSt3__122__tree_key_value_typesINS_12__value_typeINS_12basic_stringIcNS_11char_traitsIcEENS_9allocatorIcEEEENS_3mapIiNS_4pairIS7_S7_EENS_4lessIiEENS5_INS9_IKiSA_EEEEEEEEE9__get_ptrB7v160006ERSH_, symObjAddr: 0xD05C, symBinAddr: 0x10001639C, symSize: 0x24 }
  - { offsetInCU: 0x20BD6, offset: 0x4190A, size: 0x8, addend: 0x0, symName: __ZNSt3__116allocator_traitsINS_9allocatorINS_11__tree_nodeINS_12__value_typeINS_12basic_stringIcNS_11char_traitsIcEENS1_IcEEEENS_3mapIiNS_4pairIS8_S8_EENS_4lessIiEENS1_INSA_IKiSB_EEEEEEEEPvEEEEE10deallocateB7v160006ERSL_PSK_m, symObjAddr: 0xD080, symBinAddr: 0x1000163C0, symSize: 0x34 }
  - { offsetInCU: 0x20C18, offset: 0x4194C, size: 0x8, addend: 0x0, symName: __ZNSt3__117__compressed_pairINS_15__tree_end_nodeIPNS_16__tree_node_baseIPvEEEENS_9allocatorINS_11__tree_nodeINS_12__value_typeINS_12basic_stringIcNS_11char_traitsIcEENS7_IcEEEENS_3mapIiNS_4pairISE_SE_EENS_4lessIiEENS7_INSG_IKiSH_EEEEEEEES3_EEEEE6secondB7v160006Ev, symObjAddr: 0xD0B4, symBinAddr: 0x1000163F4, symSize: 0x24 }
  - { offsetInCU: 0x20C3E, offset: 0x41972, size: 0x8, addend: 0x0, symName: __ZNSt3__122__compressed_pair_elemINS_9allocatorINS_11__tree_nodeINS_12__value_typeINS_12basic_stringIcNS_11char_traitsIcEENS1_IcEEEENS_3mapIiNS_4pairIS8_S8_EENS_4lessIiEENS1_INSA_IKiSB_EEEEEEEEPvEEEELi1ELb1EE5__getB7v160006Ev, symObjAddr: 0xD0D8, symBinAddr: 0x100016418, symSize: 0x14 }
  - { offsetInCU: 0x20C64, offset: 0x41998, size: 0x8, addend: 0x0, symName: __ZNSt3__14pairIKNS_12basic_stringIcNS_11char_traitsIcEENS_9allocatorIcEEEENS_3mapIiNS0_IS6_S6_EENS_4lessIiEENS4_INS0_IKiS9_EEEEEEED1Ev, symObjAddr: 0xD134, symBinAddr: 0x100016474, symSize: 0x2C }
  - { offsetInCU: 0x20C90, offset: 0x419C4, size: 0x8, addend: 0x0, symName: __ZNSt3__14pairIKNS_12basic_stringIcNS_11char_traitsIcEENS_9allocatorIcEEEENS_3mapIiNS0_IS6_S6_EENS_4lessIiEENS4_INS0_IKiS9_EEEEEEED2Ev, symObjAddr: 0xD160, symBinAddr: 0x1000164A0, symSize: 0x38 }
  - { offsetInCU: 0x20CBC, offset: 0x419F0, size: 0x8, addend: 0x0, symName: __ZNSt3__13mapIiNS_4pairINS_12basic_stringIcNS_11char_traitsIcEENS_9allocatorIcEEEES7_EENS_4lessIiEENS5_INS1_IKiS8_EEEEED1B7v160006Ev, symObjAddr: 0xD198, symBinAddr: 0x1000164D8, symSize: 0x2C }
  - { offsetInCU: 0x20CE6, offset: 0x41A1A, size: 0x8, addend: 0x0, symName: __ZNSt3__13mapIiNS_4pairINS_12basic_stringIcNS_11char_traitsIcEENS_9allocatorIcEEEES7_EENS_4lessIiEENS5_INS1_IKiS8_EEEEED2B7v160006Ev, symObjAddr: 0xD1C4, symBinAddr: 0x100016504, symSize: 0x2C }
  - { offsetInCU: 0x20D10, offset: 0x41A44, size: 0x8, addend: 0x0, symName: __ZNSt3__16__treeINS_12__value_typeIiNS_4pairINS_12basic_stringIcNS_11char_traitsIcEENS_9allocatorIcEEEES8_EEEENS_19__map_value_compareIiSA_NS_4lessIiEELb1EEENS6_ISA_EEED1Ev, symObjAddr: 0xD1F0, symBinAddr: 0x100016530, symSize: 0x2C }
  - { offsetInCU: 0x20D3C, offset: 0x41A70, size: 0x8, addend: 0x0, symName: __ZNSt3__16__treeINS_12__value_typeIiNS_4pairINS_12basic_stringIcNS_11char_traitsIcEENS_9allocatorIcEEEES8_EEEENS_19__map_value_compareIiSA_NS_4lessIiEELb1EEENS6_ISA_EEED2Ev, symObjAddr: 0xD21C, symBinAddr: 0x10001655C, symSize: 0x38 }
  - { offsetInCU: 0x20D68, offset: 0x41A9C, size: 0x8, addend: 0x0, symName: __ZNSt3__16__treeINS_12__value_typeIiNS_4pairINS_12basic_stringIcNS_11char_traitsIcEENS_9allocatorIcEEEES8_EEEENS_19__map_value_compareIiSA_NS_4lessIiEELb1EEENS6_ISA_EEE7destroyEPNS_11__tree_nodeISA_PvEE, symObjAddr: 0xD254, symBinAddr: 0x100016594, symSize: 0xAC }
  - { offsetInCU: 0x20DB4, offset: 0x41AE8, size: 0x8, addend: 0x0, symName: __ZNKSt3__16__treeINS_12__value_typeIiNS_4pairINS_12basic_stringIcNS_11char_traitsIcEENS_9allocatorIcEEEES8_EEEENS_19__map_value_compareIiSA_NS_4lessIiEELb1EEENS6_ISA_EEE6__rootB7v160006Ev, symObjAddr: 0xD300, symBinAddr: 0x100016640, symSize: 0x28 }
  - { offsetInCU: 0x20DDA, offset: 0x41B0E, size: 0x8, addend: 0x0, symName: __ZNSt3__16__treeINS_12__value_typeIiNS_4pairINS_12basic_stringIcNS_11char_traitsIcEENS_9allocatorIcEEEES8_EEEENS_19__map_value_compareIiSA_NS_4lessIiEELb1EEENS6_ISA_EEE12__node_allocB7v160006Ev, symObjAddr: 0xD328, symBinAddr: 0x100016668, symSize: 0x28 }
  - { offsetInCU: 0x20E00, offset: 0x41B34, size: 0x8, addend: 0x0, symName: __ZNSt3__116allocator_traitsINS_9allocatorINS_11__tree_nodeINS_12__value_typeIiNS_4pairINS_12basic_stringIcNS_11char_traitsIcEENS1_IcEEEES9_EEEEPvEEEEE7destroyB7v160006INS4_IKiSA_EEvvEEvRSE_PT_, symObjAddr: 0xD350, symBinAddr: 0x100016690, symSize: 0x28 }
  - { offsetInCU: 0x20E3B, offset: 0x41B6F, size: 0x8, addend: 0x0, symName: __ZNSt3__122__tree_key_value_typesINS_12__value_typeIiNS_4pairINS_12basic_stringIcNS_11char_traitsIcEENS_9allocatorIcEEEES8_EEEEE9__get_ptrB7v160006ERSA_, symObjAddr: 0xD378, symBinAddr: 0x1000166B8, symSize: 0x24 }
  - { offsetInCU: 0x20E5F, offset: 0x41B93, size: 0x8, addend: 0x0, symName: __ZNSt3__116allocator_traitsINS_9allocatorINS_11__tree_nodeINS_12__value_typeIiNS_4pairINS_12basic_stringIcNS_11char_traitsIcEENS1_IcEEEES9_EEEEPvEEEEE10deallocateB7v160006ERSE_PSD_m, symObjAddr: 0xD39C, symBinAddr: 0x1000166DC, symSize: 0x34 }
  - { offsetInCU: 0x20EA1, offset: 0x41BD5, size: 0x8, addend: 0x0, symName: __ZNSt3__117__compressed_pairINS_15__tree_end_nodeIPNS_16__tree_node_baseIPvEEEENS_9allocatorINS_11__tree_nodeINS_12__value_typeIiNS_4pairINS_12basic_stringIcNS_11char_traitsIcEENS7_IcEEEESF_EEEES3_EEEEE6secondB7v160006Ev, symObjAddr: 0xD3D0, symBinAddr: 0x100016710, symSize: 0x24 }
  - { offsetInCU: 0x20EC7, offset: 0x41BFB, size: 0x8, addend: 0x0, symName: __ZNSt3__122__compressed_pair_elemINS_9allocatorINS_11__tree_nodeINS_12__value_typeIiNS_4pairINS_12basic_stringIcNS_11char_traitsIcEENS1_IcEEEES9_EEEEPvEEEELi1ELb1EE5__getB7v160006Ev, symObjAddr: 0xD3F4, symBinAddr: 0x100016734, symSize: 0x14 }
  - { offsetInCU: 0x20EED, offset: 0x41C21, size: 0x8, addend: 0x0, symName: __ZNSt3__14pairIKiNS0_INS_12basic_stringIcNS_11char_traitsIcEENS_9allocatorIcEEEES7_EEED1Ev, symObjAddr: 0xD450, symBinAddr: 0x100016790, symSize: 0x2C }
  - { offsetInCU: 0x20F19, offset: 0x41C4D, size: 0x8, addend: 0x0, symName: __ZNSt3__14pairIKiNS0_INS_12basic_stringIcNS_11char_traitsIcEENS_9allocatorIcEEEES7_EEED2Ev, symObjAddr: 0xD47C, symBinAddr: 0x1000167BC, symSize: 0x30 }
  - { offsetInCU: 0x20F45, offset: 0x41C79, size: 0x8, addend: 0x0, symName: __ZNSt3__112__value_typeIiNS_4pairINS_12basic_stringIcNS_11char_traitsIcEENS_9allocatorIcEEEES7_EEE11__get_valueB7v160006Ev, symObjAddr: 0xD4AC, symBinAddr: 0x1000167EC, symSize: 0x24 }
  - { offsetInCU: 0x20F6B, offset: 0x41C9F, size: 0x8, addend: 0x0, symName: __ZNSt3__19allocatorINS_11__tree_nodeINS_12__value_typeIiNS_4pairINS_12basic_stringIcNS_11char_traitsIcEENS0_IcEEEES8_EEEEPvEEE10deallocateB7v160006EPSC_m, symObjAddr: 0xD508, symBinAddr: 0x100016848, symSize: 0x44 }
  - { offsetInCU: 0x20FAD, offset: 0x41CE1, size: 0x8, addend: 0x0, symName: __ZNKSt3__16__treeINS_12__value_typeIiNS_4pairINS_12basic_stringIcNS_11char_traitsIcEENS_9allocatorIcEEEES8_EEEENS_19__map_value_compareIiSA_NS_4lessIiEELb1EEENS6_ISA_EEE10__end_nodeB7v160006Ev, symObjAddr: 0xD54C, symBinAddr: 0x10001688C, symSize: 0x2C }
  - { offsetInCU: 0x20FD3, offset: 0x41D07, size: 0x8, addend: 0x0, symName: __ZNKSt3__117__compressed_pairINS_15__tree_end_nodeIPNS_16__tree_node_baseIPvEEEENS_9allocatorINS_11__tree_nodeINS_12__value_typeIiNS_4pairINS_12basic_stringIcNS_11char_traitsIcEENS7_IcEEEESF_EEEES3_EEEEE5firstB7v160006Ev, symObjAddr: 0xD578, symBinAddr: 0x1000168B8, symSize: 0x24 }
  - { offsetInCU: 0x20FF9, offset: 0x41D2D, size: 0x8, addend: 0x0, symName: __ZNKSt3__122__compressed_pair_elemINS_15__tree_end_nodeIPNS_16__tree_node_baseIPvEEEELi0ELb0EE5__getB7v160006Ev, symObjAddr: 0xD59C, symBinAddr: 0x1000168DC, symSize: 0x14 }
  - { offsetInCU: 0x2101F, offset: 0x41D53, size: 0x8, addend: 0x0, symName: __ZNSt3__112__value_typeINS_12basic_stringIcNS_11char_traitsIcEENS_9allocatorIcEEEENS_3mapIiNS_4pairIS6_S6_EENS_4lessIiEENS4_INS8_IKiS9_EEEEEEE11__get_valueB7v160006Ev, symObjAddr: 0xD5B0, symBinAddr: 0x1000168F0, symSize: 0x24 }
  - { offsetInCU: 0x21045, offset: 0x41D79, size: 0x8, addend: 0x0, symName: __ZNSt3__19allocatorINS_11__tree_nodeINS_12__value_typeINS_12basic_stringIcNS_11char_traitsIcEENS0_IcEEEENS_3mapIiNS_4pairIS7_S7_EENS_4lessIiEENS0_INS9_IKiSA_EEEEEEEEPvEEE10deallocateB7v160006EPSJ_m, symObjAddr: 0xD60C, symBinAddr: 0x10001694C, symSize: 0x44 }
  - { offsetInCU: 0x21087, offset: 0x41DBB, size: 0x8, addend: 0x0, symName: __ZNKSt3__16__treeINS_12__value_typeINS_12basic_stringIcNS_11char_traitsIcEENS_9allocatorIcEEEENS_3mapIiNS_4pairIS7_S7_EENS_4lessIiEENS5_INS9_IKiSA_EEEEEEEENS_19__map_value_compareIS7_SH_NSB_IS7_EELb1EEENS5_ISH_EEE10__end_nodeB7v160006Ev, symObjAddr: 0xD650, symBinAddr: 0x100016990, symSize: 0x2C }
  - { offsetInCU: 0x210AD, offset: 0x41DE1, size: 0x8, addend: 0x0, symName: __ZNKSt3__117__compressed_pairINS_15__tree_end_nodeIPNS_16__tree_node_baseIPvEEEENS_9allocatorINS_11__tree_nodeINS_12__value_typeINS_12basic_stringIcNS_11char_traitsIcEENS7_IcEEEENS_3mapIiNS_4pairISE_SE_EENS_4lessIiEENS7_INSG_IKiSH_EEEEEEEES3_EEEEE5firstB7v160006Ev, symObjAddr: 0xD67C, symBinAddr: 0x1000169BC, symSize: 0x24 }
  - { offsetInCU: 0x210E7, offset: 0x41E1B, size: 0x8, addend: 0x0, symName: __ZNSt3__16__treeINS_12__value_typeINS_12basic_stringIcNS_11char_traitsIcEENS_9allocatorIcEEEENS_3mapIiNS_4pairIS7_S7_EENS_4lessIiEENS5_INS9_IKiSA_EEEEEEEENS_19__map_value_compareIS7_SH_NSB_IS7_EELb1EEENS5_ISH_EEE25__emplace_unique_key_argsIS7_JRKNS_21piecewise_construct_tENS_5tupleIJRKS7_EEENSR_IJEEEEEENS9_INS_15__tree_iteratorISH_PNS_11__tree_nodeISH_PvEElEEbEERKT_DpOT0_, symObjAddr: 0xD6A0, symBinAddr: 0x1000169E0, symSize: 0x100 }
  - { offsetInCU: 0x211BD, offset: 0x41EF1, size: 0x8, addend: 0x0, symName: __ZNKSt3__115__tree_iteratorINS_12__value_typeINS_12basic_stringIcNS_11char_traitsIcEENS_9allocatorIcEEEENS_3mapIiNS_4pairIS7_S7_EENS_4lessIiEENS5_INS9_IKiSA_EEEEEEEEPNS_11__tree_nodeISH_PvEElEptB7v160006Ev, symObjAddr: 0xD7D0, symBinAddr: 0x100016B10, symSize: 0x2C }
  - { offsetInCU: 0x211E3, offset: 0x41F17, size: 0x8, addend: 0x0, symName: __ZNSt3__16__treeINS_12__value_typeINS_12basic_stringIcNS_11char_traitsIcEENS_9allocatorIcEEEENS_3mapIiNS_4pairIS7_S7_EENS_4lessIiEENS5_INS9_IKiSA_EEEEEEEENS_19__map_value_compareIS7_SH_NSB_IS7_EELb1EEENS5_ISH_EEE12__find_equalIS7_EERPNS_16__tree_node_baseIPvEERPNS_15__tree_end_nodeISR_EERKT_, symObjAddr: 0xD7FC, symBinAddr: 0x100016B3C, symSize: 0x184 }
  - { offsetInCU: 0x21250, offset: 0x41F84, size: 0x8, addend: 0x0, symName: __ZNSt3__16__treeINS_12__value_typeINS_12basic_stringIcNS_11char_traitsIcEENS_9allocatorIcEEEENS_3mapIiNS_4pairIS7_S7_EENS_4lessIiEENS5_INS9_IKiSA_EEEEEEEENS_19__map_value_compareIS7_SH_NSB_IS7_EELb1EEENS5_ISH_EEE16__construct_nodeIJRKNS_21piecewise_construct_tENS_5tupleIJRKS7_EEENSR_IJEEEEEENS_10unique_ptrINS_11__tree_nodeISH_PvEENS_22__tree_node_destructorINS5_ISZ_EEEEEEDpOT_, symObjAddr: 0xD980, symBinAddr: 0x100016CC0, symSize: 0x120 }
  - { offsetInCU: 0x212D9, offset: 0x4200D, size: 0x8, addend: 0x0, symName: __ZNSt3__16__treeINS_12__value_typeINS_12basic_stringIcNS_11char_traitsIcEENS_9allocatorIcEEEENS_3mapIiNS_4pairIS7_S7_EENS_4lessIiEENS5_INS9_IKiSA_EEEEEEEENS_19__map_value_compareIS7_SH_NSB_IS7_EELb1EEENS5_ISH_EEE16__insert_node_atEPNS_15__tree_end_nodeIPNS_16__tree_node_baseIPvEEEERSR_SR_, symObjAddr: 0xDAA0, symBinAddr: 0x100016DE0, symSize: 0xCC }
  - { offsetInCU: 0x2132E, offset: 0x42062, size: 0x8, addend: 0x0, symName: __ZNKSt3__110unique_ptrINS_11__tree_nodeINS_12__value_typeINS_12basic_stringIcNS_11char_traitsIcEENS_9allocatorIcEEEENS_3mapIiNS_4pairIS8_S8_EENS_4lessIiEENS6_INSA_IKiSB_EEEEEEEEPvEENS_22__tree_node_destructorINS6_ISK_EEEEE3getB7v160006Ev, symObjAddr: 0xDB6C, symBinAddr: 0x100016EAC, symSize: 0x28 }
  - { offsetInCU: 0x21354, offset: 0x42088, size: 0x8, addend: 0x0, symName: __ZNSt3__110unique_ptrINS_11__tree_nodeINS_12__value_typeINS_12basic_stringIcNS_11char_traitsIcEENS_9allocatorIcEEEENS_3mapIiNS_4pairIS8_S8_EENS_4lessIiEENS6_INSA_IKiSB_EEEEEEEEPvEENS_22__tree_node_destructorINS6_ISK_EEEEE7releaseB7v160006Ev, symObjAddr: 0xDB94, symBinAddr: 0x100016ED4, symSize: 0x44 }
  - { offsetInCU: 0x21389, offset: 0x420BD, size: 0x8, addend: 0x0, symName: __ZNSt3__110unique_ptrINS_11__tree_nodeINS_12__value_typeINS_12basic_stringIcNS_11char_traitsIcEENS_9allocatorIcEEEENS_3mapIiNS_4pairIS8_S8_EENS_4lessIiEENS6_INSA_IKiSB_EEEEEEEEPvEENS_22__tree_node_destructorINS6_ISK_EEEEED1B7v160006Ev, symObjAddr: 0xDBD8, symBinAddr: 0x100016F18, symSize: 0x2C }
  - { offsetInCU: 0x213B3, offset: 0x420E7, size: 0x8, addend: 0x0, symName: __ZNSt3__115__tree_iteratorINS_12__value_typeINS_12basic_stringIcNS_11char_traitsIcEENS_9allocatorIcEEEENS_3mapIiNS_4pairIS7_S7_EENS_4lessIiEENS5_INS9_IKiSA_EEEEEEEEPNS_11__tree_nodeISH_PvEElEC1B7v160006ESL_, symObjAddr: 0xDC04, symBinAddr: 0x100016F44, symSize: 0x34 }
  - { offsetInCU: 0x213F6, offset: 0x4212A, size: 0x8, addend: 0x0, symName: __ZNSt3__14pairINS_15__tree_iteratorINS_12__value_typeINS_12basic_stringIcNS_11char_traitsIcEENS_9allocatorIcEEEENS_3mapIiNS0_IS8_S8_EENS_4lessIiEENS6_INS0_IKiSA_EEEEEEEEPNS_11__tree_nodeISH_PvEElEEbEC1B7v160006ISM_RbLSJ_0EEEOT_OT0_, symObjAddr: 0xDC38, symBinAddr: 0x100016F78, symSize: 0x3C }
  - { offsetInCU: 0x21454, offset: 0x42188, size: 0x8, addend: 0x0, symName: __ZNKSt3__16__treeINS_12__value_typeINS_12basic_stringIcNS_11char_traitsIcEENS_9allocatorIcEEEENS_3mapIiNS_4pairIS7_S7_EENS_4lessIiEENS5_INS9_IKiSA_EEEEEEEENS_19__map_value_compareIS7_SH_NSB_IS7_EELb1EEENS5_ISH_EEE10__root_ptrEv, symObjAddr: 0xDC74, symBinAddr: 0x100016FB4, symSize: 0x24 }
  - { offsetInCU: 0x2147A, offset: 0x421AE, size: 0x8, addend: 0x0, symName: __ZNSt3__16__treeINS_12__value_typeINS_12basic_stringIcNS_11char_traitsIcEENS_9allocatorIcEEEENS_3mapIiNS_4pairIS7_S7_EENS_4lessIiEENS5_INS9_IKiSA_EEEEEEEENS_19__map_value_compareIS7_SH_NSB_IS7_EELb1EEENS5_ISH_EEE10value_compB7v160006Ev, symObjAddr: 0xDC98, symBinAddr: 0x100016FD8, symSize: 0x28 }
  - { offsetInCU: 0x214A0, offset: 0x421D4, size: 0x8, addend: 0x0, symName: __ZNKSt3__119__map_value_compareINS_12basic_stringIcNS_11char_traitsIcEENS_9allocatorIcEEEENS_12__value_typeIS6_NS_3mapIiNS_4pairIS6_S6_EENS_4lessIiEENS4_INS9_IKiSA_EEEEEEEENSB_IS6_EELb1EEclB7v160006ERKS6_RKSH_, symObjAddr: 0xDCC0, symBinAddr: 0x100017000, symSize: 0x50 }
  - { offsetInCU: 0x214E4, offset: 0x42218, size: 0x8, addend: 0x0, symName: __ZNKSt3__119__map_value_compareINS_12basic_stringIcNS_11char_traitsIcEENS_9allocatorIcEEEENS_12__value_typeIS6_NS_3mapIiNS_4pairIS6_S6_EENS_4lessIiEENS4_INS9_IKiSA_EEEEEEEENSB_IS6_EELb1EEclB7v160006ERKSH_RKS6_, symObjAddr: 0xDD10, symBinAddr: 0x100017050, symSize: 0x48 }
  - { offsetInCU: 0x21528, offset: 0x4225C, size: 0x8, addend: 0x0, symName: __ZNSt3__117__compressed_pairImNS_19__map_value_compareINS_12basic_stringIcNS_11char_traitsIcEENS_9allocatorIcEEEENS_12__value_typeIS7_NS_3mapIiNS_4pairIS7_S7_EENS_4lessIiEENS5_INSA_IKiSB_EEEEEEEENSC_IS7_EELb1EEEE6secondB7v160006Ev, symObjAddr: 0xDD58, symBinAddr: 0x100017098, symSize: 0x24 }
  - { offsetInCU: 0x2154E, offset: 0x42282, size: 0x8, addend: 0x0, symName: __ZNSt3__122__compressed_pair_elemINS_19__map_value_compareINS_12basic_stringIcNS_11char_traitsIcEENS_9allocatorIcEEEENS_12__value_typeIS7_NS_3mapIiNS_4pairIS7_S7_EENS_4lessIiEENS5_INSA_IKiSB_EEEEEEEENSC_IS7_EELb1EEELi1ELb1EE5__getB7v160006Ev, symObjAddr: 0xDD7C, symBinAddr: 0x1000170BC, symSize: 0x14 }
  - { offsetInCU: 0x21574, offset: 0x422A8, size: 0x8, addend: 0x0, symName: __ZNKSt3__14lessINS_12basic_stringIcNS_11char_traitsIcEENS_9allocatorIcEEEEEclB7v160006ERKS6_S9_, symObjAddr: 0xDD90, symBinAddr: 0x1000170D0, symSize: 0x50 }
  - { offsetInCU: 0x215B8, offset: 0x422EC, size: 0x8, addend: 0x0, symName: __ZNKSt3__112__value_typeINS_12basic_stringIcNS_11char_traitsIcEENS_9allocatorIcEEEENS_3mapIiNS_4pairIS6_S6_EENS_4lessIiEENS4_INS8_IKiS9_EEEEEEE11__get_valueB7v160006Ev, symObjAddr: 0xDDE0, symBinAddr: 0x100017120, symSize: 0x24 }
  - { offsetInCU: 0x215ED, offset: 0x42321, size: 0x8, addend: 0x0, symName: __ZNSt3__120_CmpUnspecifiedParamC1B7v160006EMS0_i, symObjAddr: 0xDE84, symBinAddr: 0x1000171C4, symSize: 0x34 }
  - { offsetInCU: 0x21622, offset: 0x42356, size: 0x8, addend: 0x0, symName: __ZNKSt3__112basic_stringIcNS_11char_traitsIcEENS_9allocatorIcEEEcvNS_17basic_string_viewIcS2_EEB7v160006Ev, symObjAddr: 0xDF34, symBinAddr: 0x100017274, symSize: 0x50 }
  - { offsetInCU: 0x21648, offset: 0x4237C, size: 0x8, addend: 0x0, symName: __ZNSt3__120_CmpUnspecifiedParamC2B7v160006EMS0_i, symObjAddr: 0xE21C, symBinAddr: 0x1000172C4, symSize: 0x18 }
  - { offsetInCU: 0x2167D, offset: 0x423B1, size: 0x8, addend: 0x0, symName: __ZNSt3__116allocator_traitsINS_9allocatorINS_11__tree_nodeINS_12__value_typeINS_12basic_stringIcNS_11char_traitsIcEENS1_IcEEEENS_3mapIiNS_4pairIS8_S8_EENS_4lessIiEENS1_INSA_IKiSB_EEEEEEEEPvEEEEE8allocateB7v160006ERSL_m, symObjAddr: 0xE26C, symBinAddr: 0x100017314, symSize: 0x2C }
  - { offsetInCU: 0x216B0, offset: 0x423E4, size: 0x8, addend: 0x0, symName: __ZNSt3__122__tree_node_destructorINS_9allocatorINS_11__tree_nodeINS_12__value_typeINS_12basic_stringIcNS_11char_traitsIcEENS1_IcEEEENS_3mapIiNS_4pairIS8_S8_EENS_4lessIiEENS1_INSA_IKiSB_EEEEEEEEPvEEEEEC1B7v160006ERSL_b, symObjAddr: 0xE298, symBinAddr: 0x100017340, symSize: 0x48 }
  - { offsetInCU: 0x216FD, offset: 0x42431, size: 0x8, addend: 0x0, symName: __ZNSt3__110unique_ptrINS_11__tree_nodeINS_12__value_typeINS_12basic_stringIcNS_11char_traitsIcEENS_9allocatorIcEEEENS_3mapIiNS_4pairIS8_S8_EENS_4lessIiEENS6_INSA_IKiSB_EEEEEEEEPvEENS_22__tree_node_destructorINS6_ISK_EEEEEC1B7v160006ILb1EvEEPSK_NS_16__dependent_typeINS_27__unique_ptr_deleter_sfinaeISN_EEXT_EE20__good_rval_ref_typeE, symObjAddr: 0xE2E0, symBinAddr: 0x100017388, symSize: 0x3C }
  - { offsetInCU: 0x2174E, offset: 0x42482, size: 0x8, addend: 0x0, symName: __ZNSt3__116allocator_traitsINS_9allocatorINS_11__tree_nodeINS_12__value_typeINS_12basic_stringIcNS_11char_traitsIcEENS1_IcEEEENS_3mapIiNS_4pairIS8_S8_EENS_4lessIiEENS1_INSA_IKiSB_EEEEEEEEPvEEEEE9constructB7v160006INSA_IKS8_SH_EEJRKNS_21piecewise_construct_tENS_5tupleIJRSO_EEENST_IJEEEEvvEEvRSL_PT_DpOT0_, symObjAddr: 0xE31C, symBinAddr: 0x1000173C4, symSize: 0x40 }
  - { offsetInCU: 0x217CB, offset: 0x424FF, size: 0x8, addend: 0x0, symName: __ZNKSt3__110unique_ptrINS_11__tree_nodeINS_12__value_typeINS_12basic_stringIcNS_11char_traitsIcEENS_9allocatorIcEEEENS_3mapIiNS_4pairIS8_S8_EENS_4lessIiEENS6_INSA_IKiSB_EEEEEEEEPvEENS_22__tree_node_destructorINS6_ISK_EEEEEptB7v160006Ev, symObjAddr: 0xE35C, symBinAddr: 0x100017404, symSize: 0x28 }
  - { offsetInCU: 0x217F1, offset: 0x42525, size: 0x8, addend: 0x0, symName: __ZNSt3__110unique_ptrINS_11__tree_nodeINS_12__value_typeINS_12basic_stringIcNS_11char_traitsIcEENS_9allocatorIcEEEENS_3mapIiNS_4pairIS8_S8_EENS_4lessIiEENS6_INSA_IKiSB_EEEEEEEEPvEENS_22__tree_node_destructorINS6_ISK_EEEEE11get_deleterB7v160006Ev, symObjAddr: 0xE384, symBinAddr: 0x10001742C, symSize: 0x24 }
  - { offsetInCU: 0x21817, offset: 0x4254B, size: 0x8, addend: 0x0, symName: __ZNSt3__19allocatorINS_11__tree_nodeINS_12__value_typeINS_12basic_stringIcNS_11char_traitsIcEENS0_IcEEEENS_3mapIiNS_4pairIS7_S7_EENS_4lessIiEENS0_INS9_IKiSA_EEEEEEEEPvEEE8allocateB7v160006Em, symObjAddr: 0xE3A8, symBinAddr: 0x100017450, symSize: 0x5C }
  - { offsetInCU: 0x21855, offset: 0x42589, size: 0x8, addend: 0x0, symName: __ZNSt3__116allocator_traitsINS_9allocatorINS_11__tree_nodeINS_12__value_typeINS_12basic_stringIcNS_11char_traitsIcEENS1_IcEEEENS_3mapIiNS_4pairIS8_S8_EENS_4lessIiEENS1_INSA_IKiSB_EEEEEEEEPvEEEEE8max_sizeB7v160006ISL_vvEEmRKSL_, symObjAddr: 0xE404, symBinAddr: 0x1000174AC, symSize: 0x28 }
  - { offsetInCU: 0x21881, offset: 0x425B5, size: 0x8, addend: 0x0, symName: __ZNSt3__122__tree_node_destructorINS_9allocatorINS_11__tree_nodeINS_12__value_typeINS_12basic_stringIcNS_11char_traitsIcEENS1_IcEEEENS_3mapIiNS_4pairIS8_S8_EENS_4lessIiEENS1_INSA_IKiSB_EEEEEEEEPvEEEEEC2B7v160006ERSL_b, symObjAddr: 0xE42C, symBinAddr: 0x1000174D4, symSize: 0x38 }
  - { offsetInCU: 0x218C9, offset: 0x425FD, size: 0x8, addend: 0x0, symName: __ZNSt3__110unique_ptrINS_11__tree_nodeINS_12__value_typeINS_12basic_stringIcNS_11char_traitsIcEENS_9allocatorIcEEEENS_3mapIiNS_4pairIS8_S8_EENS_4lessIiEENS6_INSA_IKiSB_EEEEEEEEPvEENS_22__tree_node_destructorINS6_ISK_EEEEEC2B7v160006ILb1EvEEPSK_NS_16__dependent_typeINS_27__unique_ptr_deleter_sfinaeISN_EEXT_EE20__good_rval_ref_typeE, symObjAddr: 0xE464, symBinAddr: 0x10001750C, symSize: 0x48 }
  - { offsetInCU: 0x2191A, offset: 0x4264E, size: 0x8, addend: 0x0, symName: __ZNSt3__117__compressed_pairIPNS_11__tree_nodeINS_12__value_typeINS_12basic_stringIcNS_11char_traitsIcEENS_9allocatorIcEEEENS_3mapIiNS_4pairIS8_S8_EENS_4lessIiEENS6_INSA_IKiSB_EEEEEEEEPvEENS_22__tree_node_destructorINS6_ISK_EEEEEC1B7v160006IRSL_SO_EEOT_OT0_, symObjAddr: 0xE4AC, symBinAddr: 0x100017554, symSize: 0x3C }
  - { offsetInCU: 0x21972, offset: 0x426A6, size: 0x8, addend: 0x0, symName: __ZNSt3__117__compressed_pairIPNS_11__tree_nodeINS_12__value_typeINS_12basic_stringIcNS_11char_traitsIcEENS_9allocatorIcEEEENS_3mapIiNS_4pairIS8_S8_EENS_4lessIiEENS6_INSA_IKiSB_EEEEEEEEPvEENS_22__tree_node_destructorINS6_ISK_EEEEEC2B7v160006IRSL_SO_EEOT_OT0_, symObjAddr: 0xE4E8, symBinAddr: 0x100017590, symSize: 0x48 }
  - { offsetInCU: 0x219CA, offset: 0x426FE, size: 0x8, addend: 0x0, symName: __ZNSt3__122__compressed_pair_elemIPNS_11__tree_nodeINS_12__value_typeINS_12basic_stringIcNS_11char_traitsIcEENS_9allocatorIcEEEENS_3mapIiNS_4pairIS8_S8_EENS_4lessIiEENS6_INSA_IKiSB_EEEEEEEEPvEELi0ELb0EEC2B7v160006IRSL_vEEOT_, symObjAddr: 0xE530, symBinAddr: 0x1000175D8, symSize: 0x24 }
  - { offsetInCU: 0x21A0C, offset: 0x42740, size: 0x8, addend: 0x0, symName: __ZNSt3__122__compressed_pair_elemINS_22__tree_node_destructorINS_9allocatorINS_11__tree_nodeINS_12__value_typeINS_12basic_stringIcNS_11char_traitsIcEENS2_IcEEEENS_3mapIiNS_4pairIS9_S9_EENS_4lessIiEENS2_INSB_IKiSC_EEEEEEEEPvEEEEEELi1ELb0EEC2B7v160006ISN_vEEOT_, symObjAddr: 0xE554, symBinAddr: 0x1000175FC, symSize: 0x24 }
  - { offsetInCU: 0x21A4E, offset: 0x42782, size: 0x8, addend: 0x0, symName: __ZNSt3__14pairIKNS_12basic_stringIcNS_11char_traitsIcEENS_9allocatorIcEEEENS_3mapIiNS0_IS6_S6_EENS_4lessIiEENS4_INS0_IKiS9_EEEEEEEC1B7v160006IJRS7_EJEEENS_21piecewise_construct_tENS_5tupleIJDpT_EEENSK_IJDpT0_EEE, symObjAddr: 0xE5C8, symBinAddr: 0x100017670, symSize: 0x3C }
  - { offsetInCU: 0x21AB5, offset: 0x427E9, size: 0x8, addend: 0x0, symName: __ZNSt3__14pairIKNS_12basic_stringIcNS_11char_traitsIcEENS_9allocatorIcEEEENS_3mapIiNS0_IS6_S6_EENS_4lessIiEENS4_INS0_IKiS9_EEEEEEEC1B7v160006IJRS7_EJEJLm0EEJEEENS_21piecewise_construct_tERNS_5tupleIJDpT_EEERNSK_IJDpT0_EEENS_15__tuple_indicesIJXspT1_EEEENST_IJXspT2_EEEE, symObjAddr: 0xE604, symBinAddr: 0x1000176AC, symSize: 0x3C }
  - { offsetInCU: 0x21B45, offset: 0x42879, size: 0x8, addend: 0x0, symName: __ZNSt3__14pairIKNS_12basic_stringIcNS_11char_traitsIcEENS_9allocatorIcEEEENS_3mapIiNS0_IS6_S6_EENS_4lessIiEENS4_INS0_IKiS9_EEEEEEEC2B7v160006IJRS7_EJEJLm0EEJEEENS_21piecewise_construct_tERNS_5tupleIJDpT_EEERNSK_IJDpT0_EEENS_15__tuple_indicesIJXspT1_EEEENST_IJXspT2_EEEE, symObjAddr: 0xE640, symBinAddr: 0x1000176E8, symSize: 0x50 }
  - { offsetInCU: 0x21BD5, offset: 0x42909, size: 0x8, addend: 0x0, symName: __ZNSt3__13mapIiNS_4pairINS_12basic_stringIcNS_11char_traitsIcEENS_9allocatorIcEEEES7_EENS_4lessIiEENS5_INS1_IKiS8_EEEEEC1B7v160006Ev, symObjAddr: 0xE6B4, symBinAddr: 0x10001775C, symSize: 0x2C }
  - { offsetInCU: 0x21BFF, offset: 0x42933, size: 0x8, addend: 0x0, symName: __ZNSt3__112__tuple_leafILm0ERKNS_12basic_stringIcNS_11char_traitsIcEENS_9allocatorIcEEEELb0EE3getB7v160006Ev, symObjAddr: 0xE6E0, symBinAddr: 0x100017788, symSize: 0x18 }
  - { offsetInCU: 0x21C25, offset: 0x42959, size: 0x8, addend: 0x0, symName: __ZNSt3__13mapIiNS_4pairINS_12basic_stringIcNS_11char_traitsIcEENS_9allocatorIcEEEES7_EENS_4lessIiEENS5_INS1_IKiS8_EEEEEC2B7v160006Ev, symObjAddr: 0xE6F8, symBinAddr: 0x1000177A0, symSize: 0x40 }
  - { offsetInCU: 0x21C4F, offset: 0x42983, size: 0x8, addend: 0x0, symName: __ZNSt3__119__map_value_compareIiNS_12__value_typeIiNS_4pairINS_12basic_stringIcNS_11char_traitsIcEENS_9allocatorIcEEEES8_EEEENS_4lessIiEELb1EEC1B7v160006ESC_, symObjAddr: 0xE738, symBinAddr: 0x1000177E0, symSize: 0x2C }
  - { offsetInCU: 0x21C88, offset: 0x429BC, size: 0x8, addend: 0x0, symName: __ZNSt3__16__treeINS_12__value_typeIiNS_4pairINS_12basic_stringIcNS_11char_traitsIcEENS_9allocatorIcEEEES8_EEEENS_19__map_value_compareIiSA_NS_4lessIiEELb1EEENS6_ISA_EEEC1ERKSE_, symObjAddr: 0xE764, symBinAddr: 0x10001780C, symSize: 0x34 }
  - { offsetInCU: 0x21CC3, offset: 0x429F7, size: 0x8, addend: 0x0, symName: __ZNSt3__119__map_value_compareIiNS_12__value_typeIiNS_4pairINS_12basic_stringIcNS_11char_traitsIcEENS_9allocatorIcEEEES8_EEEENS_4lessIiEELb1EEC2B7v160006ESC_, symObjAddr: 0xE798, symBinAddr: 0x100017840, symSize: 0x14 }
  - { offsetInCU: 0x21CFC, offset: 0x42A30, size: 0x8, addend: 0x0, symName: __ZNSt3__16__treeINS_12__value_typeIiNS_4pairINS_12basic_stringIcNS_11char_traitsIcEENS_9allocatorIcEEEES8_EEEENS_19__map_value_compareIiSA_NS_4lessIiEELb1EEENS6_ISA_EEEC2ERKSE_, symObjAddr: 0xE7AC, symBinAddr: 0x100017854, symSize: 0x7C }
  - { offsetInCU: 0x21D37, offset: 0x42A6B, size: 0x8, addend: 0x0, symName: __ZNSt3__117__compressed_pairINS_15__tree_end_nodeIPNS_16__tree_node_baseIPvEEEENS_9allocatorINS_11__tree_nodeINS_12__value_typeIiNS_4pairINS_12basic_stringIcNS_11char_traitsIcEENS7_IcEEEESF_EEEES3_EEEEEC1B7v160006ILb1EvEEv, symObjAddr: 0xE828, symBinAddr: 0x1000178D0, symSize: 0x2C }
  - { offsetInCU: 0x21D6C, offset: 0x42AA0, size: 0x8, addend: 0x0, symName: __ZNSt3__117__compressed_pairImNS_19__map_value_compareIiNS_12__value_typeIiNS_4pairINS_12basic_stringIcNS_11char_traitsIcEENS_9allocatorIcEEEES9_EEEENS_4lessIiEELb1EEEEC1B7v160006IiRKSE_EEOT_OT0_, symObjAddr: 0xE854, symBinAddr: 0x1000178FC, symSize: 0x3C }
  - { offsetInCU: 0x21DC4, offset: 0x42AF8, size: 0x8, addend: 0x0, symName: __ZNSt3__16__treeINS_12__value_typeIiNS_4pairINS_12basic_stringIcNS_11char_traitsIcEENS_9allocatorIcEEEES8_EEEENS_19__map_value_compareIiSA_NS_4lessIiEELb1EEENS6_ISA_EEE10__end_nodeB7v160006Ev, symObjAddr: 0xE890, symBinAddr: 0x100017938, symSize: 0x2C }
  - { offsetInCU: 0x21DEA, offset: 0x42B1E, size: 0x8, addend: 0x0, symName: __ZNSt3__16__treeINS_12__value_typeIiNS_4pairINS_12basic_stringIcNS_11char_traitsIcEENS_9allocatorIcEEEES8_EEEENS_19__map_value_compareIiSA_NS_4lessIiEELb1EEENS6_ISA_EEE12__begin_nodeB7v160006Ev, symObjAddr: 0xE8BC, symBinAddr: 0x100017964, symSize: 0x14 }
  - { offsetInCU: 0x21E10, offset: 0x42B44, size: 0x8, addend: 0x0, symName: __ZNSt3__117__compressed_pairINS_15__tree_end_nodeIPNS_16__tree_node_baseIPvEEEENS_9allocatorINS_11__tree_nodeINS_12__value_typeIiNS_4pairINS_12basic_stringIcNS_11char_traitsIcEENS7_IcEEEESF_EEEES3_EEEEEC2B7v160006ILb1EvEEv, symObjAddr: 0xE8D0, symBinAddr: 0x100017978, symSize: 0x34 }
  - { offsetInCU: 0x21E45, offset: 0x42B79, size: 0x8, addend: 0x0, symName: __ZNSt3__122__compressed_pair_elemINS_9allocatorINS_11__tree_nodeINS_12__value_typeIiNS_4pairINS_12basic_stringIcNS_11char_traitsIcEENS1_IcEEEES9_EEEEPvEEEELi1ELb1EEC2B7v160006ENS_16__value_init_tagE, symObjAddr: 0xE904, symBinAddr: 0x1000179AC, symSize: 0x2C }
  - { offsetInCU: 0x21E7A, offset: 0x42BAE, size: 0x8, addend: 0x0, symName: __ZNSt3__19allocatorINS_11__tree_nodeINS_12__value_typeIiNS_4pairINS_12basic_stringIcNS_11char_traitsIcEENS0_IcEEEES8_EEEEPvEEEC2B7v160006Ev, symObjAddr: 0xE930, symBinAddr: 0x1000179D8, symSize: 0x2C }
  - { offsetInCU: 0x21EA4, offset: 0x42BD8, size: 0x8, addend: 0x0, symName: __ZNSt3__116__non_trivial_ifILb1ENS_9allocatorINS_11__tree_nodeINS_12__value_typeIiNS_4pairINS_12basic_stringIcNS_11char_traitsIcEENS1_IcEEEES9_EEEEPvEEEEEC2B7v160006Ev, symObjAddr: 0xE95C, symBinAddr: 0x100017A04, symSize: 0x14 }
  - { offsetInCU: 0x21ECE, offset: 0x42C02, size: 0x8, addend: 0x0, symName: __ZNSt3__117__compressed_pairImNS_19__map_value_compareIiNS_12__value_typeIiNS_4pairINS_12basic_stringIcNS_11char_traitsIcEENS_9allocatorIcEEEES9_EEEENS_4lessIiEELb1EEEEC2B7v160006IiRKSE_EEOT_OT0_, symObjAddr: 0xE970, symBinAddr: 0x100017A18, symSize: 0x44 }
  - { offsetInCU: 0x21F26, offset: 0x42C5A, size: 0x8, addend: 0x0, symName: __ZNSt3__122__compressed_pair_elemINS_19__map_value_compareIiNS_12__value_typeIiNS_4pairINS_12basic_stringIcNS_11char_traitsIcEENS_9allocatorIcEEEES9_EEEENS_4lessIiEELb1EEELi1ELb1EEC2B7v160006IRKSE_vEEOT_, symObjAddr: 0xE9B4, symBinAddr: 0x100017A5C, symSize: 0x18 }
  - { offsetInCU: 0x21F68, offset: 0x42C9C, size: 0x8, addend: 0x0, symName: __ZNSt3__117__compressed_pairINS_15__tree_end_nodeIPNS_16__tree_node_baseIPvEEEENS_9allocatorINS_11__tree_nodeINS_12__value_typeIiNS_4pairINS_12basic_stringIcNS_11char_traitsIcEENS7_IcEEEESF_EEEES3_EEEEE5firstB7v160006Ev, symObjAddr: 0xE9CC, symBinAddr: 0x100017A74, symSize: 0x24 }
  - { offsetInCU: 0x21F8E, offset: 0x42CC2, size: 0x8, addend: 0x0, symName: __ZNKSt3__117__compressed_pairIPNS_11__tree_nodeINS_12__value_typeINS_12basic_stringIcNS_11char_traitsIcEENS_9allocatorIcEEEENS_3mapIiNS_4pairIS8_S8_EENS_4lessIiEENS6_INSA_IKiSB_EEEEEEEEPvEENS_22__tree_node_destructorINS6_ISK_EEEEE5firstB7v160006Ev, symObjAddr: 0xE9F0, symBinAddr: 0x100017A98, symSize: 0x24 }
  - { offsetInCU: 0x21FB4, offset: 0x42CE8, size: 0x8, addend: 0x0, symName: __ZNKSt3__122__compressed_pair_elemIPNS_11__tree_nodeINS_12__value_typeINS_12basic_stringIcNS_11char_traitsIcEENS_9allocatorIcEEEENS_3mapIiNS_4pairIS8_S8_EENS_4lessIiEENS6_INSA_IKiSB_EEEEEEEEPvEELi0ELb0EE5__getB7v160006Ev, symObjAddr: 0xEA14, symBinAddr: 0x100017ABC, symSize: 0x14 }
  - { offsetInCU: 0x21FDA, offset: 0x42D0E, size: 0x8, addend: 0x0, symName: __ZNSt3__117__compressed_pairIPNS_11__tree_nodeINS_12__value_typeINS_12basic_stringIcNS_11char_traitsIcEENS_9allocatorIcEEEENS_3mapIiNS_4pairIS8_S8_EENS_4lessIiEENS6_INSA_IKiSB_EEEEEEEEPvEENS_22__tree_node_destructorINS6_ISK_EEEEE6secondB7v160006Ev, symObjAddr: 0xEA28, symBinAddr: 0x100017AD0, symSize: 0x28 }
  - { offsetInCU: 0x22000, offset: 0x42D34, size: 0x8, addend: 0x0, symName: __ZNSt3__122__compressed_pair_elemINS_22__tree_node_destructorINS_9allocatorINS_11__tree_nodeINS_12__value_typeINS_12basic_stringIcNS_11char_traitsIcEENS2_IcEEEENS_3mapIiNS_4pairIS9_S9_EENS_4lessIiEENS2_INSB_IKiSC_EEEEEEEEPvEEEEEELi1ELb0EE5__getB7v160006Ev, symObjAddr: 0xEA50, symBinAddr: 0x100017AF8, symSize: 0x14 }
  - { offsetInCU: 0x22026, offset: 0x42D5A, size: 0x8, addend: 0x0, symName: __ZNSt3__16__treeINS_12__value_typeINS_12basic_stringIcNS_11char_traitsIcEENS_9allocatorIcEEEENS_3mapIiNS_4pairIS7_S7_EENS_4lessIiEENS5_INS9_IKiSA_EEEEEEEENS_19__map_value_compareIS7_SH_NSB_IS7_EELb1EEENS5_ISH_EEE4sizeB7v160006Ev, symObjAddr: 0xED90, symBinAddr: 0x100017E38, symSize: 0x28 }
  - { offsetInCU: 0x2204C, offset: 0x42D80, size: 0x8, addend: 0x0, symName: __ZNKSt3__116__tree_node_baseIPvE15__parent_unsafeB7v160006Ev, symObjAddr: 0xEDB8, symBinAddr: 0x100017E60, symSize: 0x18 }
  - { offsetInCU: 0x22072, offset: 0x42DA6, size: 0x8, addend: 0x0, symName: __ZNSt3__116__tree_node_baseIPvE12__set_parentB7v160006EPS2_, symObjAddr: 0xEFA0, symBinAddr: 0x100018048, symSize: 0x20 }
  - { offsetInCU: 0x220A7, offset: 0x42DDB, size: 0x8, addend: 0x0, symName: __ZNSt3__117__compressed_pairImNS_19__map_value_compareINS_12basic_stringIcNS_11char_traitsIcEENS_9allocatorIcEEEENS_12__value_typeIS7_NS_3mapIiNS_4pairIS7_S7_EENS_4lessIiEENS5_INSA_IKiSB_EEEEEEEENSC_IS7_EELb1EEEE5firstB7v160006Ev, symObjAddr: 0xEFC0, symBinAddr: 0x100018068, symSize: 0x24 }
  - { offsetInCU: 0x220CD, offset: 0x42E01, size: 0x8, addend: 0x0, symName: __ZNSt3__122__compressed_pair_elemImLi0ELb0EE5__getB7v160006Ev, symObjAddr: 0xEFE4, symBinAddr: 0x10001808C, symSize: 0x14 }
  - { offsetInCU: 0x220F3, offset: 0x42E27, size: 0x8, addend: 0x0, symName: __ZNSt3__117__compressed_pairIPNS_11__tree_nodeINS_12__value_typeINS_12basic_stringIcNS_11char_traitsIcEENS_9allocatorIcEEEENS_3mapIiNS_4pairIS8_S8_EENS_4lessIiEENS6_INSA_IKiSB_EEEEEEEEPvEENS_22__tree_node_destructorINS6_ISK_EEEEE5firstB7v160006Ev, symObjAddr: 0xEFF8, symBinAddr: 0x1000180A0, symSize: 0x24 }
  - { offsetInCU: 0x22119, offset: 0x42E4D, size: 0x8, addend: 0x0, symName: __ZNSt3__122__compressed_pair_elemIPNS_11__tree_nodeINS_12__value_typeINS_12basic_stringIcNS_11char_traitsIcEENS_9allocatorIcEEEENS_3mapIiNS_4pairIS8_S8_EENS_4lessIiEENS6_INSA_IKiSB_EEEEEEEEPvEELi0ELb0EE5__getB7v160006Ev, symObjAddr: 0xF01C, symBinAddr: 0x1000180C4, symSize: 0x14 }
  - { offsetInCU: 0x2213F, offset: 0x42E73, size: 0x8, addend: 0x0, symName: __ZNSt3__110unique_ptrINS_11__tree_nodeINS_12__value_typeINS_12basic_stringIcNS_11char_traitsIcEENS_9allocatorIcEEEENS_3mapIiNS_4pairIS8_S8_EENS_4lessIiEENS6_INSA_IKiSB_EEEEEEEEPvEENS_22__tree_node_destructorINS6_ISK_EEEEED2B7v160006Ev, symObjAddr: 0xF030, symBinAddr: 0x1000180D8, symSize: 0x30 }
  - { offsetInCU: 0x22169, offset: 0x42E9D, size: 0x8, addend: 0x0, symName: __ZNSt3__110unique_ptrINS_11__tree_nodeINS_12__value_typeINS_12basic_stringIcNS_11char_traitsIcEENS_9allocatorIcEEEENS_3mapIiNS_4pairIS8_S8_EENS_4lessIiEENS6_INSA_IKiSB_EEEEEEEEPvEENS_22__tree_node_destructorINS6_ISK_EEEEE5resetB7v160006EPSK_, symObjAddr: 0xF060, symBinAddr: 0x100018108, symSize: 0x78 }
  - { offsetInCU: 0x221AD, offset: 0x42EE1, size: 0x8, addend: 0x0, symName: __ZNSt3__122__tree_node_destructorINS_9allocatorINS_11__tree_nodeINS_12__value_typeINS_12basic_stringIcNS_11char_traitsIcEENS1_IcEEEENS_3mapIiNS_4pairIS8_S8_EENS_4lessIiEENS1_INSA_IKiSB_EEEEEEEEPvEEEEEclB7v160006EPSK_, symObjAddr: 0xF0D8, symBinAddr: 0x100018180, symSize: 0x98 }
  - { offsetInCU: 0x221E2, offset: 0x42F16, size: 0x8, addend: 0x0, symName: __ZNSt3__115__tree_iteratorINS_12__value_typeINS_12basic_stringIcNS_11char_traitsIcEENS_9allocatorIcEEEENS_3mapIiNS_4pairIS7_S7_EENS_4lessIiEENS5_INS9_IKiSA_EEEEEEEEPNS_11__tree_nodeISH_PvEElEC2B7v160006ESL_, symObjAddr: 0xF170, symBinAddr: 0x100018218, symSize: 0x20 }
  - { offsetInCU: 0x2221B, offset: 0x42F4F, size: 0x8, addend: 0x0, symName: __ZNSt3__14pairINS_15__tree_iteratorINS_12__value_typeINS_12basic_stringIcNS_11char_traitsIcEENS_9allocatorIcEEEENS_3mapIiNS0_IS8_S8_EENS_4lessIiEENS6_INS0_IKiSA_EEEEEEEEPNS_11__tree_nodeISH_PvEElEEbEC2B7v160006ISM_RbLSJ_0EEEOT_OT0_, symObjAddr: 0xF190, symBinAddr: 0x100018238, symSize: 0x38 }
  - { offsetInCU: 0x22279, offset: 0x42FAD, size: 0x8, addend: 0x0, symName: __ZNSt3__15tupleIJRKNS_12basic_stringIcNS_11char_traitsIcEENS_9allocatorIcEEEEEEC1B7v160006INS_4_AndELi0EEES8_, symObjAddr: 0xF1C8, symBinAddr: 0x100018270, symSize: 0x34 }
  - { offsetInCU: 0x222C2, offset: 0x42FF6, size: 0x8, addend: 0x0, symName: __ZNSt3__15tupleIJRKNS_12basic_stringIcNS_11char_traitsIcEENS_9allocatorIcEEEEEEC2B7v160006INS_4_AndELi0EEES8_, symObjAddr: 0xF1FC, symBinAddr: 0x1000182A4, symSize: 0x34 }
  - { offsetInCU: 0x2230B, offset: 0x4303F, size: 0x8, addend: 0x0, symName: __ZNSt3__112__tuple_implINS_15__tuple_indicesIJLm0EEEEJRKNS_12basic_stringIcNS_11char_traitsIcEENS_9allocatorIcEEEEEEC1B7v160006IJLm0EEJSA_EJEJEJSA_EEENS1_IJXspT_EEEENS_13__tuple_typesIJDpT0_EEENS1_IJXspT1_EEEENSE_IJDpT2_EEEDpOT3_, symObjAddr: 0xF230, symBinAddr: 0x1000182D8, symSize: 0x34 }
  - { offsetInCU: 0x223A0, offset: 0x430D4, size: 0x8, addend: 0x0, symName: __ZNSt3__112__tuple_implINS_15__tuple_indicesIJLm0EEEEJRKNS_12basic_stringIcNS_11char_traitsIcEENS_9allocatorIcEEEEEEC2B7v160006IJLm0EEJSA_EJEJEJSA_EEENS1_IJXspT_EEEENS_13__tuple_typesIJDpT0_EEENS1_IJXspT1_EEEENSE_IJDpT2_EEEDpOT3_, symObjAddr: 0xF264, symBinAddr: 0x10001830C, symSize: 0x34 }
  - { offsetInCU: 0x22435, offset: 0x43169, size: 0x8, addend: 0x0, symName: __ZNSt3__112__tuple_leafILm0ERKNS_12basic_stringIcNS_11char_traitsIcEENS_9allocatorIcEEEELb0EEC2B7v160006IS8_vEEOT_, symObjAddr: 0xF298, symBinAddr: 0x100018340, symSize: 0x20 }
  - { offsetInCU: 0x22478, offset: 0x431AC, size: 0x8, addend: 0x0, symName: __ZNSt3__114pointer_traitsIPNS_12__value_typeINS_12basic_stringIcNS_11char_traitsIcEENS_9allocatorIcEEEENS_3mapIiNS_4pairIS7_S7_EENS_4lessIiEENS5_INS9_IKiSA_EEEEEEEEE10pointer_toB7v160006ERSH_, symObjAddr: 0xF2B8, symBinAddr: 0x100018360, symSize: 0x14 }
  - { offsetInCU: 0x2249B, offset: 0x431CF, size: 0x8, addend: 0x0, symName: __ZNKSt3__115__tree_iteratorINS_12__value_typeINS_12basic_stringIcNS_11char_traitsIcEENS_9allocatorIcEEEENS_3mapIiNS_4pairIS7_S7_EENS_4lessIiEENS5_INS9_IKiSA_EEEEEEEEPNS_11__tree_nodeISH_PvEElE8__get_npB7v160006Ev, symObjAddr: 0xF2CC, symBinAddr: 0x100018374, symSize: 0x18 }
  - { offsetInCU: 0x224C1, offset: 0x431F5, size: 0x8, addend: 0x0, symName: __ZNSt3__16__treeINS_12__value_typeIiNS_4pairINS_12basic_stringIcNS_11char_traitsIcEENS_9allocatorIcEEEES8_EEEENS_19__map_value_compareIiSA_NS_4lessIiEELb1EEENS6_ISA_EEE25__emplace_unique_key_argsIiJRKNS_21piecewise_construct_tENS_5tupleIJRKiEEENSL_IJEEEEEENS2_INS_15__tree_iteratorISA_PNS_11__tree_nodeISA_PvEElEEbEERKT_DpOT0_, symObjAddr: 0xF2E4, symBinAddr: 0x10001838C, symSize: 0x100 }
  - { offsetInCU: 0x22597, offset: 0x432CB, size: 0x8, addend: 0x0, symName: __ZNKSt3__115__tree_iteratorINS_12__value_typeIiNS_4pairINS_12basic_stringIcNS_11char_traitsIcEENS_9allocatorIcEEEES8_EEEEPNS_11__tree_nodeISA_PvEElEptB7v160006Ev, symObjAddr: 0xF410, symBinAddr: 0x1000184B8, symSize: 0x2C }
  - { offsetInCU: 0x225BD, offset: 0x432F1, size: 0x8, addend: 0x0, symName: __ZNSt3__16__treeINS_12__value_typeIiNS_4pairINS_12basic_stringIcNS_11char_traitsIcEENS_9allocatorIcEEEES8_EEEENS_19__map_value_compareIiSA_NS_4lessIiEELb1EEENS6_ISA_EEE12__find_equalIiEERPNS_16__tree_node_baseIPvEERPNS_15__tree_end_nodeISL_EERKT_, symObjAddr: 0xF43C, symBinAddr: 0x1000184E4, symSize: 0x184 }
  - { offsetInCU: 0x2262A, offset: 0x4335E, size: 0x8, addend: 0x0, symName: __ZNSt3__16__treeINS_12__value_typeIiNS_4pairINS_12basic_stringIcNS_11char_traitsIcEENS_9allocatorIcEEEES8_EEEENS_19__map_value_compareIiSA_NS_4lessIiEELb1EEENS6_ISA_EEE16__construct_nodeIJRKNS_21piecewise_construct_tENS_5tupleIJRKiEEENSL_IJEEEEEENS_10unique_ptrINS_11__tree_nodeISA_PvEENS_22__tree_node_destructorINS6_IST_EEEEEEDpOT_, symObjAddr: 0xF5C0, symBinAddr: 0x100018668, symSize: 0x120 }
  - { offsetInCU: 0x226B3, offset: 0x433E7, size: 0x8, addend: 0x0, symName: __ZNSt3__16__treeINS_12__value_typeIiNS_4pairINS_12basic_stringIcNS_11char_traitsIcEENS_9allocatorIcEEEES8_EEEENS_19__map_value_compareIiSA_NS_4lessIiEELb1EEENS6_ISA_EEE16__insert_node_atEPNS_15__tree_end_nodeIPNS_16__tree_node_baseIPvEEEERSL_SL_, symObjAddr: 0xF6E0, symBinAddr: 0x100018788, symSize: 0xCC }
  - { offsetInCU: 0x22708, offset: 0x4343C, size: 0x8, addend: 0x0, symName: __ZNKSt3__110unique_ptrINS_11__tree_nodeINS_12__value_typeIiNS_4pairINS_12basic_stringIcNS_11char_traitsIcEENS_9allocatorIcEEEES9_EEEEPvEENS_22__tree_node_destructorINS7_ISD_EEEEE3getB7v160006Ev, symObjAddr: 0xF7AC, symBinAddr: 0x100018854, symSize: 0x28 }
  - { offsetInCU: 0x2272E, offset: 0x43462, size: 0x8, addend: 0x0, symName: __ZNSt3__110unique_ptrINS_11__tree_nodeINS_12__value_typeIiNS_4pairINS_12basic_stringIcNS_11char_traitsIcEENS_9allocatorIcEEEES9_EEEEPvEENS_22__tree_node_destructorINS7_ISD_EEEEE7releaseB7v160006Ev, symObjAddr: 0xF7D4, symBinAddr: 0x10001887C, symSize: 0x44 }
  - { offsetInCU: 0x22763, offset: 0x43497, size: 0x8, addend: 0x0, symName: __ZNSt3__110unique_ptrINS_11__tree_nodeINS_12__value_typeIiNS_4pairINS_12basic_stringIcNS_11char_traitsIcEENS_9allocatorIcEEEES9_EEEEPvEENS_22__tree_node_destructorINS7_ISD_EEEEED1B7v160006Ev, symObjAddr: 0xF818, symBinAddr: 0x1000188C0, symSize: 0x2C }
  - { offsetInCU: 0x2278D, offset: 0x434C1, size: 0x8, addend: 0x0, symName: __ZNSt3__115__tree_iteratorINS_12__value_typeIiNS_4pairINS_12basic_stringIcNS_11char_traitsIcEENS_9allocatorIcEEEES8_EEEEPNS_11__tree_nodeISA_PvEElEC1B7v160006ESE_, symObjAddr: 0xF844, symBinAddr: 0x1000188EC, symSize: 0x34 }
  - { offsetInCU: 0x227CB, offset: 0x434FF, size: 0x8, addend: 0x0, symName: __ZNSt3__14pairINS_15__tree_iteratorINS_12__value_typeIiNS0_INS_12basic_stringIcNS_11char_traitsIcEENS_9allocatorIcEEEES8_EEEEPNS_11__tree_nodeISA_PvEElEEbEC1B7v160006ISF_RbLSC_0EEEOT_OT0_, symObjAddr: 0xF878, symBinAddr: 0x100018920, symSize: 0x3C }
  - { offsetInCU: 0x22829, offset: 0x4355D, size: 0x8, addend: 0x0, symName: __ZNKSt3__16__treeINS_12__value_typeIiNS_4pairINS_12basic_stringIcNS_11char_traitsIcEENS_9allocatorIcEEEES8_EEEENS_19__map_value_compareIiSA_NS_4lessIiEELb1EEENS6_ISA_EEE10__root_ptrEv, symObjAddr: 0xF8B4, symBinAddr: 0x10001895C, symSize: 0x24 }
  - { offsetInCU: 0x2284F, offset: 0x43583, size: 0x8, addend: 0x0, symName: __ZNSt3__16__treeINS_12__value_typeIiNS_4pairINS_12basic_stringIcNS_11char_traitsIcEENS_9allocatorIcEEEES8_EEEENS_19__map_value_compareIiSA_NS_4lessIiEELb1EEENS6_ISA_EEE10value_compB7v160006Ev, symObjAddr: 0xF8D8, symBinAddr: 0x100018980, symSize: 0x28 }
  - { offsetInCU: 0x22875, offset: 0x435A9, size: 0x8, addend: 0x0, symName: __ZNKSt3__119__map_value_compareIiNS_12__value_typeIiNS_4pairINS_12basic_stringIcNS_11char_traitsIcEENS_9allocatorIcEEEES8_EEEENS_4lessIiEELb1EEclB7v160006ERKiRKSA_, symObjAddr: 0xF900, symBinAddr: 0x1000189A8, symSize: 0x50 }
  - { offsetInCU: 0x228B9, offset: 0x435ED, size: 0x8, addend: 0x0, symName: __ZNKSt3__119__map_value_compareIiNS_12__value_typeIiNS_4pairINS_12basic_stringIcNS_11char_traitsIcEENS_9allocatorIcEEEES8_EEEENS_4lessIiEELb1EEclB7v160006ERKSA_RKi, symObjAddr: 0xF950, symBinAddr: 0x1000189F8, symSize: 0x48 }
  - { offsetInCU: 0x228FD, offset: 0x43631, size: 0x8, addend: 0x0, symName: __ZNSt3__117__compressed_pairImNS_19__map_value_compareIiNS_12__value_typeIiNS_4pairINS_12basic_stringIcNS_11char_traitsIcEENS_9allocatorIcEEEES9_EEEENS_4lessIiEELb1EEEE6secondB7v160006Ev, symObjAddr: 0xF998, symBinAddr: 0x100018A40, symSize: 0x24 }
  - { offsetInCU: 0x22923, offset: 0x43657, size: 0x8, addend: 0x0, symName: __ZNSt3__122__compressed_pair_elemINS_19__map_value_compareIiNS_12__value_typeIiNS_4pairINS_12basic_stringIcNS_11char_traitsIcEENS_9allocatorIcEEEES9_EEEENS_4lessIiEELb1EEELi1ELb1EE5__getB7v160006Ev, symObjAddr: 0xF9BC, symBinAddr: 0x100018A64, symSize: 0x14 }
  - { offsetInCU: 0x22949, offset: 0x4367D, size: 0x8, addend: 0x0, symName: __ZNKSt3__14lessIiEclB7v160006ERKiS3_, symObjAddr: 0xF9D0, symBinAddr: 0x100018A78, symSize: 0x34 }
  - { offsetInCU: 0x2298D, offset: 0x436C1, size: 0x8, addend: 0x0, symName: __ZNKSt3__112__value_typeIiNS_4pairINS_12basic_stringIcNS_11char_traitsIcEENS_9allocatorIcEEEES7_EEE11__get_valueB7v160006Ev, symObjAddr: 0xFA04, symBinAddr: 0x100018AAC, symSize: 0x24 }
  - { offsetInCU: 0x229B3, offset: 0x436E7, size: 0x8, addend: 0x0, symName: __ZNSt3__116allocator_traitsINS_9allocatorINS_11__tree_nodeINS_12__value_typeIiNS_4pairINS_12basic_stringIcNS_11char_traitsIcEENS1_IcEEEES9_EEEEPvEEEEE8allocateB7v160006ERSE_m, symObjAddr: 0xFA60, symBinAddr: 0x100018B08, symSize: 0x2C }
  - { offsetInCU: 0x229E6, offset: 0x4371A, size: 0x8, addend: 0x0, symName: __ZNSt3__122__tree_node_destructorINS_9allocatorINS_11__tree_nodeINS_12__value_typeIiNS_4pairINS_12basic_stringIcNS_11char_traitsIcEENS1_IcEEEES9_EEEEPvEEEEEC1B7v160006ERSE_b, symObjAddr: 0xFA8C, symBinAddr: 0x100018B34, symSize: 0x48 }
  - { offsetInCU: 0x22A33, offset: 0x43767, size: 0x8, addend: 0x0, symName: __ZNSt3__110unique_ptrINS_11__tree_nodeINS_12__value_typeIiNS_4pairINS_12basic_stringIcNS_11char_traitsIcEENS_9allocatorIcEEEES9_EEEEPvEENS_22__tree_node_destructorINS7_ISD_EEEEEC1B7v160006ILb1EvEEPSD_NS_16__dependent_typeINS_27__unique_ptr_deleter_sfinaeISG_EEXT_EE20__good_rval_ref_typeE, symObjAddr: 0xFAD4, symBinAddr: 0x100018B7C, symSize: 0x3C }
  - { offsetInCU: 0x22A84, offset: 0x437B8, size: 0x8, addend: 0x0, symName: __ZNSt3__116allocator_traitsINS_9allocatorINS_11__tree_nodeINS_12__value_typeIiNS_4pairINS_12basic_stringIcNS_11char_traitsIcEENS1_IcEEEES9_EEEEPvEEEEE9constructB7v160006INS4_IKiSA_EEJRKNS_21piecewise_construct_tENS_5tupleIJRSH_EEENSM_IJEEEEvvEEvRSE_PT_DpOT0_, symObjAddr: 0xFB10, symBinAddr: 0x100018BB8, symSize: 0x40 }
  - { offsetInCU: 0x22B01, offset: 0x43835, size: 0x8, addend: 0x0, symName: __ZNKSt3__110unique_ptrINS_11__tree_nodeINS_12__value_typeIiNS_4pairINS_12basic_stringIcNS_11char_traitsIcEENS_9allocatorIcEEEES9_EEEEPvEENS_22__tree_node_destructorINS7_ISD_EEEEEptB7v160006Ev, symObjAddr: 0xFB50, symBinAddr: 0x100018BF8, symSize: 0x28 }
  - { offsetInCU: 0x22B27, offset: 0x4385B, size: 0x8, addend: 0x0, symName: __ZNSt3__110unique_ptrINS_11__tree_nodeINS_12__value_typeIiNS_4pairINS_12basic_stringIcNS_11char_traitsIcEENS_9allocatorIcEEEES9_EEEEPvEENS_22__tree_node_destructorINS7_ISD_EEEEE11get_deleterB7v160006Ev, symObjAddr: 0xFB78, symBinAddr: 0x100018C20, symSize: 0x24 }
  - { offsetInCU: 0x22B4D, offset: 0x43881, size: 0x8, addend: 0x0, symName: __ZNSt3__19allocatorINS_11__tree_nodeINS_12__value_typeIiNS_4pairINS_12basic_stringIcNS_11char_traitsIcEENS0_IcEEEES8_EEEEPvEEE8allocateB7v160006Em, symObjAddr: 0xFB9C, symBinAddr: 0x100018C44, symSize: 0x5C }
  - { offsetInCU: 0x22B8B, offset: 0x438BF, size: 0x8, addend: 0x0, symName: __ZNSt3__116allocator_traitsINS_9allocatorINS_11__tree_nodeINS_12__value_typeIiNS_4pairINS_12basic_stringIcNS_11char_traitsIcEENS1_IcEEEES9_EEEEPvEEEEE8max_sizeB7v160006ISE_vvEEmRKSE_, symObjAddr: 0xFBF8, symBinAddr: 0x100018CA0, symSize: 0x28 }
  - { offsetInCU: 0x22BB7, offset: 0x438EB, size: 0x8, addend: 0x0, symName: __ZNSt3__122__tree_node_destructorINS_9allocatorINS_11__tree_nodeINS_12__value_typeIiNS_4pairINS_12basic_stringIcNS_11char_traitsIcEENS1_IcEEEES9_EEEEPvEEEEEC2B7v160006ERSE_b, symObjAddr: 0xFC20, symBinAddr: 0x100018CC8, symSize: 0x38 }
  - { offsetInCU: 0x22BFF, offset: 0x43933, size: 0x8, addend: 0x0, symName: __ZNSt3__110unique_ptrINS_11__tree_nodeINS_12__value_typeIiNS_4pairINS_12basic_stringIcNS_11char_traitsIcEENS_9allocatorIcEEEES9_EEEEPvEENS_22__tree_node_destructorINS7_ISD_EEEEEC2B7v160006ILb1EvEEPSD_NS_16__dependent_typeINS_27__unique_ptr_deleter_sfinaeISG_EEXT_EE20__good_rval_ref_typeE, symObjAddr: 0xFC58, symBinAddr: 0x100018D00, symSize: 0x48 }
  - { offsetInCU: 0x22C50, offset: 0x43984, size: 0x8, addend: 0x0, symName: __ZNSt3__117__compressed_pairIPNS_11__tree_nodeINS_12__value_typeIiNS_4pairINS_12basic_stringIcNS_11char_traitsIcEENS_9allocatorIcEEEES9_EEEEPvEENS_22__tree_node_destructorINS7_ISD_EEEEEC1B7v160006IRSE_SH_EEOT_OT0_, symObjAddr: 0xFCA0, symBinAddr: 0x100018D48, symSize: 0x3C }
  - { offsetInCU: 0x22CA8, offset: 0x439DC, size: 0x8, addend: 0x0, symName: __ZNSt3__117__compressed_pairIPNS_11__tree_nodeINS_12__value_typeIiNS_4pairINS_12basic_stringIcNS_11char_traitsIcEENS_9allocatorIcEEEES9_EEEEPvEENS_22__tree_node_destructorINS7_ISD_EEEEEC2B7v160006IRSE_SH_EEOT_OT0_, symObjAddr: 0xFCDC, symBinAddr: 0x100018D84, symSize: 0x48 }
  - { offsetInCU: 0x22D00, offset: 0x43A34, size: 0x8, addend: 0x0, symName: __ZNSt3__122__compressed_pair_elemIPNS_11__tree_nodeINS_12__value_typeIiNS_4pairINS_12basic_stringIcNS_11char_traitsIcEENS_9allocatorIcEEEES9_EEEEPvEELi0ELb0EEC2B7v160006IRSE_vEEOT_, symObjAddr: 0xFD24, symBinAddr: 0x100018DCC, symSize: 0x24 }
  - { offsetInCU: 0x22D42, offset: 0x43A76, size: 0x8, addend: 0x0, symName: __ZNSt3__122__compressed_pair_elemINS_22__tree_node_destructorINS_9allocatorINS_11__tree_nodeINS_12__value_typeIiNS_4pairINS_12basic_stringIcNS_11char_traitsIcEENS2_IcEEEESA_EEEEPvEEEEEELi1ELb0EEC2B7v160006ISG_vEEOT_, symObjAddr: 0xFD48, symBinAddr: 0x100018DF0, symSize: 0x24 }
  - { offsetInCU: 0x22D84, offset: 0x43AB8, size: 0x8, addend: 0x0, symName: __ZNSt3__14pairIKiNS0_INS_12basic_stringIcNS_11char_traitsIcEENS_9allocatorIcEEEES7_EEEC1B7v160006IJRS1_EJEEENS_21piecewise_construct_tENS_5tupleIJDpT_EEENSD_IJDpT0_EEE, symObjAddr: 0xFDBC, symBinAddr: 0x100018E64, symSize: 0x44 }
  - { offsetInCU: 0x22DEB, offset: 0x43B1F, size: 0x8, addend: 0x0, symName: __ZNSt3__14pairIKiNS0_INS_12basic_stringIcNS_11char_traitsIcEENS_9allocatorIcEEEES7_EEEC1B7v160006IJRS1_EJEJLm0EEJEEENS_21piecewise_construct_tERNS_5tupleIJDpT_EEERNSD_IJDpT0_EEENS_15__tuple_indicesIJXspT1_EEEENSM_IJXspT2_EEEE, symObjAddr: 0xFE00, symBinAddr: 0x100018EA8, symSize: 0x3C }
  - { offsetInCU: 0x22E7B, offset: 0x43BAF, size: 0x8, addend: 0x0, symName: __ZNSt3__14pairIKiNS0_INS_12basic_stringIcNS_11char_traitsIcEENS_9allocatorIcEEEES7_EEEC2B7v160006IJRS1_EJEJLm0EEJEEENS_21piecewise_construct_tERNS_5tupleIJDpT_EEERNSD_IJDpT0_EEENS_15__tuple_indicesIJXspT1_EEEENSM_IJXspT2_EEEE, symObjAddr: 0xFE3C, symBinAddr: 0x100018EE4, symSize: 0x4C }
  - { offsetInCU: 0x22F0B, offset: 0x43C3F, size: 0x8, addend: 0x0, symName: __ZNSt3__14pairINS_12basic_stringIcNS_11char_traitsIcEENS_9allocatorIcEEEES6_EC1B7v160006ILb1ELPv0EEEv, symObjAddr: 0xFEAC, symBinAddr: 0x100018F54, symSize: 0x2C }
  - { offsetInCU: 0x22F45, offset: 0x43C79, size: 0x8, addend: 0x0, symName: __ZNSt3__112__tuple_leafILm0ERKiLb0EE3getB7v160006Ev, symObjAddr: 0xFED8, symBinAddr: 0x100018F80, symSize: 0x18 }
  - { offsetInCU: 0x22F6B, offset: 0x43C9F, size: 0x8, addend: 0x0, symName: __ZNSt3__14pairINS_12basic_stringIcNS_11char_traitsIcEENS_9allocatorIcEEEES6_EC2B7v160006ILb1ELPv0EEEv, symObjAddr: 0xFEF0, symBinAddr: 0x100018F98, symSize: 0x38 }
  - { offsetInCU: 0x22FA5, offset: 0x43CD9, size: 0x8, addend: 0x0, symName: __ZNKSt3__117__compressed_pairIPNS_11__tree_nodeINS_12__value_typeIiNS_4pairINS_12basic_stringIcNS_11char_traitsIcEENS_9allocatorIcEEEES9_EEEEPvEENS_22__tree_node_destructorINS7_ISD_EEEEE5firstB7v160006Ev, symObjAddr: 0xFFA0, symBinAddr: 0x100018FD0, symSize: 0x24 }
  - { offsetInCU: 0x22FCB, offset: 0x43CFF, size: 0x8, addend: 0x0, symName: __ZNKSt3__122__compressed_pair_elemIPNS_11__tree_nodeINS_12__value_typeIiNS_4pairINS_12basic_stringIcNS_11char_traitsIcEENS_9allocatorIcEEEES9_EEEEPvEELi0ELb0EE5__getB7v160006Ev, symObjAddr: 0xFFC4, symBinAddr: 0x100018FF4, symSize: 0x14 }
  - { offsetInCU: 0x22FF1, offset: 0x43D25, size: 0x8, addend: 0x0, symName: __ZNSt3__117__compressed_pairIPNS_11__tree_nodeINS_12__value_typeIiNS_4pairINS_12basic_stringIcNS_11char_traitsIcEENS_9allocatorIcEEEES9_EEEEPvEENS_22__tree_node_destructorINS7_ISD_EEEEE6secondB7v160006Ev, symObjAddr: 0xFFD8, symBinAddr: 0x100019008, symSize: 0x28 }
  - { offsetInCU: 0x23017, offset: 0x43D4B, size: 0x8, addend: 0x0, symName: __ZNSt3__122__compressed_pair_elemINS_22__tree_node_destructorINS_9allocatorINS_11__tree_nodeINS_12__value_typeIiNS_4pairINS_12basic_stringIcNS_11char_traitsIcEENS2_IcEEEESA_EEEEPvEEEEEELi1ELb0EE5__getB7v160006Ev, symObjAddr: 0x10000, symBinAddr: 0x100019030, symSize: 0x14 }
  - { offsetInCU: 0x2303D, offset: 0x43D71, size: 0x8, addend: 0x0, symName: __ZNSt3__16__treeINS_12__value_typeIiNS_4pairINS_12basic_stringIcNS_11char_traitsIcEENS_9allocatorIcEEEES8_EEEENS_19__map_value_compareIiSA_NS_4lessIiEELb1EEENS6_ISA_EEE4sizeB7v160006Ev, symObjAddr: 0x10014, symBinAddr: 0x100019044, symSize: 0x28 }
  - { offsetInCU: 0x23063, offset: 0x43D97, size: 0x8, addend: 0x0, symName: __ZNSt3__117__compressed_pairImNS_19__map_value_compareIiNS_12__value_typeIiNS_4pairINS_12basic_stringIcNS_11char_traitsIcEENS_9allocatorIcEEEES9_EEEENS_4lessIiEELb1EEEE5firstB7v160006Ev, symObjAddr: 0x1003C, symBinAddr: 0x10001906C, symSize: 0x24 }
  - { offsetInCU: 0x23089, offset: 0x43DBD, size: 0x8, addend: 0x0, symName: __ZNSt3__117__compressed_pairIPNS_11__tree_nodeINS_12__value_typeIiNS_4pairINS_12basic_stringIcNS_11char_traitsIcEENS_9allocatorIcEEEES9_EEEEPvEENS_22__tree_node_destructorINS7_ISD_EEEEE5firstB7v160006Ev, symObjAddr: 0x10060, symBinAddr: 0x100019090, symSize: 0x24 }
  - { offsetInCU: 0x230AF, offset: 0x43DE3, size: 0x8, addend: 0x0, symName: __ZNSt3__122__compressed_pair_elemIPNS_11__tree_nodeINS_12__value_typeIiNS_4pairINS_12basic_stringIcNS_11char_traitsIcEENS_9allocatorIcEEEES9_EEEEPvEELi0ELb0EE5__getB7v160006Ev, symObjAddr: 0x10084, symBinAddr: 0x1000190B4, symSize: 0x14 }
  - { offsetInCU: 0x230D5, offset: 0x43E09, size: 0x8, addend: 0x0, symName: __ZNSt3__110unique_ptrINS_11__tree_nodeINS_12__value_typeIiNS_4pairINS_12basic_stringIcNS_11char_traitsIcEENS_9allocatorIcEEEES9_EEEEPvEENS_22__tree_node_destructorINS7_ISD_EEEEED2B7v160006Ev, symObjAddr: 0x10098, symBinAddr: 0x1000190C8, symSize: 0x30 }
  - { offsetInCU: 0x230FF, offset: 0x43E33, size: 0x8, addend: 0x0, symName: __ZNSt3__110unique_ptrINS_11__tree_nodeINS_12__value_typeIiNS_4pairINS_12basic_stringIcNS_11char_traitsIcEENS_9allocatorIcEEEES9_EEEEPvEENS_22__tree_node_destructorINS7_ISD_EEEEE5resetB7v160006EPSD_, symObjAddr: 0x100C8, symBinAddr: 0x1000190F8, symSize: 0x78 }
  - { offsetInCU: 0x23143, offset: 0x43E77, size: 0x8, addend: 0x0, symName: __ZNSt3__122__tree_node_destructorINS_9allocatorINS_11__tree_nodeINS_12__value_typeIiNS_4pairINS_12basic_stringIcNS_11char_traitsIcEENS1_IcEEEES9_EEEEPvEEEEEclB7v160006EPSD_, symObjAddr: 0x10140, symBinAddr: 0x100019170, symSize: 0x98 }
  - { offsetInCU: 0x23178, offset: 0x43EAC, size: 0x8, addend: 0x0, symName: __ZNSt3__115__tree_iteratorINS_12__value_typeIiNS_4pairINS_12basic_stringIcNS_11char_traitsIcEENS_9allocatorIcEEEES8_EEEEPNS_11__tree_nodeISA_PvEElEC2B7v160006ESE_, symObjAddr: 0x101D8, symBinAddr: 0x100019208, symSize: 0x20 }
  - { offsetInCU: 0x231B1, offset: 0x43EE5, size: 0x8, addend: 0x0, symName: __ZNSt3__14pairINS_15__tree_iteratorINS_12__value_typeIiNS0_INS_12basic_stringIcNS_11char_traitsIcEENS_9allocatorIcEEEES8_EEEEPNS_11__tree_nodeISA_PvEElEEbEC2B7v160006ISF_RbLSC_0EEEOT_OT0_, symObjAddr: 0x101F8, symBinAddr: 0x100019228, symSize: 0x38 }
  - { offsetInCU: 0x2320F, offset: 0x43F43, size: 0x8, addend: 0x0, symName: __ZNSt3__15tupleIJRKiEEC1B7v160006INS_4_AndELi0EEES2_, symObjAddr: 0x10230, symBinAddr: 0x100019260, symSize: 0x34 }
  - { offsetInCU: 0x23258, offset: 0x43F8C, size: 0x8, addend: 0x0, symName: __ZNSt3__15tupleIJRKiEEC2B7v160006INS_4_AndELi0EEES2_, symObjAddr: 0x10264, symBinAddr: 0x100019294, symSize: 0x34 }
  - { offsetInCU: 0x232A1, offset: 0x43FD5, size: 0x8, addend: 0x0, symName: __ZNSt3__112__tuple_implINS_15__tuple_indicesIJLm0EEEEJRKiEEC1B7v160006IJLm0EEJS4_EJEJEJS4_EEENS1_IJXspT_EEEENS_13__tuple_typesIJDpT0_EEENS1_IJXspT1_EEEENS8_IJDpT2_EEEDpOT3_, symObjAddr: 0x10298, symBinAddr: 0x1000192C8, symSize: 0x34 }
  - { offsetInCU: 0x23336, offset: 0x4406A, size: 0x8, addend: 0x0, symName: __ZNSt3__112__tuple_implINS_15__tuple_indicesIJLm0EEEEJRKiEEC2B7v160006IJLm0EEJS4_EJEJEJS4_EEENS1_IJXspT_EEEENS_13__tuple_typesIJDpT0_EEENS1_IJXspT1_EEEENS8_IJDpT2_EEEDpOT3_, symObjAddr: 0x102CC, symBinAddr: 0x1000192FC, symSize: 0x34 }
  - { offsetInCU: 0x233CB, offset: 0x440FF, size: 0x8, addend: 0x0, symName: __ZNSt3__112__tuple_leafILm0ERKiLb0EEC2B7v160006IS2_vEEOT_, symObjAddr: 0x10300, symBinAddr: 0x100019330, symSize: 0x20 }
  - { offsetInCU: 0x2340E, offset: 0x44142, size: 0x8, addend: 0x0, symName: __ZNSt3__114pointer_traitsIPNS_12__value_typeIiNS_4pairINS_12basic_stringIcNS_11char_traitsIcEENS_9allocatorIcEEEES8_EEEEE10pointer_toB7v160006ERSA_, symObjAddr: 0x10320, symBinAddr: 0x100019350, symSize: 0x14 }
  - { offsetInCU: 0x23431, offset: 0x44165, size: 0x8, addend: 0x0, symName: __ZNKSt3__115__tree_iteratorINS_12__value_typeIiNS_4pairINS_12basic_stringIcNS_11char_traitsIcEENS_9allocatorIcEEEES8_EEEEPNS_11__tree_nodeISA_PvEElE8__get_npB7v160006Ev, symObjAddr: 0x10334, symBinAddr: 0x100019364, symSize: 0x18 }
  - { offsetInCU: 0x23457, offset: 0x4418B, size: 0x8, addend: 0x0, symName: __ZNSt3__16__treeINS_12__value_typeINS_12basic_stringIcNS_11char_traitsIcEENS_9allocatorIcEEEENS_3mapIiNS_4pairIS7_S7_EENS_4lessIiEENS5_INS9_IKiSA_EEEEEEEENS_19__map_value_compareIS7_SH_NSB_IS7_EELb1EEENS5_ISH_EEE5beginB7v160006Ev, symObjAddr: 0x1034C, symBinAddr: 0x10001937C, symSize: 0x34 }
  - { offsetInCU: 0x2347D, offset: 0x441B1, size: 0x8, addend: 0x0, symName: __ZNSt3__114__map_iteratorINS_15__tree_iteratorINS_12__value_typeINS_12basic_stringIcNS_11char_traitsIcEENS_9allocatorIcEEEENS_3mapIiNS_4pairIS8_S8_EENS_4lessIiEENS6_INSA_IKiSB_EEEEEEEEPNS_11__tree_nodeISI_PvEElEEEC1B7v160006ESN_, symObjAddr: 0x10380, symBinAddr: 0x1000193B0, symSize: 0x34 }
  - { offsetInCU: 0x234B6, offset: 0x441EA, size: 0x8, addend: 0x0, symName: __ZNSt3__115__tree_iteratorINS_12__value_typeINS_12basic_stringIcNS_11char_traitsIcEENS_9allocatorIcEEEENS_3mapIiNS_4pairIS7_S7_EENS_4lessIiEENS5_INS9_IKiSA_EEEEEEEEPNS_11__tree_nodeISH_PvEElEC1B7v160006EPNS_15__tree_end_nodeIPNS_16__tree_node_baseISJ_EEEE, symObjAddr: 0x103B4, symBinAddr: 0x1000193E4, symSize: 0x34 }
  - { offsetInCU: 0x234EF, offset: 0x44223, size: 0x8, addend: 0x0, symName: __ZNSt3__115__tree_iteratorINS_12__value_typeINS_12basic_stringIcNS_11char_traitsIcEENS_9allocatorIcEEEENS_3mapIiNS_4pairIS7_S7_EENS_4lessIiEENS5_INS9_IKiSA_EEEEEEEEPNS_11__tree_nodeISH_PvEElEC2B7v160006EPNS_15__tree_end_nodeIPNS_16__tree_node_baseISJ_EEEE, symObjAddr: 0x103E8, symBinAddr: 0x100019418, symSize: 0x20 }
  - { offsetInCU: 0x23528, offset: 0x4425C, size: 0x8, addend: 0x0, symName: __ZNSt3__114__map_iteratorINS_15__tree_iteratorINS_12__value_typeINS_12basic_stringIcNS_11char_traitsIcEENS_9allocatorIcEEEENS_3mapIiNS_4pairIS8_S8_EENS_4lessIiEENS6_INSA_IKiSB_EEEEEEEEPNS_11__tree_nodeISI_PvEElEEEC2B7v160006ESN_, symObjAddr: 0x10408, symBinAddr: 0x100019438, symSize: 0x20 }
  - { offsetInCU: 0x23561, offset: 0x44295, size: 0x8, addend: 0x0, symName: __ZNSt3__16__treeINS_12__value_typeINS_12basic_stringIcNS_11char_traitsIcEENS_9allocatorIcEEEENS_3mapIiNS_4pairIS7_S7_EENS_4lessIiEENS5_INS9_IKiSA_EEEEEEEENS_19__map_value_compareIS7_SH_NSB_IS7_EELb1EEENS5_ISH_EEE3endB7v160006Ev, symObjAddr: 0x10428, symBinAddr: 0x100019458, symSize: 0x34 }
  - { offsetInCU: 0x23587, offset: 0x442BB, size: 0x8, addend: 0x0, symName: __ZNSt3__115__tree_iteratorINS_12__value_typeINS_12basic_stringIcNS_11char_traitsIcEENS_9allocatorIcEEEENS_3mapIiNS_4pairIS7_S7_EENS_4lessIiEENS5_INS9_IKiSA_EEEEEEEEPNS_11__tree_nodeISH_PvEElEppB7v160006Ev, symObjAddr: 0x104C0, symBinAddr: 0x1000194F0, symSize: 0x38 }
  - { offsetInCU: 0x235AD, offset: 0x442E1, size: 0x8, addend: 0x0, symName: __ZNKSt3__16__treeINS_12__value_typeIiNS_4pairINS_12basic_stringIcNS_11char_traitsIcEENS_9allocatorIcEEEES8_EEEENS_19__map_value_compareIiSA_NS_4lessIiEELb1EEENS6_ISA_EEE5beginB7v160006Ev, symObjAddr: 0x10E7C, symBinAddr: 0x1000195E8, symSize: 0x34 }
  - { offsetInCU: 0x235D3, offset: 0x44307, size: 0x8, addend: 0x0, symName: __ZNSt3__120__map_const_iteratorINS_21__tree_const_iteratorINS_12__value_typeIiNS_4pairINS_12basic_stringIcNS_11char_traitsIcEENS_9allocatorIcEEEES9_EEEEPNS_11__tree_nodeISB_PvEElEEEC1B7v160006ESG_, symObjAddr: 0x10EB0, symBinAddr: 0x10001961C, symSize: 0x34 }
  - { offsetInCU: 0x2360C, offset: 0x44340, size: 0x8, addend: 0x0, symName: __ZNKSt3__16__treeINS_12__value_typeIiNS_4pairINS_12basic_stringIcNS_11char_traitsIcEENS_9allocatorIcEEEES8_EEEENS_19__map_value_compareIiSA_NS_4lessIiEELb1EEENS6_ISA_EEE12__begin_nodeB7v160006Ev, symObjAddr: 0x10EE4, symBinAddr: 0x100019650, symSize: 0x14 }
  - { offsetInCU: 0x23632, offset: 0x44366, size: 0x8, addend: 0x0, symName: __ZNSt3__121__tree_const_iteratorINS_12__value_typeIiNS_4pairINS_12basic_stringIcNS_11char_traitsIcEENS_9allocatorIcEEEES8_EEEEPNS_11__tree_nodeISA_PvEElEC1B7v160006EPNS_15__tree_end_nodeIPNS_16__tree_node_baseISC_EEEE, symObjAddr: 0x10EF8, symBinAddr: 0x100019664, symSize: 0x34 }
  - { offsetInCU: 0x2366B, offset: 0x4439F, size: 0x8, addend: 0x0, symName: __ZNSt3__121__tree_const_iteratorINS_12__value_typeIiNS_4pairINS_12basic_stringIcNS_11char_traitsIcEENS_9allocatorIcEEEES8_EEEEPNS_11__tree_nodeISA_PvEElEC2B7v160006EPNS_15__tree_end_nodeIPNS_16__tree_node_baseISC_EEEE, symObjAddr: 0x10F2C, symBinAddr: 0x100019698, symSize: 0x20 }
  - { offsetInCU: 0x236A4, offset: 0x443D8, size: 0x8, addend: 0x0, symName: __ZNSt3__120__map_const_iteratorINS_21__tree_const_iteratorINS_12__value_typeIiNS_4pairINS_12basic_stringIcNS_11char_traitsIcEENS_9allocatorIcEEEES9_EEEEPNS_11__tree_nodeISB_PvEElEEEC2B7v160006ESG_, symObjAddr: 0x10F4C, symBinAddr: 0x1000196B8, symSize: 0x20 }
  - { offsetInCU: 0x236DD, offset: 0x44411, size: 0x8, addend: 0x0, symName: __ZNKSt3__16__treeINS_12__value_typeIiNS_4pairINS_12basic_stringIcNS_11char_traitsIcEENS_9allocatorIcEEEES8_EEEENS_19__map_value_compareIiSA_NS_4lessIiEELb1EEENS6_ISA_EEE3endB7v160006Ev, symObjAddr: 0x10F6C, symBinAddr: 0x1000196D8, symSize: 0x34 }
  - { offsetInCU: 0x23703, offset: 0x44437, size: 0x8, addend: 0x0, symName: __ZNSt3__121__tree_const_iteratorINS_12__value_typeIiNS_4pairINS_12basic_stringIcNS_11char_traitsIcEENS_9allocatorIcEEEES8_EEEEPNS_11__tree_nodeISA_PvEElEppB7v160006Ev, symObjAddr: 0x11004, symBinAddr: 0x100019770, symSize: 0x38 }
  - { offsetInCU: 0x23729, offset: 0x4445D, size: 0x8, addend: 0x0, symName: __ZNKSt3__121__tree_const_iteratorINS_12__value_typeIiNS_4pairINS_12basic_stringIcNS_11char_traitsIcEENS_9allocatorIcEEEES8_EEEEPNS_11__tree_nodeISA_PvEElEptB7v160006Ev, symObjAddr: 0x1103C, symBinAddr: 0x1000197A8, symSize: 0x2C }
  - { offsetInCU: 0x2374F, offset: 0x44483, size: 0x8, addend: 0x0, symName: __ZNSt3__114pointer_traitsIPKNS_12__value_typeIiNS_4pairINS_12basic_stringIcNS_11char_traitsIcEENS_9allocatorIcEEEES8_EEEEE10pointer_toB7v160006ERSB_, symObjAddr: 0x11068, symBinAddr: 0x1000197D4, symSize: 0x14 }
  - { offsetInCU: 0x23772, offset: 0x444A6, size: 0x8, addend: 0x0, symName: __ZNKSt3__121__tree_const_iteratorINS_12__value_typeIiNS_4pairINS_12basic_stringIcNS_11char_traitsIcEENS_9allocatorIcEEEES8_EEEEPNS_11__tree_nodeISA_PvEElE8__get_npB7v160006Ev, symObjAddr: 0x1107C, symBinAddr: 0x1000197E8, symSize: 0x18 }
  - { offsetInCU: 0x23798, offset: 0x444CC, size: 0x8, addend: 0x0, symName: __ZNSt3__13mapINS_4pairIiiEEiNS_4lessIS2_EENS_9allocatorINS1_IKS2_iEEEEEC2B7v160006Ev, symObjAddr: 0x11094, symBinAddr: 0x100019800, symSize: 0x40 }
  - { offsetInCU: 0x237C2, offset: 0x444F6, size: 0x8, addend: 0x0, symName: __ZNSt3__119__map_value_compareINS_4pairIiiEENS_12__value_typeIS2_iEENS_4lessIS2_EELb1EEC1B7v160006ES6_, symObjAddr: 0x110D4, symBinAddr: 0x100019840, symSize: 0x2C }
  - { offsetInCU: 0x237FB, offset: 0x4452F, size: 0x8, addend: 0x0, symName: __ZNSt3__16__treeINS_12__value_typeINS_4pairIiiEEiEENS_19__map_value_compareIS3_S4_NS_4lessIS3_EELb1EEENS_9allocatorIS4_EEEC1ERKS8_, symObjAddr: 0x11100, symBinAddr: 0x10001986C, symSize: 0x34 }
  - { offsetInCU: 0x23836, offset: 0x4456A, size: 0x8, addend: 0x0, symName: __ZNSt3__119__map_value_compareINS_4pairIiiEENS_12__value_typeIS2_iEENS_4lessIS2_EELb1EEC2B7v160006ES6_, symObjAddr: 0x11134, symBinAddr: 0x1000198A0, symSize: 0x14 }
  - { offsetInCU: 0x2386F, offset: 0x445A3, size: 0x8, addend: 0x0, symName: __ZNSt3__16__treeINS_12__value_typeINS_4pairIiiEEiEENS_19__map_value_compareIS3_S4_NS_4lessIS3_EELb1EEENS_9allocatorIS4_EEEC2ERKS8_, symObjAddr: 0x11148, symBinAddr: 0x1000198B4, symSize: 0x7C }
  - { offsetInCU: 0x238AA, offset: 0x445DE, size: 0x8, addend: 0x0, symName: __ZNSt3__117__compressed_pairINS_15__tree_end_nodeIPNS_16__tree_node_baseIPvEEEENS_9allocatorINS_11__tree_nodeINS_12__value_typeINS_4pairIiiEEiEES3_EEEEEC1B7v160006ILb1EvEEv, symObjAddr: 0x111C4, symBinAddr: 0x100019930, symSize: 0x2C }
  - { offsetInCU: 0x238DF, offset: 0x44613, size: 0x8, addend: 0x0, symName: __ZNSt3__117__compressed_pairImNS_19__map_value_compareINS_4pairIiiEENS_12__value_typeIS3_iEENS_4lessIS3_EELb1EEEEC1B7v160006IiRKS8_EEOT_OT0_, symObjAddr: 0x111F0, symBinAddr: 0x10001995C, symSize: 0x3C }
  - { offsetInCU: 0x23937, offset: 0x4466B, size: 0x8, addend: 0x0, symName: __ZNSt3__16__treeINS_12__value_typeINS_4pairIiiEEiEENS_19__map_value_compareIS3_S4_NS_4lessIS3_EELb1EEENS_9allocatorIS4_EEE10__end_nodeB7v160006Ev, symObjAddr: 0x1122C, symBinAddr: 0x100019998, symSize: 0x2C }
  - { offsetInCU: 0x2395D, offset: 0x44691, size: 0x8, addend: 0x0, symName: __ZNSt3__16__treeINS_12__value_typeINS_4pairIiiEEiEENS_19__map_value_compareIS3_S4_NS_4lessIS3_EELb1EEENS_9allocatorIS4_EEE12__begin_nodeB7v160006Ev, symObjAddr: 0x11258, symBinAddr: 0x1000199C4, symSize: 0x14 }
  - { offsetInCU: 0x23983, offset: 0x446B7, size: 0x8, addend: 0x0, symName: __ZNSt3__117__compressed_pairINS_15__tree_end_nodeIPNS_16__tree_node_baseIPvEEEENS_9allocatorINS_11__tree_nodeINS_12__value_typeINS_4pairIiiEEiEES3_EEEEEC2B7v160006ILb1EvEEv, symObjAddr: 0x1126C, symBinAddr: 0x1000199D8, symSize: 0x34 }
  - { offsetInCU: 0x239B8, offset: 0x446EC, size: 0x8, addend: 0x0, symName: __ZNSt3__122__compressed_pair_elemINS_9allocatorINS_11__tree_nodeINS_12__value_typeINS_4pairIiiEEiEEPvEEEELi1ELb1EEC2B7v160006ENS_16__value_init_tagE, symObjAddr: 0x112A0, symBinAddr: 0x100019A0C, symSize: 0x2C }
  - { offsetInCU: 0x239ED, offset: 0x44721, size: 0x8, addend: 0x0, symName: __ZNSt3__19allocatorINS_11__tree_nodeINS_12__value_typeINS_4pairIiiEEiEEPvEEEC2B7v160006Ev, symObjAddr: 0x112CC, symBinAddr: 0x100019A38, symSize: 0x2C }
  - { offsetInCU: 0x23A17, offset: 0x4474B, size: 0x8, addend: 0x0, symName: __ZNSt3__116__non_trivial_ifILb1ENS_9allocatorINS_11__tree_nodeINS_12__value_typeINS_4pairIiiEEiEEPvEEEEEC2B7v160006Ev, symObjAddr: 0x112F8, symBinAddr: 0x100019A64, symSize: 0x14 }
  - { offsetInCU: 0x23A41, offset: 0x44775, size: 0x8, addend: 0x0, symName: __ZNSt3__117__compressed_pairImNS_19__map_value_compareINS_4pairIiiEENS_12__value_typeIS3_iEENS_4lessIS3_EELb1EEEEC2B7v160006IiRKS8_EEOT_OT0_, symObjAddr: 0x1130C, symBinAddr: 0x100019A78, symSize: 0x44 }
  - { offsetInCU: 0x23A99, offset: 0x447CD, size: 0x8, addend: 0x0, symName: __ZNSt3__122__compressed_pair_elemINS_19__map_value_compareINS_4pairIiiEENS_12__value_typeIS3_iEENS_4lessIS3_EELb1EEELi1ELb1EEC2B7v160006IRKS8_vEEOT_, symObjAddr: 0x11350, symBinAddr: 0x100019ABC, symSize: 0x18 }
  - { offsetInCU: 0x23ADB, offset: 0x4480F, size: 0x8, addend: 0x0, symName: __ZNSt3__117__compressed_pairINS_15__tree_end_nodeIPNS_16__tree_node_baseIPvEEEENS_9allocatorINS_11__tree_nodeINS_12__value_typeINS_4pairIiiEEiEES3_EEEEE5firstB7v160006Ev, symObjAddr: 0x11368, symBinAddr: 0x100019AD4, symSize: 0x24 }
  - { offsetInCU: 0x23B01, offset: 0x44835, size: 0x8, addend: 0x0, symName: __ZNSt3__13mapINS_4pairIiiEEiNS_4lessIS2_EENS_9allocatorINS1_IKS2_iEEEEED2B7v160006Ev, symObjAddr: 0x1138C, symBinAddr: 0x100019AF8, symSize: 0x2C }
  - { offsetInCU: 0x23B2B, offset: 0x4485F, size: 0x8, addend: 0x0, symName: __ZNSt3__16__treeINS_12__value_typeINS_4pairIiiEEiEENS_19__map_value_compareIS3_S4_NS_4lessIS3_EELb1EEENS_9allocatorIS4_EEED1Ev, symObjAddr: 0x113B8, symBinAddr: 0x100019B24, symSize: 0x2C }
  - { offsetInCU: 0x23B57, offset: 0x4488B, size: 0x8, addend: 0x0, symName: __ZNSt3__16__treeINS_12__value_typeINS_4pairIiiEEiEENS_19__map_value_compareIS3_S4_NS_4lessIS3_EELb1EEENS_9allocatorIS4_EEED2Ev, symObjAddr: 0x113E4, symBinAddr: 0x100019B50, symSize: 0x38 }
  - { offsetInCU: 0x23B83, offset: 0x448B7, size: 0x8, addend: 0x0, symName: __ZNSt3__16__treeINS_12__value_typeINS_4pairIiiEEiEENS_19__map_value_compareIS3_S4_NS_4lessIS3_EELb1EEENS_9allocatorIS4_EEE7destroyEPNS_11__tree_nodeIS4_PvEE, symObjAddr: 0x1141C, symBinAddr: 0x100019B88, symSize: 0xAC }
  - { offsetInCU: 0x23BCF, offset: 0x44903, size: 0x8, addend: 0x0, symName: __ZNKSt3__16__treeINS_12__value_typeINS_4pairIiiEEiEENS_19__map_value_compareIS3_S4_NS_4lessIS3_EELb1EEENS_9allocatorIS4_EEE6__rootB7v160006Ev, symObjAddr: 0x114C8, symBinAddr: 0x100019C34, symSize: 0x28 }
  - { offsetInCU: 0x23BF5, offset: 0x44929, size: 0x8, addend: 0x0, symName: __ZNSt3__16__treeINS_12__value_typeINS_4pairIiiEEiEENS_19__map_value_compareIS3_S4_NS_4lessIS3_EELb1EEENS_9allocatorIS4_EEE12__node_allocB7v160006Ev, symObjAddr: 0x114F0, symBinAddr: 0x100019C5C, symSize: 0x28 }
  - { offsetInCU: 0x23C1B, offset: 0x4494F, size: 0x8, addend: 0x0, symName: __ZNSt3__116allocator_traitsINS_9allocatorINS_11__tree_nodeINS_12__value_typeINS_4pairIiiEEiEEPvEEEEE7destroyB7v160006INS4_IKS5_iEEvvEEvRS9_PT_, symObjAddr: 0x11518, symBinAddr: 0x100019C84, symSize: 0x28 }
  - { offsetInCU: 0x23C56, offset: 0x4498A, size: 0x8, addend: 0x0, symName: __ZNSt3__122__tree_key_value_typesINS_12__value_typeINS_4pairIiiEEiEEE9__get_ptrB7v160006ERS4_, symObjAddr: 0x11540, symBinAddr: 0x100019CAC, symSize: 0x24 }
  - { offsetInCU: 0x23C7A, offset: 0x449AE, size: 0x8, addend: 0x0, symName: __ZNSt3__116allocator_traitsINS_9allocatorINS_11__tree_nodeINS_12__value_typeINS_4pairIiiEEiEEPvEEEEE10deallocateB7v160006ERS9_PS8_m, symObjAddr: 0x11564, symBinAddr: 0x100019CD0, symSize: 0x34 }
  - { offsetInCU: 0x23CBC, offset: 0x449F0, size: 0x8, addend: 0x0, symName: __ZNSt3__117__compressed_pairINS_15__tree_end_nodeIPNS_16__tree_node_baseIPvEEEENS_9allocatorINS_11__tree_nodeINS_12__value_typeINS_4pairIiiEEiEES3_EEEEE6secondB7v160006Ev, symObjAddr: 0x11598, symBinAddr: 0x100019D04, symSize: 0x24 }
  - { offsetInCU: 0x23CE2, offset: 0x44A16, size: 0x8, addend: 0x0, symName: __ZNSt3__122__compressed_pair_elemINS_9allocatorINS_11__tree_nodeINS_12__value_typeINS_4pairIiiEEiEEPvEEEELi1ELb1EE5__getB7v160006Ev, symObjAddr: 0x115BC, symBinAddr: 0x100019D28, symSize: 0x14 }
  - { offsetInCU: 0x23D08, offset: 0x44A3C, size: 0x8, addend: 0x0, symName: __ZNSt3__112__value_typeINS_4pairIiiEEiE11__get_valueB7v160006Ev, symObjAddr: 0x11604, symBinAddr: 0x100019D70, symSize: 0x24 }
  - { offsetInCU: 0x23D2E, offset: 0x44A62, size: 0x8, addend: 0x0, symName: __ZNSt3__19allocatorINS_11__tree_nodeINS_12__value_typeINS_4pairIiiEEiEEPvEEE10deallocateB7v160006EPS7_m, symObjAddr: 0x11660, symBinAddr: 0x100019DCC, symSize: 0x44 }
  - { offsetInCU: 0x23D70, offset: 0x44AA4, size: 0x8, addend: 0x0, symName: __ZNKSt3__16__treeINS_12__value_typeINS_4pairIiiEEiEENS_19__map_value_compareIS3_S4_NS_4lessIS3_EELb1EEENS_9allocatorIS4_EEE10__end_nodeB7v160006Ev, symObjAddr: 0x116A4, symBinAddr: 0x100019E10, symSize: 0x2C }
  - { offsetInCU: 0x23D96, offset: 0x44ACA, size: 0x8, addend: 0x0, symName: __ZNKSt3__117__compressed_pairINS_15__tree_end_nodeIPNS_16__tree_node_baseIPvEEEENS_9allocatorINS_11__tree_nodeINS_12__value_typeINS_4pairIiiEEiEES3_EEEEE5firstB7v160006Ev, symObjAddr: 0x116D0, symBinAddr: 0x100019E3C, symSize: 0x24 }
  - { offsetInCU: 0x23DBC, offset: 0x44AF0, size: 0x8, addend: 0x0, symName: __ZNSt3__16__treeINS_12__value_typeINS_4pairIiiEEiEENS_19__map_value_compareIS3_S4_NS_4lessIS3_EELb1EEENS_9allocatorIS4_EEE25__emplace_unique_key_argsIS3_JRKNS_21piecewise_construct_tENS_5tupleIJRKS3_EEENSG_IJEEEEEENS2_INS_15__tree_iteratorIS4_PNS_11__tree_nodeIS4_PvEElEEbEERKT_DpOT0_, symObjAddr: 0x116F4, symBinAddr: 0x100019E60, symSize: 0x100 }
  - { offsetInCU: 0x23E92, offset: 0x44BC6, size: 0x8, addend: 0x0, symName: __ZNKSt3__115__tree_iteratorINS_12__value_typeINS_4pairIiiEEiEEPNS_11__tree_nodeIS4_PvEElEptB7v160006Ev, symObjAddr: 0x11820, symBinAddr: 0x100019F8C, symSize: 0x2C }
  - { offsetInCU: 0x23EB8, offset: 0x44BEC, size: 0x8, addend: 0x0, symName: __ZNSt3__16__treeINS_12__value_typeINS_4pairIiiEEiEENS_19__map_value_compareIS3_S4_NS_4lessIS3_EELb1EEENS_9allocatorIS4_EEE12__find_equalIS3_EERPNS_16__tree_node_baseIPvEERPNS_15__tree_end_nodeISG_EERKT_, symObjAddr: 0x1184C, symBinAddr: 0x100019FB8, symSize: 0x184 }
  - { offsetInCU: 0x23F25, offset: 0x44C59, size: 0x8, addend: 0x0, symName: __ZNSt3__16__treeINS_12__value_typeINS_4pairIiiEEiEENS_19__map_value_compareIS3_S4_NS_4lessIS3_EELb1EEENS_9allocatorIS4_EEE16__construct_nodeIJRKNS_21piecewise_construct_tENS_5tupleIJRKS3_EEENSG_IJEEEEEENS_10unique_ptrINS_11__tree_nodeIS4_PvEENS_22__tree_node_destructorINS9_ISO_EEEEEEDpOT_, symObjAddr: 0x119D0, symBinAddr: 0x10001A13C, symSize: 0x120 }
  - { offsetInCU: 0x23FAE, offset: 0x44CE2, size: 0x8, addend: 0x0, symName: __ZNSt3__16__treeINS_12__value_typeINS_4pairIiiEEiEENS_19__map_value_compareIS3_S4_NS_4lessIS3_EELb1EEENS_9allocatorIS4_EEE16__insert_node_atEPNS_15__tree_end_nodeIPNS_16__tree_node_baseIPvEEEERSG_SG_, symObjAddr: 0x11AF0, symBinAddr: 0x10001A25C, symSize: 0xCC }
  - { offsetInCU: 0x24003, offset: 0x44D37, size: 0x8, addend: 0x0, symName: __ZNKSt3__110unique_ptrINS_11__tree_nodeINS_12__value_typeINS_4pairIiiEEiEEPvEENS_22__tree_node_destructorINS_9allocatorIS7_EEEEE3getB7v160006Ev, symObjAddr: 0x11BBC, symBinAddr: 0x10001A328, symSize: 0x28 }
  - { offsetInCU: 0x24029, offset: 0x44D5D, size: 0x8, addend: 0x0, symName: __ZNSt3__110unique_ptrINS_11__tree_nodeINS_12__value_typeINS_4pairIiiEEiEEPvEENS_22__tree_node_destructorINS_9allocatorIS7_EEEEE7releaseB7v160006Ev, symObjAddr: 0x11BE4, symBinAddr: 0x10001A350, symSize: 0x44 }
  - { offsetInCU: 0x2405E, offset: 0x44D92, size: 0x8, addend: 0x0, symName: __ZNSt3__110unique_ptrINS_11__tree_nodeINS_12__value_typeINS_4pairIiiEEiEEPvEENS_22__tree_node_destructorINS_9allocatorIS7_EEEEED1B7v160006Ev, symObjAddr: 0x11C28, symBinAddr: 0x10001A394, symSize: 0x2C }
  - { offsetInCU: 0x24088, offset: 0x44DBC, size: 0x8, addend: 0x0, symName: __ZNSt3__115__tree_iteratorINS_12__value_typeINS_4pairIiiEEiEEPNS_11__tree_nodeIS4_PvEElEC1B7v160006ES8_, symObjAddr: 0x11C54, symBinAddr: 0x10001A3C0, symSize: 0x34 }
  - { offsetInCU: 0x240C6, offset: 0x44DFA, size: 0x8, addend: 0x0, symName: __ZNSt3__14pairINS_15__tree_iteratorINS_12__value_typeINS0_IiiEEiEEPNS_11__tree_nodeIS4_PvEElEEbEC1B7v160006IS9_RbLS6_0EEEOT_OT0_, symObjAddr: 0x11C88, symBinAddr: 0x10001A3F4, symSize: 0x3C }
  - { offsetInCU: 0x24124, offset: 0x44E58, size: 0x8, addend: 0x0, symName: __ZNKSt3__16__treeINS_12__value_typeINS_4pairIiiEEiEENS_19__map_value_compareIS3_S4_NS_4lessIS3_EELb1EEENS_9allocatorIS4_EEE10__root_ptrEv, symObjAddr: 0x11CC4, symBinAddr: 0x10001A430, symSize: 0x24 }
  - { offsetInCU: 0x2414A, offset: 0x44E7E, size: 0x8, addend: 0x0, symName: __ZNSt3__16__treeINS_12__value_typeINS_4pairIiiEEiEENS_19__map_value_compareIS3_S4_NS_4lessIS3_EELb1EEENS_9allocatorIS4_EEE10value_compB7v160006Ev, symObjAddr: 0x11CE8, symBinAddr: 0x10001A454, symSize: 0x28 }
  - { offsetInCU: 0x24170, offset: 0x44EA4, size: 0x8, addend: 0x0, symName: __ZNKSt3__119__map_value_compareINS_4pairIiiEENS_12__value_typeIS2_iEENS_4lessIS2_EELb1EEclB7v160006ERKS2_RKS4_, symObjAddr: 0x11D10, symBinAddr: 0x10001A47C, symSize: 0x50 }
  - { offsetInCU: 0x241B4, offset: 0x44EE8, size: 0x8, addend: 0x0, symName: __ZNKSt3__119__map_value_compareINS_4pairIiiEENS_12__value_typeIS2_iEENS_4lessIS2_EELb1EEclB7v160006ERKS4_RKS2_, symObjAddr: 0x11D60, symBinAddr: 0x10001A4CC, symSize: 0x48 }
  - { offsetInCU: 0x241F8, offset: 0x44F2C, size: 0x8, addend: 0x0, symName: __ZNSt3__117__compressed_pairImNS_19__map_value_compareINS_4pairIiiEENS_12__value_typeIS3_iEENS_4lessIS3_EELb1EEEE6secondB7v160006Ev, symObjAddr: 0x11DA8, symBinAddr: 0x10001A514, symSize: 0x24 }
  - { offsetInCU: 0x2421E, offset: 0x44F52, size: 0x8, addend: 0x0, symName: __ZNSt3__122__compressed_pair_elemINS_19__map_value_compareINS_4pairIiiEENS_12__value_typeIS3_iEENS_4lessIS3_EELb1EEELi1ELb1EE5__getB7v160006Ev, symObjAddr: 0x11DCC, symBinAddr: 0x10001A538, symSize: 0x14 }
  - { offsetInCU: 0x24244, offset: 0x44F78, size: 0x8, addend: 0x0, symName: __ZNKSt3__14lessINS_4pairIiiEEEclB7v160006ERKS2_S5_, symObjAddr: 0x11DE0, symBinAddr: 0x10001A54C, symSize: 0x50 }
  - { offsetInCU: 0x24288, offset: 0x44FBC, size: 0x8, addend: 0x0, symName: __ZNKSt3__112__value_typeINS_4pairIiiEEiE11__get_valueB7v160006Ev, symObjAddr: 0x11E30, symBinAddr: 0x10001A59C, symSize: 0x24 }
  - { offsetInCU: 0x242B3, offset: 0x44FE7, size: 0x8, addend: 0x0, symName: __ZNKSt3__117__synth_three_wayMUlTyTyRKT_RKT0_E_clIiiEEDaS2_S5_, symObjAddr: 0x11EE0, symBinAddr: 0x10001A64C, symSize: 0x60 }
  - { offsetInCU: 0x24307, offset: 0x4503B, size: 0x8, addend: 0x0, symName: __ZNSt3__116allocator_traitsINS_9allocatorINS_11__tree_nodeINS_12__value_typeINS_4pairIiiEEiEEPvEEEEE8allocateB7v160006ERS9_m, symObjAddr: 0x11F9C, symBinAddr: 0x10001A708, symSize: 0x2C }
  - { offsetInCU: 0x2433A, offset: 0x4506E, size: 0x8, addend: 0x0, symName: __ZNSt3__122__tree_node_destructorINS_9allocatorINS_11__tree_nodeINS_12__value_typeINS_4pairIiiEEiEEPvEEEEEC1B7v160006ERS9_b, symObjAddr: 0x11FC8, symBinAddr: 0x10001A734, symSize: 0x48 }
  - { offsetInCU: 0x24387, offset: 0x450BB, size: 0x8, addend: 0x0, symName: __ZNSt3__110unique_ptrINS_11__tree_nodeINS_12__value_typeINS_4pairIiiEEiEEPvEENS_22__tree_node_destructorINS_9allocatorIS7_EEEEEC1B7v160006ILb1EvEEPS7_NS_16__dependent_typeINS_27__unique_ptr_deleter_sfinaeISB_EEXT_EE20__good_rval_ref_typeE, symObjAddr: 0x12010, symBinAddr: 0x10001A77C, symSize: 0x3C }
  - { offsetInCU: 0x243D8, offset: 0x4510C, size: 0x8, addend: 0x0, symName: __ZNSt3__116allocator_traitsINS_9allocatorINS_11__tree_nodeINS_12__value_typeINS_4pairIiiEEiEEPvEEEEE9constructB7v160006INS4_IKS5_iEEJRKNS_21piecewise_construct_tENS_5tupleIJRSC_EEENSH_IJEEEEvvEEvRS9_PT_DpOT0_, symObjAddr: 0x1204C, symBinAddr: 0x10001A7B8, symSize: 0x40 }
  - { offsetInCU: 0x24455, offset: 0x45189, size: 0x8, addend: 0x0, symName: __ZNKSt3__110unique_ptrINS_11__tree_nodeINS_12__value_typeINS_4pairIiiEEiEEPvEENS_22__tree_node_destructorINS_9allocatorIS7_EEEEEptB7v160006Ev, symObjAddr: 0x1208C, symBinAddr: 0x10001A7F8, symSize: 0x28 }
  - { offsetInCU: 0x2447B, offset: 0x451AF, size: 0x8, addend: 0x0, symName: __ZNSt3__110unique_ptrINS_11__tree_nodeINS_12__value_typeINS_4pairIiiEEiEEPvEENS_22__tree_node_destructorINS_9allocatorIS7_EEEEE11get_deleterB7v160006Ev, symObjAddr: 0x120B4, symBinAddr: 0x10001A820, symSize: 0x24 }
  - { offsetInCU: 0x244A1, offset: 0x451D5, size: 0x8, addend: 0x0, symName: __ZNSt3__19allocatorINS_11__tree_nodeINS_12__value_typeINS_4pairIiiEEiEEPvEEE8allocateB7v160006Em, symObjAddr: 0x120D8, symBinAddr: 0x10001A844, symSize: 0x5C }
  - { offsetInCU: 0x244DF, offset: 0x45213, size: 0x8, addend: 0x0, symName: __ZNSt3__116allocator_traitsINS_9allocatorINS_11__tree_nodeINS_12__value_typeINS_4pairIiiEEiEEPvEEEEE8max_sizeB7v160006IS9_vvEEmRKS9_, symObjAddr: 0x12134, symBinAddr: 0x10001A8A0, symSize: 0x28 }
  - { offsetInCU: 0x2450B, offset: 0x4523F, size: 0x8, addend: 0x0, symName: __ZNSt3__122__tree_node_destructorINS_9allocatorINS_11__tree_nodeINS_12__value_typeINS_4pairIiiEEiEEPvEEEEEC2B7v160006ERS9_b, symObjAddr: 0x1215C, symBinAddr: 0x10001A8C8, symSize: 0x38 }
  - { offsetInCU: 0x24553, offset: 0x45287, size: 0x8, addend: 0x0, symName: __ZNSt3__110unique_ptrINS_11__tree_nodeINS_12__value_typeINS_4pairIiiEEiEEPvEENS_22__tree_node_destructorINS_9allocatorIS7_EEEEEC2B7v160006ILb1EvEEPS7_NS_16__dependent_typeINS_27__unique_ptr_deleter_sfinaeISB_EEXT_EE20__good_rval_ref_typeE, symObjAddr: 0x12194, symBinAddr: 0x10001A900, symSize: 0x48 }
  - { offsetInCU: 0x245A4, offset: 0x452D8, size: 0x8, addend: 0x0, symName: __ZNSt3__117__compressed_pairIPNS_11__tree_nodeINS_12__value_typeINS_4pairIiiEEiEEPvEENS_22__tree_node_destructorINS_9allocatorIS7_EEEEEC1B7v160006IRS8_SC_EEOT_OT0_, symObjAddr: 0x121DC, symBinAddr: 0x10001A948, symSize: 0x3C }
  - { offsetInCU: 0x245FC, offset: 0x45330, size: 0x8, addend: 0x0, symName: __ZNSt3__117__compressed_pairIPNS_11__tree_nodeINS_12__value_typeINS_4pairIiiEEiEEPvEENS_22__tree_node_destructorINS_9allocatorIS7_EEEEEC2B7v160006IRS8_SC_EEOT_OT0_, symObjAddr: 0x12218, symBinAddr: 0x10001A984, symSize: 0x48 }
  - { offsetInCU: 0x24654, offset: 0x45388, size: 0x8, addend: 0x0, symName: __ZNSt3__122__compressed_pair_elemIPNS_11__tree_nodeINS_12__value_typeINS_4pairIiiEEiEEPvEELi0ELb0EEC2B7v160006IRS8_vEEOT_, symObjAddr: 0x12260, symBinAddr: 0x10001A9CC, symSize: 0x24 }
  - { offsetInCU: 0x24696, offset: 0x453CA, size: 0x8, addend: 0x0, symName: __ZNSt3__122__compressed_pair_elemINS_22__tree_node_destructorINS_9allocatorINS_11__tree_nodeINS_12__value_typeINS_4pairIiiEEiEEPvEEEEEELi1ELb0EEC2B7v160006ISB_vEEOT_, symObjAddr: 0x12284, symBinAddr: 0x10001A9F0, symSize: 0x24 }
  - { offsetInCU: 0x246D8, offset: 0x4540C, size: 0x8, addend: 0x0, symName: __ZNSt3__14pairIKNS0_IiiEEiEC1B7v160006IJRS2_EJEEENS_21piecewise_construct_tENS_5tupleIJDpT_EEENS7_IJDpT0_EEE, symObjAddr: 0x122F8, symBinAddr: 0x10001AA64, symSize: 0x44 }
  - { offsetInCU: 0x2473F, offset: 0x45473, size: 0x8, addend: 0x0, symName: __ZNSt3__14pairIKNS0_IiiEEiEC1B7v160006IJRS2_EJEJLm0EEJEEENS_21piecewise_construct_tERNS_5tupleIJDpT_EEERNS7_IJDpT0_EEENS_15__tuple_indicesIJXspT1_EEEENSG_IJXspT2_EEEE, symObjAddr: 0x1233C, symBinAddr: 0x10001AAA8, symSize: 0x3C }
  - { offsetInCU: 0x247CF, offset: 0x45503, size: 0x8, addend: 0x0, symName: __ZNSt3__14pairIKNS0_IiiEEiEC2B7v160006IJRS2_EJEJLm0EEJEEENS_21piecewise_construct_tERNS_5tupleIJDpT_EEERNS7_IJDpT0_EEENS_15__tuple_indicesIJXspT1_EEEENSG_IJXspT2_EEEE, symObjAddr: 0x12378, symBinAddr: 0x10001AAE4, symSize: 0x48 }
  - { offsetInCU: 0x2485F, offset: 0x45593, size: 0x8, addend: 0x0, symName: __ZNSt3__112__tuple_leafILm0ERKNS_4pairIiiEELb0EE3getB7v160006Ev, symObjAddr: 0x123E4, symBinAddr: 0x10001AB50, symSize: 0x18 }
  - { offsetInCU: 0x24885, offset: 0x455B9, size: 0x8, addend: 0x0, symName: __ZNKSt3__117__compressed_pairIPNS_11__tree_nodeINS_12__value_typeINS_4pairIiiEEiEEPvEENS_22__tree_node_destructorINS_9allocatorIS7_EEEEE5firstB7v160006Ev, symObjAddr: 0x123FC, symBinAddr: 0x10001AB68, symSize: 0x24 }
  - { offsetInCU: 0x248AB, offset: 0x455DF, size: 0x8, addend: 0x0, symName: __ZNKSt3__122__compressed_pair_elemIPNS_11__tree_nodeINS_12__value_typeINS_4pairIiiEEiEEPvEELi0ELb0EE5__getB7v160006Ev, symObjAddr: 0x12420, symBinAddr: 0x10001AB8C, symSize: 0x14 }
  - { offsetInCU: 0x248D1, offset: 0x45605, size: 0x8, addend: 0x0, symName: __ZNSt3__117__compressed_pairIPNS_11__tree_nodeINS_12__value_typeINS_4pairIiiEEiEEPvEENS_22__tree_node_destructorINS_9allocatorIS7_EEEEE6secondB7v160006Ev, symObjAddr: 0x12434, symBinAddr: 0x10001ABA0, symSize: 0x28 }
  - { offsetInCU: 0x248F7, offset: 0x4562B, size: 0x8, addend: 0x0, symName: __ZNSt3__122__compressed_pair_elemINS_22__tree_node_destructorINS_9allocatorINS_11__tree_nodeINS_12__value_typeINS_4pairIiiEEiEEPvEEEEEELi1ELb0EE5__getB7v160006Ev, symObjAddr: 0x1245C, symBinAddr: 0x10001ABC8, symSize: 0x14 }
  - { offsetInCU: 0x2491D, offset: 0x45651, size: 0x8, addend: 0x0, symName: __ZNSt3__16__treeINS_12__value_typeINS_4pairIiiEEiEENS_19__map_value_compareIS3_S4_NS_4lessIS3_EELb1EEENS_9allocatorIS4_EEE4sizeB7v160006Ev, symObjAddr: 0x12470, symBinAddr: 0x10001ABDC, symSize: 0x28 }
  - { offsetInCU: 0x24943, offset: 0x45677, size: 0x8, addend: 0x0, symName: __ZNSt3__117__compressed_pairImNS_19__map_value_compareINS_4pairIiiEENS_12__value_typeIS3_iEENS_4lessIS3_EELb1EEEE5firstB7v160006Ev, symObjAddr: 0x12498, symBinAddr: 0x10001AC04, symSize: 0x24 }
  - { offsetInCU: 0x24969, offset: 0x4569D, size: 0x8, addend: 0x0, symName: __ZNSt3__117__compressed_pairIPNS_11__tree_nodeINS_12__value_typeINS_4pairIiiEEiEEPvEENS_22__tree_node_destructorINS_9allocatorIS7_EEEEE5firstB7v160006Ev, symObjAddr: 0x124BC, symBinAddr: 0x10001AC28, symSize: 0x24 }
  - { offsetInCU: 0x2498F, offset: 0x456C3, size: 0x8, addend: 0x0, symName: __ZNSt3__122__compressed_pair_elemIPNS_11__tree_nodeINS_12__value_typeINS_4pairIiiEEiEEPvEELi0ELb0EE5__getB7v160006Ev, symObjAddr: 0x124E0, symBinAddr: 0x10001AC4C, symSize: 0x14 }
  - { offsetInCU: 0x249B5, offset: 0x456E9, size: 0x8, addend: 0x0, symName: __ZNSt3__110unique_ptrINS_11__tree_nodeINS_12__value_typeINS_4pairIiiEEiEEPvEENS_22__tree_node_destructorINS_9allocatorIS7_EEEEED2B7v160006Ev, symObjAddr: 0x124F4, symBinAddr: 0x10001AC60, symSize: 0x30 }
  - { offsetInCU: 0x249DF, offset: 0x45713, size: 0x8, addend: 0x0, symName: __ZNSt3__110unique_ptrINS_11__tree_nodeINS_12__value_typeINS_4pairIiiEEiEEPvEENS_22__tree_node_destructorINS_9allocatorIS7_EEEEE5resetB7v160006EPS7_, symObjAddr: 0x12524, symBinAddr: 0x10001AC90, symSize: 0x78 }
  - { offsetInCU: 0x24A23, offset: 0x45757, size: 0x8, addend: 0x0, symName: __ZNSt3__122__tree_node_destructorINS_9allocatorINS_11__tree_nodeINS_12__value_typeINS_4pairIiiEEiEEPvEEEEEclB7v160006EPS8_, symObjAddr: 0x1259C, symBinAddr: 0x10001AD08, symSize: 0x98 }
  - { offsetInCU: 0x24A58, offset: 0x4578C, size: 0x8, addend: 0x0, symName: __ZNSt3__115__tree_iteratorINS_12__value_typeINS_4pairIiiEEiEEPNS_11__tree_nodeIS4_PvEElEC2B7v160006ES8_, symObjAddr: 0x12634, symBinAddr: 0x10001ADA0, symSize: 0x20 }
  - { offsetInCU: 0x24A91, offset: 0x457C5, size: 0x8, addend: 0x0, symName: __ZNSt3__14pairINS_15__tree_iteratorINS_12__value_typeINS0_IiiEEiEEPNS_11__tree_nodeIS4_PvEElEEbEC2B7v160006IS9_RbLS6_0EEEOT_OT0_, symObjAddr: 0x12654, symBinAddr: 0x10001ADC0, symSize: 0x38 }
  - { offsetInCU: 0x24AEF, offset: 0x45823, size: 0x8, addend: 0x0, symName: __ZNSt3__15tupleIJRKNS_4pairIiiEEEEC1B7v160006INS_4_AndELi0EEES4_, symObjAddr: 0x1268C, symBinAddr: 0x10001ADF8, symSize: 0x34 }
  - { offsetInCU: 0x24B38, offset: 0x4586C, size: 0x8, addend: 0x0, symName: __ZNSt3__15tupleIJRKNS_4pairIiiEEEEC2B7v160006INS_4_AndELi0EEES4_, symObjAddr: 0x126C0, symBinAddr: 0x10001AE2C, symSize: 0x34 }
  - { offsetInCU: 0x24B81, offset: 0x458B5, size: 0x8, addend: 0x0, symName: __ZNSt3__112__tuple_implINS_15__tuple_indicesIJLm0EEEEJRKNS_4pairIiiEEEEC1B7v160006IJLm0EEJS6_EJEJEJS6_EEENS1_IJXspT_EEEENS_13__tuple_typesIJDpT0_EEENS1_IJXspT1_EEEENSA_IJDpT2_EEEDpOT3_, symObjAddr: 0x126F4, symBinAddr: 0x10001AE60, symSize: 0x34 }
  - { offsetInCU: 0x24C16, offset: 0x4594A, size: 0x8, addend: 0x0, symName: __ZNSt3__112__tuple_implINS_15__tuple_indicesIJLm0EEEEJRKNS_4pairIiiEEEEC2B7v160006IJLm0EEJS6_EJEJEJS6_EEENS1_IJXspT_EEEENS_13__tuple_typesIJDpT0_EEENS1_IJXspT1_EEEENSA_IJDpT2_EEEDpOT3_, symObjAddr: 0x12728, symBinAddr: 0x10001AE94, symSize: 0x34 }
  - { offsetInCU: 0x24CAB, offset: 0x459DF, size: 0x8, addend: 0x0, symName: __ZNSt3__112__tuple_leafILm0ERKNS_4pairIiiEELb0EEC2B7v160006IS4_vEEOT_, symObjAddr: 0x1275C, symBinAddr: 0x10001AEC8, symSize: 0x20 }
  - { offsetInCU: 0x24CEE, offset: 0x45A22, size: 0x8, addend: 0x0, symName: __ZNSt3__114pointer_traitsIPNS_12__value_typeINS_4pairIiiEEiEEE10pointer_toB7v160006ERS4_, symObjAddr: 0x1277C, symBinAddr: 0x10001AEE8, symSize: 0x14 }
  - { offsetInCU: 0x24D11, offset: 0x45A45, size: 0x8, addend: 0x0, symName: __ZNKSt3__115__tree_iteratorINS_12__value_typeINS_4pairIiiEEiEEPNS_11__tree_nodeIS4_PvEElE8__get_npB7v160006Ev, symObjAddr: 0x12790, symBinAddr: 0x10001AEFC, symSize: 0x18 }
  - { offsetInCU: 0x24D37, offset: 0x45A6B, size: 0x8, addend: 0x0, symName: __ZNSt3__16__treeINS_12__value_typeINS_4pairIiiEEiEENS_19__map_value_compareIS3_S4_NS_4lessIS3_EELb1EEENS_9allocatorIS4_EEE5beginB7v160006Ev, symObjAddr: 0x127A8, symBinAddr: 0x10001AF14, symSize: 0x34 }
  - { offsetInCU: 0x24D5D, offset: 0x45A91, size: 0x8, addend: 0x0, symName: __ZNSt3__114__map_iteratorINS_15__tree_iteratorINS_12__value_typeINS_4pairIiiEEiEEPNS_11__tree_nodeIS5_PvEElEEEC1B7v160006ESA_, symObjAddr: 0x127DC, symBinAddr: 0x10001AF48, symSize: 0x34 }
  - { offsetInCU: 0x24D96, offset: 0x45ACA, size: 0x8, addend: 0x0, symName: __ZNSt3__115__tree_iteratorINS_12__value_typeINS_4pairIiiEEiEEPNS_11__tree_nodeIS4_PvEElEC1B7v160006EPNS_15__tree_end_nodeIPNS_16__tree_node_baseIS6_EEEE, symObjAddr: 0x12810, symBinAddr: 0x10001AF7C, symSize: 0x34 }
  - { offsetInCU: 0x24DCF, offset: 0x45B03, size: 0x8, addend: 0x0, symName: __ZNSt3__115__tree_iteratorINS_12__value_typeINS_4pairIiiEEiEEPNS_11__tree_nodeIS4_PvEElEC2B7v160006EPNS_15__tree_end_nodeIPNS_16__tree_node_baseIS6_EEEE, symObjAddr: 0x12844, symBinAddr: 0x10001AFB0, symSize: 0x20 }
  - { offsetInCU: 0x24E08, offset: 0x45B3C, size: 0x8, addend: 0x0, symName: __ZNSt3__114__map_iteratorINS_15__tree_iteratorINS_12__value_typeINS_4pairIiiEEiEEPNS_11__tree_nodeIS5_PvEElEEEC2B7v160006ESA_, symObjAddr: 0x12864, symBinAddr: 0x10001AFD0, symSize: 0x20 }
  - { offsetInCU: 0x24E41, offset: 0x45B75, size: 0x8, addend: 0x0, symName: __ZNSt3__16__treeINS_12__value_typeINS_4pairIiiEEiEENS_19__map_value_compareIS3_S4_NS_4lessIS3_EELb1EEENS_9allocatorIS4_EEE3endB7v160006Ev, symObjAddr: 0x12884, symBinAddr: 0x10001AFF0, symSize: 0x34 }
  - { offsetInCU: 0x24E67, offset: 0x45B9B, size: 0x8, addend: 0x0, symName: __ZNSt3__115__tree_iteratorINS_12__value_typeINS_4pairIiiEEiEEPNS_11__tree_nodeIS4_PvEElEppB7v160006Ev, symObjAddr: 0x1291C, symBinAddr: 0x10001B088, symSize: 0x38 }
  - { offsetInCU: 0x24E8D, offset: 0x45BC1, size: 0x8, addend: 0x0, symName: __ZNSt3__13mapINS_4pairIiiEENS_6vectorIiNS_9allocatorIiEEEENS_4lessIS2_EENS4_INS1_IKS2_S6_EEEEEC2B7v160006Ev, symObjAddr: 0x12954, symBinAddr: 0x10001B0C0, symSize: 0x40 }
  - { offsetInCU: 0x24EB7, offset: 0x45BEB, size: 0x8, addend: 0x0, symName: __ZNSt3__119__map_value_compareINS_4pairIiiEENS_12__value_typeIS2_NS_6vectorIiNS_9allocatorIiEEEEEENS_4lessIS2_EELb1EEC1B7v160006ESA_, symObjAddr: 0x12994, symBinAddr: 0x10001B100, symSize: 0x2C }
  - { offsetInCU: 0x24EF0, offset: 0x45C24, size: 0x8, addend: 0x0, symName: __ZNSt3__16__treeINS_12__value_typeINS_4pairIiiEENS_6vectorIiNS_9allocatorIiEEEEEENS_19__map_value_compareIS3_S8_NS_4lessIS3_EELb1EEENS5_IS8_EEEC1ERKSC_, symObjAddr: 0x129C0, symBinAddr: 0x10001B12C, symSize: 0x34 }
  - { offsetInCU: 0x24F2B, offset: 0x45C5F, size: 0x8, addend: 0x0, symName: __ZNSt3__119__map_value_compareINS_4pairIiiEENS_12__value_typeIS2_NS_6vectorIiNS_9allocatorIiEEEEEENS_4lessIS2_EELb1EEC2B7v160006ESA_, symObjAddr: 0x129F4, symBinAddr: 0x10001B160, symSize: 0x14 }
  - { offsetInCU: 0x24F64, offset: 0x45C98, size: 0x8, addend: 0x0, symName: __ZNSt3__16__treeINS_12__value_typeINS_4pairIiiEENS_6vectorIiNS_9allocatorIiEEEEEENS_19__map_value_compareIS3_S8_NS_4lessIS3_EELb1EEENS5_IS8_EEEC2ERKSC_, symObjAddr: 0x12A08, symBinAddr: 0x10001B174, symSize: 0x7C }
  - { offsetInCU: 0x24F9F, offset: 0x45CD3, size: 0x8, addend: 0x0, symName: __ZNSt3__117__compressed_pairINS_15__tree_end_nodeIPNS_16__tree_node_baseIPvEEEENS_9allocatorINS_11__tree_nodeINS_12__value_typeINS_4pairIiiEENS_6vectorIiNS7_IiEEEEEES3_EEEEEC1B7v160006ILb1EvEEv, symObjAddr: 0x12A84, symBinAddr: 0x10001B1F0, symSize: 0x2C }
  - { offsetInCU: 0x24FD4, offset: 0x45D08, size: 0x8, addend: 0x0, symName: __ZNSt3__117__compressed_pairImNS_19__map_value_compareINS_4pairIiiEENS_12__value_typeIS3_NS_6vectorIiNS_9allocatorIiEEEEEENS_4lessIS3_EELb1EEEEC1B7v160006IiRKSC_EEOT_OT0_, symObjAddr: 0x12AB0, symBinAddr: 0x10001B21C, symSize: 0x3C }
  - { offsetInCU: 0x2502C, offset: 0x45D60, size: 0x8, addend: 0x0, symName: __ZNSt3__16__treeINS_12__value_typeINS_4pairIiiEENS_6vectorIiNS_9allocatorIiEEEEEENS_19__map_value_compareIS3_S8_NS_4lessIS3_EELb1EEENS5_IS8_EEE10__end_nodeB7v160006Ev, symObjAddr: 0x12AEC, symBinAddr: 0x10001B258, symSize: 0x2C }
  - { offsetInCU: 0x25052, offset: 0x45D86, size: 0x8, addend: 0x0, symName: __ZNSt3__16__treeINS_12__value_typeINS_4pairIiiEENS_6vectorIiNS_9allocatorIiEEEEEENS_19__map_value_compareIS3_S8_NS_4lessIS3_EELb1EEENS5_IS8_EEE12__begin_nodeB7v160006Ev, symObjAddr: 0x12B18, symBinAddr: 0x10001B284, symSize: 0x14 }
  - { offsetInCU: 0x25078, offset: 0x45DAC, size: 0x8, addend: 0x0, symName: __ZNSt3__117__compressed_pairINS_15__tree_end_nodeIPNS_16__tree_node_baseIPvEEEENS_9allocatorINS_11__tree_nodeINS_12__value_typeINS_4pairIiiEENS_6vectorIiNS7_IiEEEEEES3_EEEEEC2B7v160006ILb1EvEEv, symObjAddr: 0x12B2C, symBinAddr: 0x10001B298, symSize: 0x34 }
  - { offsetInCU: 0x250AD, offset: 0x45DE1, size: 0x8, addend: 0x0, symName: __ZNSt3__122__compressed_pair_elemINS_9allocatorINS_11__tree_nodeINS_12__value_typeINS_4pairIiiEENS_6vectorIiNS1_IiEEEEEEPvEEEELi1ELb1EEC2B7v160006ENS_16__value_init_tagE, symObjAddr: 0x12B60, symBinAddr: 0x10001B2CC, symSize: 0x2C }
  - { offsetInCU: 0x250E2, offset: 0x45E16, size: 0x8, addend: 0x0, symName: __ZNSt3__19allocatorINS_11__tree_nodeINS_12__value_typeINS_4pairIiiEENS_6vectorIiNS0_IiEEEEEEPvEEEC2B7v160006Ev, symObjAddr: 0x12B8C, symBinAddr: 0x10001B2F8, symSize: 0x2C }
  - { offsetInCU: 0x2510C, offset: 0x45E40, size: 0x8, addend: 0x0, symName: __ZNSt3__116__non_trivial_ifILb1ENS_9allocatorINS_11__tree_nodeINS_12__value_typeINS_4pairIiiEENS_6vectorIiNS1_IiEEEEEEPvEEEEEC2B7v160006Ev, symObjAddr: 0x12BB8, symBinAddr: 0x10001B324, symSize: 0x14 }
  - { offsetInCU: 0x25136, offset: 0x45E6A, size: 0x8, addend: 0x0, symName: __ZNSt3__117__compressed_pairImNS_19__map_value_compareINS_4pairIiiEENS_12__value_typeIS3_NS_6vectorIiNS_9allocatorIiEEEEEENS_4lessIS3_EELb1EEEEC2B7v160006IiRKSC_EEOT_OT0_, symObjAddr: 0x12BCC, symBinAddr: 0x10001B338, symSize: 0x44 }
  - { offsetInCU: 0x2518E, offset: 0x45EC2, size: 0x8, addend: 0x0, symName: __ZNSt3__122__compressed_pair_elemINS_19__map_value_compareINS_4pairIiiEENS_12__value_typeIS3_NS_6vectorIiNS_9allocatorIiEEEEEENS_4lessIS3_EELb1EEELi1ELb1EEC2B7v160006IRKSC_vEEOT_, symObjAddr: 0x12C10, symBinAddr: 0x10001B37C, symSize: 0x18 }
  - { offsetInCU: 0x251D0, offset: 0x45F04, size: 0x8, addend: 0x0, symName: __ZNSt3__117__compressed_pairINS_15__tree_end_nodeIPNS_16__tree_node_baseIPvEEEENS_9allocatorINS_11__tree_nodeINS_12__value_typeINS_4pairIiiEENS_6vectorIiNS7_IiEEEEEES3_EEEEE5firstB7v160006Ev, symObjAddr: 0x12C28, symBinAddr: 0x10001B394, symSize: 0x24 }
  - { offsetInCU: 0x251F6, offset: 0x45F2A, size: 0x8, addend: 0x0, symName: __ZNSt3__13mapINS_4pairIiiEENS_6vectorIiNS_9allocatorIiEEEENS_4lessIS2_EENS4_INS1_IKS2_S6_EEEEED2B7v160006Ev, symObjAddr: 0x12C4C, symBinAddr: 0x10001B3B8, symSize: 0x2C }
  - { offsetInCU: 0x25220, offset: 0x45F54, size: 0x8, addend: 0x0, symName: __ZNSt3__16__treeINS_12__value_typeINS_4pairIiiEENS_6vectorIiNS_9allocatorIiEEEEEENS_19__map_value_compareIS3_S8_NS_4lessIS3_EELb1EEENS5_IS8_EEED1Ev, symObjAddr: 0x12C78, symBinAddr: 0x10001B3E4, symSize: 0x2C }
  - { offsetInCU: 0x2524C, offset: 0x45F80, size: 0x8, addend: 0x0, symName: __ZNSt3__16__treeINS_12__value_typeINS_4pairIiiEENS_6vectorIiNS_9allocatorIiEEEEEENS_19__map_value_compareIS3_S8_NS_4lessIS3_EELb1EEENS5_IS8_EEED2Ev, symObjAddr: 0x12CA4, symBinAddr: 0x10001B410, symSize: 0x38 }
  - { offsetInCU: 0x25278, offset: 0x45FAC, size: 0x8, addend: 0x0, symName: __ZNSt3__16__treeINS_12__value_typeINS_4pairIiiEENS_6vectorIiNS_9allocatorIiEEEEEENS_19__map_value_compareIS3_S8_NS_4lessIS3_EELb1EEENS5_IS8_EEE7destroyEPNS_11__tree_nodeIS8_PvEE, symObjAddr: 0x12CDC, symBinAddr: 0x10001B448, symSize: 0xAC }
  - { offsetInCU: 0x252C4, offset: 0x45FF8, size: 0x8, addend: 0x0, symName: __ZNKSt3__16__treeINS_12__value_typeINS_4pairIiiEENS_6vectorIiNS_9allocatorIiEEEEEENS_19__map_value_compareIS3_S8_NS_4lessIS3_EELb1EEENS5_IS8_EEE6__rootB7v160006Ev, symObjAddr: 0x12D88, symBinAddr: 0x10001B4F4, symSize: 0x28 }
  - { offsetInCU: 0x252EA, offset: 0x4601E, size: 0x8, addend: 0x0, symName: __ZNSt3__16__treeINS_12__value_typeINS_4pairIiiEENS_6vectorIiNS_9allocatorIiEEEEEENS_19__map_value_compareIS3_S8_NS_4lessIS3_EELb1EEENS5_IS8_EEE12__node_allocB7v160006Ev, symObjAddr: 0x12DB0, symBinAddr: 0x10001B51C, symSize: 0x28 }
  - { offsetInCU: 0x25310, offset: 0x46044, size: 0x8, addend: 0x0, symName: __ZNSt3__116allocator_traitsINS_9allocatorINS_11__tree_nodeINS_12__value_typeINS_4pairIiiEENS_6vectorIiNS1_IiEEEEEEPvEEEEE7destroyB7v160006INS4_IKS5_S8_EEvvEEvRSC_PT_, symObjAddr: 0x12DD8, symBinAddr: 0x10001B544, symSize: 0x28 }
  - { offsetInCU: 0x2534B, offset: 0x4607F, size: 0x8, addend: 0x0, symName: __ZNSt3__122__tree_key_value_typesINS_12__value_typeINS_4pairIiiEENS_6vectorIiNS_9allocatorIiEEEEEEE9__get_ptrB7v160006ERS8_, symObjAddr: 0x12E00, symBinAddr: 0x10001B56C, symSize: 0x24 }
  - { offsetInCU: 0x2536F, offset: 0x460A3, size: 0x8, addend: 0x0, symName: __ZNSt3__116allocator_traitsINS_9allocatorINS_11__tree_nodeINS_12__value_typeINS_4pairIiiEENS_6vectorIiNS1_IiEEEEEEPvEEEEE10deallocateB7v160006ERSC_PSB_m, symObjAddr: 0x12E24, symBinAddr: 0x10001B590, symSize: 0x34 }
  - { offsetInCU: 0x253B1, offset: 0x460E5, size: 0x8, addend: 0x0, symName: __ZNSt3__117__compressed_pairINS_15__tree_end_nodeIPNS_16__tree_node_baseIPvEEEENS_9allocatorINS_11__tree_nodeINS_12__value_typeINS_4pairIiiEENS_6vectorIiNS7_IiEEEEEES3_EEEEE6secondB7v160006Ev, symObjAddr: 0x12E58, symBinAddr: 0x10001B5C4, symSize: 0x24 }
  - { offsetInCU: 0x253D7, offset: 0x4610B, size: 0x8, addend: 0x0, symName: __ZNSt3__122__compressed_pair_elemINS_9allocatorINS_11__tree_nodeINS_12__value_typeINS_4pairIiiEENS_6vectorIiNS1_IiEEEEEEPvEEEELi1ELb1EE5__getB7v160006Ev, symObjAddr: 0x12E7C, symBinAddr: 0x10001B5E8, symSize: 0x14 }
  - { offsetInCU: 0x253FD, offset: 0x46131, size: 0x8, addend: 0x0, symName: __ZNSt3__14pairIKNS0_IiiEENS_6vectorIiNS_9allocatorIiEEEEED1Ev, symObjAddr: 0x12ED8, symBinAddr: 0x10001B644, symSize: 0x2C }
  - { offsetInCU: 0x25429, offset: 0x4615D, size: 0x8, addend: 0x0, symName: __ZNSt3__14pairIKNS0_IiiEENS_6vectorIiNS_9allocatorIiEEEEED2Ev, symObjAddr: 0x12F04, symBinAddr: 0x10001B670, symSize: 0x30 }
  - { offsetInCU: 0x25455, offset: 0x46189, size: 0x8, addend: 0x0, symName: __ZNSt3__112__value_typeINS_4pairIiiEENS_6vectorIiNS_9allocatorIiEEEEE11__get_valueB7v160006Ev, symObjAddr: 0x12F34, symBinAddr: 0x10001B6A0, symSize: 0x24 }
  - { offsetInCU: 0x2547B, offset: 0x461AF, size: 0x8, addend: 0x0, symName: __ZNSt3__19allocatorINS_11__tree_nodeINS_12__value_typeINS_4pairIiiEENS_6vectorIiNS0_IiEEEEEEPvEEE10deallocateB7v160006EPSA_m, symObjAddr: 0x12F90, symBinAddr: 0x10001B6FC, symSize: 0x40 }
  - { offsetInCU: 0x254BD, offset: 0x461F1, size: 0x8, addend: 0x0, symName: __ZNKSt3__16__treeINS_12__value_typeINS_4pairIiiEENS_6vectorIiNS_9allocatorIiEEEEEENS_19__map_value_compareIS3_S8_NS_4lessIS3_EELb1EEENS5_IS8_EEE10__end_nodeB7v160006Ev, symObjAddr: 0x12FD0, symBinAddr: 0x10001B73C, symSize: 0x2C }
  - { offsetInCU: 0x254E3, offset: 0x46217, size: 0x8, addend: 0x0, symName: __ZNKSt3__117__compressed_pairINS_15__tree_end_nodeIPNS_16__tree_node_baseIPvEEEENS_9allocatorINS_11__tree_nodeINS_12__value_typeINS_4pairIiiEENS_6vectorIiNS7_IiEEEEEES3_EEEEE5firstB7v160006Ev, symObjAddr: 0x12FFC, symBinAddr: 0x10001B768, symSize: 0x24 }
  - { offsetInCU: 0x25509, offset: 0x4623D, size: 0x8, addend: 0x0, symName: __ZNSt3__16__treeINS_12__value_typeINS_4pairIiiEENS_6vectorIiNS_9allocatorIiEEEEEENS_19__map_value_compareIS3_S8_NS_4lessIS3_EELb1EEENS5_IS8_EEE25__emplace_unique_key_argsIS3_JRKNS_21piecewise_construct_tENS_5tupleIJOS3_EEENSJ_IJEEEEEENS2_INS_15__tree_iteratorIS8_PNS_11__tree_nodeIS8_PvEElEEbEERKT_DpOT0_, symObjAddr: 0x13020, symBinAddr: 0x10001B78C, symSize: 0x100 }
  - { offsetInCU: 0x255DF, offset: 0x46313, size: 0x8, addend: 0x0, symName: __ZNKSt3__115__tree_iteratorINS_12__value_typeINS_4pairIiiEENS_6vectorIiNS_9allocatorIiEEEEEEPNS_11__tree_nodeIS8_PvEElEptB7v160006Ev, symObjAddr: 0x1314C, symBinAddr: 0x10001B8B8, symSize: 0x2C }
  - { offsetInCU: 0x25605, offset: 0x46339, size: 0x8, addend: 0x0, symName: __ZNSt3__16__treeINS_12__value_typeINS_4pairIiiEENS_6vectorIiNS_9allocatorIiEEEEEENS_19__map_value_compareIS3_S8_NS_4lessIS3_EELb1EEENS5_IS8_EEE12__find_equalIS3_EERPNS_16__tree_node_baseIPvEERPNS_15__tree_end_nodeISJ_EERKT_, symObjAddr: 0x13178, symBinAddr: 0x10001B8E4, symSize: 0x184 }
  - { offsetInCU: 0x25672, offset: 0x463A6, size: 0x8, addend: 0x0, symName: __ZNSt3__16__treeINS_12__value_typeINS_4pairIiiEENS_6vectorIiNS_9allocatorIiEEEEEENS_19__map_value_compareIS3_S8_NS_4lessIS3_EELb1EEENS5_IS8_EEE16__construct_nodeIJRKNS_21piecewise_construct_tENS_5tupleIJOS3_EEENSJ_IJEEEEEENS_10unique_ptrINS_11__tree_nodeIS8_PvEENS_22__tree_node_destructorINS5_ISQ_EEEEEEDpOT_, symObjAddr: 0x132FC, symBinAddr: 0x10001BA68, symSize: 0x120 }
  - { offsetInCU: 0x256FB, offset: 0x4642F, size: 0x8, addend: 0x0, symName: __ZNSt3__16__treeINS_12__value_typeINS_4pairIiiEENS_6vectorIiNS_9allocatorIiEEEEEENS_19__map_value_compareIS3_S8_NS_4lessIS3_EELb1EEENS5_IS8_EEE16__insert_node_atEPNS_15__tree_end_nodeIPNS_16__tree_node_baseIPvEEEERSJ_SJ_, symObjAddr: 0x1341C, symBinAddr: 0x10001BB88, symSize: 0xCC }
  - { offsetInCU: 0x25750, offset: 0x46484, size: 0x8, addend: 0x0, symName: __ZNKSt3__110unique_ptrINS_11__tree_nodeINS_12__value_typeINS_4pairIiiEENS_6vectorIiNS_9allocatorIiEEEEEEPvEENS_22__tree_node_destructorINS6_ISB_EEEEE3getB7v160006Ev, symObjAddr: 0x134E8, symBinAddr: 0x10001BC54, symSize: 0x28 }
  - { offsetInCU: 0x25776, offset: 0x464AA, size: 0x8, addend: 0x0, symName: __ZNSt3__110unique_ptrINS_11__tree_nodeINS_12__value_typeINS_4pairIiiEENS_6vectorIiNS_9allocatorIiEEEEEEPvEENS_22__tree_node_destructorINS6_ISB_EEEEE7releaseB7v160006Ev, symObjAddr: 0x13510, symBinAddr: 0x10001BC7C, symSize: 0x44 }
  - { offsetInCU: 0x257AB, offset: 0x464DF, size: 0x8, addend: 0x0, symName: __ZNSt3__110unique_ptrINS_11__tree_nodeINS_12__value_typeINS_4pairIiiEENS_6vectorIiNS_9allocatorIiEEEEEEPvEENS_22__tree_node_destructorINS6_ISB_EEEEED1B7v160006Ev, symObjAddr: 0x13554, symBinAddr: 0x10001BCC0, symSize: 0x2C }
  - { offsetInCU: 0x257D5, offset: 0x46509, size: 0x8, addend: 0x0, symName: __ZNSt3__115__tree_iteratorINS_12__value_typeINS_4pairIiiEENS_6vectorIiNS_9allocatorIiEEEEEEPNS_11__tree_nodeIS8_PvEElEC1B7v160006ESC_, symObjAddr: 0x13580, symBinAddr: 0x10001BCEC, symSize: 0x34 }
  - { offsetInCU: 0x25813, offset: 0x46547, size: 0x8, addend: 0x0, symName: __ZNSt3__14pairINS_15__tree_iteratorINS_12__value_typeINS0_IiiEENS_6vectorIiNS_9allocatorIiEEEEEEPNS_11__tree_nodeIS8_PvEElEEbEC1B7v160006ISD_RbLSA_0EEEOT_OT0_, symObjAddr: 0x135B4, symBinAddr: 0x10001BD20, symSize: 0x3C }
  - { offsetInCU: 0x25871, offset: 0x465A5, size: 0x8, addend: 0x0, symName: __ZNKSt3__16__treeINS_12__value_typeINS_4pairIiiEENS_6vectorIiNS_9allocatorIiEEEEEENS_19__map_value_compareIS3_S8_NS_4lessIS3_EELb1EEENS5_IS8_EEE10__root_ptrEv, symObjAddr: 0x135F0, symBinAddr: 0x10001BD5C, symSize: 0x24 }
  - { offsetInCU: 0x25897, offset: 0x465CB, size: 0x8, addend: 0x0, symName: __ZNSt3__16__treeINS_12__value_typeINS_4pairIiiEENS_6vectorIiNS_9allocatorIiEEEEEENS_19__map_value_compareIS3_S8_NS_4lessIS3_EELb1EEENS5_IS8_EEE10value_compB7v160006Ev, symObjAddr: 0x13614, symBinAddr: 0x10001BD80, symSize: 0x28 }
  - { offsetInCU: 0x258BD, offset: 0x465F1, size: 0x8, addend: 0x0, symName: __ZNKSt3__119__map_value_compareINS_4pairIiiEENS_12__value_typeIS2_NS_6vectorIiNS_9allocatorIiEEEEEENS_4lessIS2_EELb1EEclB7v160006ERKS2_RKS8_, symObjAddr: 0x1363C, symBinAddr: 0x10001BDA8, symSize: 0x50 }
  - { offsetInCU: 0x25901, offset: 0x46635, size: 0x8, addend: 0x0, symName: __ZNKSt3__119__map_value_compareINS_4pairIiiEENS_12__value_typeIS2_NS_6vectorIiNS_9allocatorIiEEEEEENS_4lessIS2_EELb1EEclB7v160006ERKS8_RKS2_, symObjAddr: 0x1368C, symBinAddr: 0x10001BDF8, symSize: 0x48 }
  - { offsetInCU: 0x25945, offset: 0x46679, size: 0x8, addend: 0x0, symName: __ZNSt3__117__compressed_pairImNS_19__map_value_compareINS_4pairIiiEENS_12__value_typeIS3_NS_6vectorIiNS_9allocatorIiEEEEEENS_4lessIS3_EELb1EEEE6secondB7v160006Ev, symObjAddr: 0x136D4, symBinAddr: 0x10001BE40, symSize: 0x24 }
  - { offsetInCU: 0x2596B, offset: 0x4669F, size: 0x8, addend: 0x0, symName: __ZNSt3__122__compressed_pair_elemINS_19__map_value_compareINS_4pairIiiEENS_12__value_typeIS3_NS_6vectorIiNS_9allocatorIiEEEEEENS_4lessIS3_EELb1EEELi1ELb1EE5__getB7v160006Ev, symObjAddr: 0x136F8, symBinAddr: 0x10001BE64, symSize: 0x14 }
  - { offsetInCU: 0x25991, offset: 0x466C5, size: 0x8, addend: 0x0, symName: __ZNKSt3__112__value_typeINS_4pairIiiEENS_6vectorIiNS_9allocatorIiEEEEE11__get_valueB7v160006Ev, symObjAddr: 0x1370C, symBinAddr: 0x10001BE78, symSize: 0x24 }
  - { offsetInCU: 0x259B7, offset: 0x466EB, size: 0x8, addend: 0x0, symName: __ZNSt3__116allocator_traitsINS_9allocatorINS_11__tree_nodeINS_12__value_typeINS_4pairIiiEENS_6vectorIiNS1_IiEEEEEEPvEEEEE8allocateB7v160006ERSC_m, symObjAddr: 0x13768, symBinAddr: 0x10001BED4, symSize: 0x2C }
  - { offsetInCU: 0x259EA, offset: 0x4671E, size: 0x8, addend: 0x0, symName: __ZNSt3__122__tree_node_destructorINS_9allocatorINS_11__tree_nodeINS_12__value_typeINS_4pairIiiEENS_6vectorIiNS1_IiEEEEEEPvEEEEEC1B7v160006ERSC_b, symObjAddr: 0x13794, symBinAddr: 0x10001BF00, symSize: 0x48 }
  - { offsetInCU: 0x25A37, offset: 0x4676B, size: 0x8, addend: 0x0, symName: __ZNSt3__110unique_ptrINS_11__tree_nodeINS_12__value_typeINS_4pairIiiEENS_6vectorIiNS_9allocatorIiEEEEEEPvEENS_22__tree_node_destructorINS6_ISB_EEEEEC1B7v160006ILb1EvEEPSB_NS_16__dependent_typeINS_27__unique_ptr_deleter_sfinaeISE_EEXT_EE20__good_rval_ref_typeE, symObjAddr: 0x137DC, symBinAddr: 0x10001BF48, symSize: 0x3C }
  - { offsetInCU: 0x25A88, offset: 0x467BC, size: 0x8, addend: 0x0, symName: __ZNSt3__116allocator_traitsINS_9allocatorINS_11__tree_nodeINS_12__value_typeINS_4pairIiiEENS_6vectorIiNS1_IiEEEEEEPvEEEEE9constructB7v160006INS4_IKS5_S8_EEJRKNS_21piecewise_construct_tENS_5tupleIJOS5_EEENSK_IJEEEEvvEEvRSC_PT_DpOT0_, symObjAddr: 0x13818, symBinAddr: 0x10001BF84, symSize: 0x40 }
  - { offsetInCU: 0x25B05, offset: 0x46839, size: 0x8, addend: 0x0, symName: __ZNKSt3__110unique_ptrINS_11__tree_nodeINS_12__value_typeINS_4pairIiiEENS_6vectorIiNS_9allocatorIiEEEEEEPvEENS_22__tree_node_destructorINS6_ISB_EEEEEptB7v160006Ev, symObjAddr: 0x13858, symBinAddr: 0x10001BFC4, symSize: 0x28 }
  - { offsetInCU: 0x25B2B, offset: 0x4685F, size: 0x8, addend: 0x0, symName: __ZNSt3__110unique_ptrINS_11__tree_nodeINS_12__value_typeINS_4pairIiiEENS_6vectorIiNS_9allocatorIiEEEEEEPvEENS_22__tree_node_destructorINS6_ISB_EEEEE11get_deleterB7v160006Ev, symObjAddr: 0x13880, symBinAddr: 0x10001BFEC, symSize: 0x24 }
  - { offsetInCU: 0x25B51, offset: 0x46885, size: 0x8, addend: 0x0, symName: __ZNSt3__19allocatorINS_11__tree_nodeINS_12__value_typeINS_4pairIiiEENS_6vectorIiNS0_IiEEEEEEPvEEE8allocateB7v160006Em, symObjAddr: 0x138A4, symBinAddr: 0x10001C010, symSize: 0x58 }
  - { offsetInCU: 0x25B8F, offset: 0x468C3, size: 0x8, addend: 0x0, symName: __ZNSt3__116allocator_traitsINS_9allocatorINS_11__tree_nodeINS_12__value_typeINS_4pairIiiEENS_6vectorIiNS1_IiEEEEEEPvEEEEE8max_sizeB7v160006ISC_vvEEmRKSC_, symObjAddr: 0x138FC, symBinAddr: 0x10001C068, symSize: 0x28 }
  - { offsetInCU: 0x25BBB, offset: 0x468EF, size: 0x8, addend: 0x0, symName: __ZNSt3__122__tree_node_destructorINS_9allocatorINS_11__tree_nodeINS_12__value_typeINS_4pairIiiEENS_6vectorIiNS1_IiEEEEEEPvEEEEEC2B7v160006ERSC_b, symObjAddr: 0x13924, symBinAddr: 0x10001C090, symSize: 0x38 }
  - { offsetInCU: 0x25C03, offset: 0x46937, size: 0x8, addend: 0x0, symName: __ZNSt3__110unique_ptrINS_11__tree_nodeINS_12__value_typeINS_4pairIiiEENS_6vectorIiNS_9allocatorIiEEEEEEPvEENS_22__tree_node_destructorINS6_ISB_EEEEEC2B7v160006ILb1EvEEPSB_NS_16__dependent_typeINS_27__unique_ptr_deleter_sfinaeISE_EEXT_EE20__good_rval_ref_typeE, symObjAddr: 0x1395C, symBinAddr: 0x10001C0C8, symSize: 0x48 }
  - { offsetInCU: 0x25C54, offset: 0x46988, size: 0x8, addend: 0x0, symName: __ZNSt3__117__compressed_pairIPNS_11__tree_nodeINS_12__value_typeINS_4pairIiiEENS_6vectorIiNS_9allocatorIiEEEEEEPvEENS_22__tree_node_destructorINS6_ISB_EEEEEC1B7v160006IRSC_SF_EEOT_OT0_, symObjAddr: 0x139A4, symBinAddr: 0x10001C110, symSize: 0x3C }
  - { offsetInCU: 0x25CAC, offset: 0x469E0, size: 0x8, addend: 0x0, symName: __ZNSt3__117__compressed_pairIPNS_11__tree_nodeINS_12__value_typeINS_4pairIiiEENS_6vectorIiNS_9allocatorIiEEEEEEPvEENS_22__tree_node_destructorINS6_ISB_EEEEEC2B7v160006IRSC_SF_EEOT_OT0_, symObjAddr: 0x139E0, symBinAddr: 0x10001C14C, symSize: 0x48 }
  - { offsetInCU: 0x25D04, offset: 0x46A38, size: 0x8, addend: 0x0, symName: __ZNSt3__122__compressed_pair_elemIPNS_11__tree_nodeINS_12__value_typeINS_4pairIiiEENS_6vectorIiNS_9allocatorIiEEEEEEPvEELi0ELb0EEC2B7v160006IRSC_vEEOT_, symObjAddr: 0x13A28, symBinAddr: 0x10001C194, symSize: 0x24 }
  - { offsetInCU: 0x25D46, offset: 0x46A7A, size: 0x8, addend: 0x0, symName: __ZNSt3__122__compressed_pair_elemINS_22__tree_node_destructorINS_9allocatorINS_11__tree_nodeINS_12__value_typeINS_4pairIiiEENS_6vectorIiNS2_IiEEEEEEPvEEEEEELi1ELb0EEC2B7v160006ISE_vEEOT_, symObjAddr: 0x13A4C, symBinAddr: 0x10001C1B8, symSize: 0x24 }
  - { offsetInCU: 0x25D88, offset: 0x46ABC, size: 0x8, addend: 0x0, symName: __ZNSt3__14pairIKNS0_IiiEENS_6vectorIiNS_9allocatorIiEEEEEC1B7v160006IJOS1_EJEEENS_21piecewise_construct_tENS_5tupleIJDpT_EEENSB_IJDpT0_EEE, symObjAddr: 0x13AC0, symBinAddr: 0x10001C22C, symSize: 0x44 }
  - { offsetInCU: 0x25DEF, offset: 0x46B23, size: 0x8, addend: 0x0, symName: __ZNSt3__14pairIKNS0_IiiEENS_6vectorIiNS_9allocatorIiEEEEEC1B7v160006IJOS1_EJEJLm0EEJEEENS_21piecewise_construct_tERNS_5tupleIJDpT_EEERNSB_IJDpT0_EEENS_15__tuple_indicesIJXspT1_EEEENSK_IJXspT2_EEEE, symObjAddr: 0x13B04, symBinAddr: 0x10001C270, symSize: 0x3C }
  - { offsetInCU: 0x25E7F, offset: 0x46BB3, size: 0x8, addend: 0x0, symName: __ZNSt3__14pairIKNS0_IiiEENS_6vectorIiNS_9allocatorIiEEEEEC2B7v160006IJOS1_EJEJLm0EEJEEENS_21piecewise_construct_tERNS_5tupleIJDpT_EEERNSB_IJDpT0_EEENS_15__tuple_indicesIJXspT1_EEEENSK_IJXspT2_EEEE, symObjAddr: 0x13B40, symBinAddr: 0x10001C2AC, symSize: 0x4C }
  - { offsetInCU: 0x25F0F, offset: 0x46C43, size: 0x8, addend: 0x0, symName: __ZNSt3__16vectorIiNS_9allocatorIiEEEC1B7v160006Ev, symObjAddr: 0x13BB0, symBinAddr: 0x10001C31C, symSize: 0x2C }
  - { offsetInCU: 0x25F39, offset: 0x46C6D, size: 0x8, addend: 0x0, symName: __ZNSt3__112__tuple_leafILm0EONS_4pairIiiEELb0EE3getB7v160006Ev, symObjAddr: 0x13BDC, symBinAddr: 0x10001C348, symSize: 0x18 }
  - { offsetInCU: 0x25F5F, offset: 0x46C93, size: 0x8, addend: 0x0, symName: __ZNSt3__16vectorIiNS_9allocatorIiEEEC2B7v160006Ev, symObjAddr: 0x13BF4, symBinAddr: 0x10001C360, symSize: 0x54 }
  - { offsetInCU: 0x25F89, offset: 0x46CBD, size: 0x8, addend: 0x0, symName: __ZNSt3__117__compressed_pairIPiNS_9allocatorIiEEEC1B7v160006IDnNS_18__default_init_tagEEEOT_OT0_, symObjAddr: 0x13C48, symBinAddr: 0x10001C3B4, symSize: 0x3C }
  - { offsetInCU: 0x25FE1, offset: 0x46D15, size: 0x8, addend: 0x0, symName: __ZNSt3__117__compressed_pairIPiNS_9allocatorIiEEEC2B7v160006IDnNS_18__default_init_tagEEEOT_OT0_, symObjAddr: 0x13C84, symBinAddr: 0x10001C3F0, symSize: 0x40 }
  - { offsetInCU: 0x26039, offset: 0x46D6D, size: 0x8, addend: 0x0, symName: __ZNSt3__122__compressed_pair_elemINS_9allocatorIiEELi1ELb1EEC2B7v160006ENS_18__default_init_tagE, symObjAddr: 0x13CC4, symBinAddr: 0x10001C430, symSize: 0x2C }
  - { offsetInCU: 0x2606E, offset: 0x46DA2, size: 0x8, addend: 0x0, symName: __ZNSt3__19allocatorIiEC2B7v160006Ev, symObjAddr: 0x13CF0, symBinAddr: 0x10001C45C, symSize: 0x2C }
  - { offsetInCU: 0x26098, offset: 0x46DCC, size: 0x8, addend: 0x0, symName: __ZNSt3__116__non_trivial_ifILb1ENS_9allocatorIiEEEC2B7v160006Ev, symObjAddr: 0x13D1C, symBinAddr: 0x10001C488, symSize: 0x14 }
  - { offsetInCU: 0x260C2, offset: 0x46DF6, size: 0x8, addend: 0x0, symName: __ZNKSt3__117__compressed_pairIPNS_11__tree_nodeINS_12__value_typeINS_4pairIiiEENS_6vectorIiNS_9allocatorIiEEEEEEPvEENS_22__tree_node_destructorINS6_ISB_EEEEE5firstB7v160006Ev, symObjAddr: 0x13D30, symBinAddr: 0x10001C49C, symSize: 0x24 }
  - { offsetInCU: 0x260E8, offset: 0x46E1C, size: 0x8, addend: 0x0, symName: __ZNKSt3__122__compressed_pair_elemIPNS_11__tree_nodeINS_12__value_typeINS_4pairIiiEENS_6vectorIiNS_9allocatorIiEEEEEEPvEELi0ELb0EE5__getB7v160006Ev, symObjAddr: 0x13D54, symBinAddr: 0x10001C4C0, symSize: 0x14 }
  - { offsetInCU: 0x2610E, offset: 0x46E42, size: 0x8, addend: 0x0, symName: __ZNSt3__117__compressed_pairIPNS_11__tree_nodeINS_12__value_typeINS_4pairIiiEENS_6vectorIiNS_9allocatorIiEEEEEEPvEENS_22__tree_node_destructorINS6_ISB_EEEEE6secondB7v160006Ev, symObjAddr: 0x13D68, symBinAddr: 0x10001C4D4, symSize: 0x28 }
  - { offsetInCU: 0x26134, offset: 0x46E68, size: 0x8, addend: 0x0, symName: __ZNSt3__122__compressed_pair_elemINS_22__tree_node_destructorINS_9allocatorINS_11__tree_nodeINS_12__value_typeINS_4pairIiiEENS_6vectorIiNS2_IiEEEEEEPvEEEEEELi1ELb0EE5__getB7v160006Ev, symObjAddr: 0x13D90, symBinAddr: 0x10001C4FC, symSize: 0x14 }
  - { offsetInCU: 0x2615A, offset: 0x46E8E, size: 0x8, addend: 0x0, symName: __ZNSt3__16__treeINS_12__value_typeINS_4pairIiiEENS_6vectorIiNS_9allocatorIiEEEEEENS_19__map_value_compareIS3_S8_NS_4lessIS3_EELb1EEENS5_IS8_EEE4sizeB7v160006Ev, symObjAddr: 0x13DA4, symBinAddr: 0x10001C510, symSize: 0x28 }
  - { offsetInCU: 0x26180, offset: 0x46EB4, size: 0x8, addend: 0x0, symName: __ZNSt3__117__compressed_pairImNS_19__map_value_compareINS_4pairIiiEENS_12__value_typeIS3_NS_6vectorIiNS_9allocatorIiEEEEEENS_4lessIS3_EELb1EEEE5firstB7v160006Ev, symObjAddr: 0x13DCC, symBinAddr: 0x10001C538, symSize: 0x24 }
  - { offsetInCU: 0x261A6, offset: 0x46EDA, size: 0x8, addend: 0x0, symName: __ZNSt3__117__compressed_pairIPNS_11__tree_nodeINS_12__value_typeINS_4pairIiiEENS_6vectorIiNS_9allocatorIiEEEEEEPvEENS_22__tree_node_destructorINS6_ISB_EEEEE5firstB7v160006Ev, symObjAddr: 0x13DF0, symBinAddr: 0x10001C55C, symSize: 0x24 }
  - { offsetInCU: 0x261CC, offset: 0x46F00, size: 0x8, addend: 0x0, symName: __ZNSt3__122__compressed_pair_elemIPNS_11__tree_nodeINS_12__value_typeINS_4pairIiiEENS_6vectorIiNS_9allocatorIiEEEEEEPvEELi0ELb0EE5__getB7v160006Ev, symObjAddr: 0x13E14, symBinAddr: 0x10001C580, symSize: 0x14 }
  - { offsetInCU: 0x261F2, offset: 0x46F26, size: 0x8, addend: 0x0, symName: __ZNSt3__110unique_ptrINS_11__tree_nodeINS_12__value_typeINS_4pairIiiEENS_6vectorIiNS_9allocatorIiEEEEEEPvEENS_22__tree_node_destructorINS6_ISB_EEEEED2B7v160006Ev, symObjAddr: 0x13E28, symBinAddr: 0x10001C594, symSize: 0x30 }
  - { offsetInCU: 0x2621C, offset: 0x46F50, size: 0x8, addend: 0x0, symName: __ZNSt3__110unique_ptrINS_11__tree_nodeINS_12__value_typeINS_4pairIiiEENS_6vectorIiNS_9allocatorIiEEEEEEPvEENS_22__tree_node_destructorINS6_ISB_EEEEE5resetB7v160006EPSB_, symObjAddr: 0x13E58, symBinAddr: 0x10001C5C4, symSize: 0x78 }
  - { offsetInCU: 0x26260, offset: 0x46F94, size: 0x8, addend: 0x0, symName: __ZNSt3__122__tree_node_destructorINS_9allocatorINS_11__tree_nodeINS_12__value_typeINS_4pairIiiEENS_6vectorIiNS1_IiEEEEEEPvEEEEEclB7v160006EPSB_, symObjAddr: 0x13ED0, symBinAddr: 0x10001C63C, symSize: 0x98 }
  - { offsetInCU: 0x26295, offset: 0x46FC9, size: 0x8, addend: 0x0, symName: __ZNSt3__115__tree_iteratorINS_12__value_typeINS_4pairIiiEENS_6vectorIiNS_9allocatorIiEEEEEEPNS_11__tree_nodeIS8_PvEElEC2B7v160006ESC_, symObjAddr: 0x13F68, symBinAddr: 0x10001C6D4, symSize: 0x20 }
  - { offsetInCU: 0x262CE, offset: 0x47002, size: 0x8, addend: 0x0, symName: __ZNSt3__14pairINS_15__tree_iteratorINS_12__value_typeINS0_IiiEENS_6vectorIiNS_9allocatorIiEEEEEEPNS_11__tree_nodeIS8_PvEElEEbEC2B7v160006ISD_RbLSA_0EEEOT_OT0_, symObjAddr: 0x13F88, symBinAddr: 0x10001C6F4, symSize: 0x38 }
  - { offsetInCU: 0x2632C, offset: 0x47060, size: 0x8, addend: 0x0, symName: __ZNSt3__15tupleIJONS_4pairIiiEEEEC1B7v160006IJS2_ELi0EEEDpOT_, symObjAddr: 0x13FC0, symBinAddr: 0x10001C72C, symSize: 0x34 }
  - { offsetInCU: 0x26376, offset: 0x470AA, size: 0x8, addend: 0x0, symName: __ZNSt3__15tupleIJONS_4pairIiiEEEEC2B7v160006IJS2_ELi0EEEDpOT_, symObjAddr: 0x13FF4, symBinAddr: 0x10001C760, symSize: 0x34 }
  - { offsetInCU: 0x263C0, offset: 0x470F4, size: 0x8, addend: 0x0, symName: __ZNSt3__112__tuple_implINS_15__tuple_indicesIJLm0EEEEJONS_4pairIiiEEEEC1B7v160006IJLm0EEJS5_EJEJEJS4_EEENS1_IJXspT_EEEENS_13__tuple_typesIJDpT0_EEENS1_IJXspT1_EEEENS9_IJDpT2_EEEDpOT3_, symObjAddr: 0x14028, symBinAddr: 0x10001C794, symSize: 0x34 }
  - { offsetInCU: 0x26455, offset: 0x47189, size: 0x8, addend: 0x0, symName: __ZNSt3__112__tuple_implINS_15__tuple_indicesIJLm0EEEEJONS_4pairIiiEEEEC2B7v160006IJLm0EEJS5_EJEJEJS4_EEENS1_IJXspT_EEEENS_13__tuple_typesIJDpT0_EEENS1_IJXspT1_EEEENS9_IJDpT2_EEEDpOT3_, symObjAddr: 0x1405C, symBinAddr: 0x10001C7C8, symSize: 0x34 }
  - { offsetInCU: 0x264EA, offset: 0x4721E, size: 0x8, addend: 0x0, symName: __ZNSt3__112__tuple_leafILm0EONS_4pairIiiEELb0EEC2B7v160006IS2_vEEOT_, symObjAddr: 0x14090, symBinAddr: 0x10001C7FC, symSize: 0x20 }
  - { offsetInCU: 0x2652D, offset: 0x47261, size: 0x8, addend: 0x0, symName: __ZNSt3__114pointer_traitsIPNS_12__value_typeINS_4pairIiiEENS_6vectorIiNS_9allocatorIiEEEEEEE10pointer_toB7v160006ERS8_, symObjAddr: 0x140B0, symBinAddr: 0x10001C81C, symSize: 0x14 }
  - { offsetInCU: 0x26550, offset: 0x47284, size: 0x8, addend: 0x0, symName: __ZNKSt3__115__tree_iteratorINS_12__value_typeINS_4pairIiiEENS_6vectorIiNS_9allocatorIiEEEEEEPNS_11__tree_nodeIS8_PvEElE8__get_npB7v160006Ev, symObjAddr: 0x140C4, symBinAddr: 0x10001C830, symSize: 0x18 }
  - { offsetInCU: 0x26576, offset: 0x472AA, size: 0x8, addend: 0x0, symName: __ZNSt3__16__treeINS_12__value_typeINS_4pairIiiEENS_6vectorIiNS_9allocatorIiEEEEEENS_19__map_value_compareIS3_S8_NS_4lessIS3_EELb1EEENS5_IS8_EEE5beginB7v160006Ev, symObjAddr: 0x140DC, symBinAddr: 0x10001C848, symSize: 0x34 }
  - { offsetInCU: 0x2659C, offset: 0x472D0, size: 0x8, addend: 0x0, symName: __ZNSt3__114__map_iteratorINS_15__tree_iteratorINS_12__value_typeINS_4pairIiiEENS_6vectorIiNS_9allocatorIiEEEEEEPNS_11__tree_nodeIS9_PvEElEEEC1B7v160006ESE_, symObjAddr: 0x14110, symBinAddr: 0x10001C87C, symSize: 0x34 }
  - { offsetInCU: 0x265D5, offset: 0x47309, size: 0x8, addend: 0x0, symName: __ZNSt3__115__tree_iteratorINS_12__value_typeINS_4pairIiiEENS_6vectorIiNS_9allocatorIiEEEEEEPNS_11__tree_nodeIS8_PvEElEC1B7v160006EPNS_15__tree_end_nodeIPNS_16__tree_node_baseISA_EEEE, symObjAddr: 0x14144, symBinAddr: 0x10001C8B0, symSize: 0x34 }
  - { offsetInCU: 0x2660E, offset: 0x47342, size: 0x8, addend: 0x0, symName: __ZNSt3__115__tree_iteratorINS_12__value_typeINS_4pairIiiEENS_6vectorIiNS_9allocatorIiEEEEEEPNS_11__tree_nodeIS8_PvEElEC2B7v160006EPNS_15__tree_end_nodeIPNS_16__tree_node_baseISA_EEEE, symObjAddr: 0x14178, symBinAddr: 0x10001C8E4, symSize: 0x20 }
  - { offsetInCU: 0x26647, offset: 0x4737B, size: 0x8, addend: 0x0, symName: __ZNSt3__114__map_iteratorINS_15__tree_iteratorINS_12__value_typeINS_4pairIiiEENS_6vectorIiNS_9allocatorIiEEEEEEPNS_11__tree_nodeIS9_PvEElEEEC2B7v160006ESE_, symObjAddr: 0x14198, symBinAddr: 0x10001C904, symSize: 0x20 }
  - { offsetInCU: 0x26680, offset: 0x473B4, size: 0x8, addend: 0x0, symName: __ZNSt3__16__treeINS_12__value_typeINS_4pairIiiEENS_6vectorIiNS_9allocatorIiEEEEEENS_19__map_value_compareIS3_S8_NS_4lessIS3_EELb1EEENS5_IS8_EEE3endB7v160006Ev, symObjAddr: 0x141B8, symBinAddr: 0x10001C924, symSize: 0x34 }
  - { offsetInCU: 0x266A6, offset: 0x473DA, size: 0x8, addend: 0x0, symName: __ZNSt3__115__tree_iteratorINS_12__value_typeINS_4pairIiiEENS_6vectorIiNS_9allocatorIiEEEEEEPNS_11__tree_nodeIS8_PvEElEppB7v160006Ev, symObjAddr: 0x14250, symBinAddr: 0x10001C9BC, symSize: 0x38 }
  - { offsetInCU: 0x4CA2, offset: 0x4C475, size: 0x8, addend: 0x0, symName: __ZNSt3__17advanceB7v160006IP10ChromosomellvEEvRT_T0_, symObjAddr: 0x6C48, symBinAddr: 0x100022B24, symSize: 0x50 }
  - { offsetInCU: 0x5065, offset: 0x4C838, size: 0x8, addend: 0x0, symName: __ZNSt3__17advanceB7v160006INS_16reverse_iteratorIP10ChromosomeEEllvEEvRT_T0_, symObjAddr: 0x81C0, symBinAddr: 0x100023C10, symSize: 0x50 }
  - { offsetInCU: 0x746D, offset: 0x4EC40, size: 0x8, addend: 0x0, symName: __ZNSt3__17advanceB7v160006IP8TimeSlotllvEEvRT_T0_, symObjAddr: 0xBBE4, symBinAddr: 0x1000255CC, symSize: 0x50 }
  - { offsetInCU: 0x76EE, offset: 0x4EEC1, size: 0x8, addend: 0x0, symName: __ZNSt3__17advanceB7v160006INS_16reverse_iteratorIP8TimeSlotEEllvEEvRT_T0_, symObjAddr: 0xC040, symBinAddr: 0x1000259B8, symSize: 0x50 }
  - { offsetInCU: 0x99E1, offset: 0x511B4, size: 0x8, addend: 0x0, symName: '__ZNSt3__111min_elementB7v160006INS_11__wrap_iterIP10ChromosomeEEZN16GeneticAlgorithm13selectParentsEvE3$_0EET_S7_S7_T0_', symObjAddr: 0x4EC, symBinAddr: 0x10001CE8C, symSize: 0x48 }
  - { offsetInCU: 0x9A3C, offset: 0x5120F, size: 0x8, addend: 0x0, symName: __ZNSt3__14swapB7v160006IiEENS_9enable_ifIXaasr21is_move_constructibleIT_EE5valuesr18is_move_assignableIS2_EE5valueEvE4typeERS2_S5_, symObjAddr: 0xCA0, symBinAddr: 0x10001D574, symSize: 0x3C }
  - { offsetInCU: 0x9A8E, offset: 0x51261, size: 0x8, addend: 0x0, symName: __ZNSt3__1neB7v160006IP8TimeSlotEEbRKNS_11__wrap_iterIT_EES7_, symObjAddr: 0x12CC, symBinAddr: 0x10001DA4C, symSize: 0x34 }
  - { offsetInCU: 0x9AD1, offset: 0x512A4, size: 0x8, addend: 0x0, symName: __ZNSt3__1neB7v160006IPK10ChromosomeEEbRKNS_11__wrap_iterIT_EES8_, symObjAddr: 0x1378, symBinAddr: 0x10001DAF8, symSize: 0x34 }
  - { offsetInCU: 0x9B14, offset: 0x512E7, size: 0x8, addend: 0x0, symName: __ZNSt3__1eqB7v160006INS_9allocatorIcEEEEbRKNS_12basic_stringIcNS_11char_traitsIcEET_EES9_, symObjAddr: 0x1470, symBinAddr: 0x10001DB44, symSize: 0x148 }
  - { offsetInCU: 0x9B87, offset: 0x5135A, size: 0x8, addend: 0x0, symName: __ZNSt3__1neB7v160006IP10ChromosomeEEbRKNS_11__wrap_iterIT_EES7_, symObjAddr: 0x2550, symBinAddr: 0x10001EA0C, symSize: 0x34 }
  - { offsetInCU: 0x9BCA, offset: 0x5139D, size: 0x8, addend: 0x0, symName: __ZNSt3__1neB7v160006IPdEEbRKNS_11__wrap_iterIT_EES6_, symObjAddr: 0x5808, symBinAddr: 0x100021C10, symSize: 0x34 }
  - { offsetInCU: 0x9C0D, offset: 0x513E0, size: 0x8, addend: 0x0, symName: __ZNSt3__122__make_exception_guardB7v160006INS_6vectorI10ChromosomeNS_9allocatorIS2_EEE16__destroy_vectorEEENS_28__exception_guard_exceptionsIT_EES8_, symObjAddr: 0x5BC4, symBinAddr: 0x100021FA0, symSize: 0x40 }
  - { offsetInCU: 0x9C42, offset: 0x51415, size: 0x8, addend: 0x0, symName: __ZNSt3__119__debug_db_insert_cB7v160006INS_6vectorI10ChromosomeNS_9allocatorIS2_EEEEEEvPT_, symObjAddr: 0x5C38, symBinAddr: 0x100021FE0, symSize: 0x10 }
  - { offsetInCU: 0x9C73, offset: 0x51446, size: 0x8, addend: 0x0, symName: __ZNSt3__119__allocate_at_leastB7v160006INS_9allocatorI10ChromosomeEEEENS_19__allocation_resultINS_16allocator_traitsIT_E7pointerEEERS6_m, symObjAddr: 0x5F74, symBinAddr: 0x1000222FC, symSize: 0x40 }
  - { offsetInCU: 0x9CB6, offset: 0x51489, size: 0x8, addend: 0x0, symName: __ZNSt3__130__uninitialized_allocator_copyB7v160006INS_9allocatorI10ChromosomeEEPS2_S4_S4_EET2_RT_T0_T1_S5_, symObjAddr: 0x65D8, symBinAddr: 0x100022524, symSize: 0xF4 }
  - { offsetInCU: 0x9D54, offset: 0x51527, size: 0x8, addend: 0x0, symName: __ZNSt3__122__make_exception_guardB7v160006INS_29_AllocatorDestroyRangeReverseINS_9allocatorI10ChromosomeEEPS3_EEEENS_28__exception_guard_exceptionsIT_EES8_, symObjAddr: 0x6744, symBinAddr: 0x100022690, symSize: 0x4C }
  - { offsetInCU: 0x9DB1, offset: 0x51584, size: 0x8, addend: 0x0, symName: __ZNSt3__112construct_atB7v160006I10ChromosomeJRS1_EPS1_EEPT_S5_DpOT0_, symObjAddr: 0x68E8, symBinAddr: 0x100022834, symSize: 0x3C }
  - { offsetInCU: 0x9E23, offset: 0x515F6, size: 0x8, addend: 0x0, symName: __ZNSt3__119__allocator_destroyB7v160006INS_9allocatorI10ChromosomeEENS_16reverse_iteratorIPS2_EES6_EEvRT_T0_T1_, symObjAddr: 0x69DC, symBinAddr: 0x100022928, symSize: 0x70 }
  - { offsetInCU: 0x9E86, offset: 0x51659, size: 0x8, addend: 0x0, symName: __ZNSt3__1neB7v160006IP10ChromosomeS2_EEbRKNS_16reverse_iteratorIT_EERKNS3_IT0_EE, symObjAddr: 0x6A80, symBinAddr: 0x1000229CC, symSize: 0x48 }
  - { offsetInCU: 0x9ED2, offset: 0x516A5, size: 0x8, addend: 0x0, symName: __ZNSt3__112__to_addressB7v160006INS_16reverse_iteratorIP10ChromosomeEEvEENS_5decayIDTclsr19__to_address_helperIT_EE6__callclsr3stdE7declvalIRKS6_EEEEE4typeES8_, symObjAddr: 0x6AF0, symBinAddr: 0x100022A14, symSize: 0x24 }
  - { offsetInCU: 0x9F31, offset: 0x51704, size: 0x8, addend: 0x0, symName: __ZNSt3__14prevB7v160006IP10ChromosomeEENS_9enable_ifIXsr25__is_cpp17_input_iteratorIT_EE5valueES4_E4typeES4_NS_15iterator_traitsIS4_E15difference_typeE, symObjAddr: 0x6BF8, symBinAddr: 0x100022AD4, symSize: 0x50 }
  - { offsetInCU: 0x9F74, offset: 0x51747, size: 0x8, addend: 0x0, symName: __ZNSt3__19__advanceB7v160006IP10ChromosomeEEvRT_NS_15iterator_traitsIS3_E15difference_typeENS_26random_access_iterator_tagE, symObjAddr: 0x6CAC, symBinAddr: 0x100022B74, symSize: 0x30 }
  - { offsetInCU: 0x9FBE, offset: 0x51791, size: 0x8, addend: 0x0, symName: __ZNSt3__119__debug_db_insert_cB7v160006INS_6vectorIdNS_9allocatorIdEEEEEEvPT_, symObjAddr: 0x71BC, symBinAddr: 0x100022CD0, symSize: 0x10 }
  - { offsetInCU: 0x9FEF, offset: 0x517C2, size: 0x8, addend: 0x0, symName: __ZNSt3__112construct_atB7v160006I10ChromosomeJRKS1_EPS1_EEPT_S6_DpOT0_, symObjAddr: 0x75AC, symBinAddr: 0x10002307C, symSize: 0x3C }
  - { offsetInCU: 0xA061, offset: 0x51834, size: 0x8, addend: 0x0, symName: __ZNSt3__142__uninitialized_allocator_move_if_noexceptB7v160006INS_9allocatorI10ChromosomeEENS_16reverse_iteratorIPS2_EES6_S6_EET2_RT_T0_T1_S7_, symObjAddr: 0x7ADC, symBinAddr: 0x10002352C, symSize: 0x124 }
  - { offsetInCU: 0xA101, offset: 0x518D4, size: 0x8, addend: 0x0, symName: __ZNSt3__14swapB7v160006IP10ChromosomeEENS_9enable_ifIXaasr21is_move_constructibleIT_EE5valuesr18is_move_assignableIS4_EE5valueEvE4typeERS4_S7_, symObjAddr: 0x7C00, symBinAddr: 0x100023650, symSize: 0x3C }
  - { offsetInCU: 0xA153, offset: 0x51926, size: 0x8, addend: 0x0, symName: __ZNSt3__125__debug_db_invalidate_allB7v160006INS_6vectorI10ChromosomeNS_9allocatorIS2_EEEEEEvPT_, symObjAddr: 0x7C3C, symBinAddr: 0x10002368C, symSize: 0x10 }
  - { offsetInCU: 0xA184, offset: 0x51957, size: 0x8, addend: 0x0, symName: __ZNSt3__122__make_exception_guardB7v160006INS_29_AllocatorDestroyRangeReverseINS_9allocatorI10ChromosomeEENS_16reverse_iteratorIPS3_EEEEEENS_28__exception_guard_exceptionsIT_EESA_, symObjAddr: 0x7C4C, symBinAddr: 0x10002369C, symSize: 0x4C }
  - { offsetInCU: 0xA1BA, offset: 0x5198D, size: 0x8, addend: 0x0, symName: __ZNSt3__112construct_atB7v160006I10ChromosomeJS1_EPS1_EEPT_S4_DpOT0_, symObjAddr: 0x7E18, symBinAddr: 0x100023868, symSize: 0x3C }
  - { offsetInCU: 0xA22C, offset: 0x519FF, size: 0x8, addend: 0x0, symName: __ZNSt3__119__allocator_destroyB7v160006INS_9allocatorI10ChromosomeEENS_16reverse_iteratorINS4_IPS2_EEEES7_EEvRT_T0_T1_, symObjAddr: 0x7F58, symBinAddr: 0x1000239A8, symSize: 0x70 }
  - { offsetInCU: 0xA291, offset: 0x51A64, size: 0x8, addend: 0x0, symName: __ZNSt3__1neB7v160006INS_16reverse_iteratorIP10ChromosomeEES4_EEbRKNS1_IT_EERKNS1_IT0_EE, symObjAddr: 0x8004, symBinAddr: 0x100023A54, symSize: 0x60 }
  - { offsetInCU: 0xA2DD, offset: 0x51AB0, size: 0x8, addend: 0x0, symName: __ZNSt3__112__to_addressB7v160006INS_16reverse_iteratorINS1_IP10ChromosomeEEEEvEENS_5decayIDTclsr19__to_address_helperIT_EE6__callclsr3stdE7declvalIRKS7_EEEEE4typeES9_, symObjAddr: 0x8064, symBinAddr: 0x100023AB4, symSize: 0x24 }
  - { offsetInCU: 0xA33C, offset: 0x51B0F, size: 0x8, addend: 0x0, symName: __ZNSt3__14prevB7v160006INS_16reverse_iteratorIP10ChromosomeEEEENS_9enable_ifIXsr25__is_cpp17_input_iteratorIT_EE5valueES6_E4typeES6_NS_15iterator_traitsIS6_E15difference_typeE, symObjAddr: 0x8160, symBinAddr: 0x100023BB0, symSize: 0x60 }
  - { offsetInCU: 0xA37F, offset: 0x51B52, size: 0x8, addend: 0x0, symName: __ZNSt3__19__advanceB7v160006INS_16reverse_iteratorIP10ChromosomeEEEEvRT_NS_15iterator_traitsIS5_E15difference_typeENS_26random_access_iterator_tagE, symObjAddr: 0x8210, symBinAddr: 0x100023C60, symSize: 0x2C }
  - { offsetInCU: 0xA3C9, offset: 0x51B9C, size: 0x8, addend: 0x0, symName: '__ZNSt3__113__min_elementB7v160006IRZN16GeneticAlgorithm13selectParentsEvE3$_0NS_11__wrap_iterIP10ChromosomeEES7_EET0_S8_T1_T_', symObjAddr: 0x84A4, symBinAddr: 0x100023EF4, symSize: 0x5C }
  - { offsetInCU: 0xA43C, offset: 0x51C0F, size: 0x8, addend: 0x0, symName: '__ZNSt3__113__min_elementB7v160006IRZN16GeneticAlgorithm13selectParentsEvE3$_0NS_11__wrap_iterIP10ChromosomeEES7_NS_10__identityEEET0_S9_T1_T_RT2_', symObjAddr: 0x8500, symBinAddr: 0x100023F50, symSize: 0xF0 }
  - { offsetInCU: 0xA4C6, offset: 0x51C99, size: 0x8, addend: 0x0, symName: __ZNSt3__1eqB7v160006IP10ChromosomeEEbRKNS_11__wrap_iterIT_EES7_, symObjAddr: 0x85F0, symBinAddr: 0x100024040, symSize: 0x48 }
  - { offsetInCU: 0xA509, offset: 0x51CDC, size: 0x8, addend: 0x0, symName: '__ZNSt3__18__invokeB7v160006IRZN16GeneticAlgorithm13selectParentsEvE3$_0JR10ChromosomeS5_EEEDTclclsr3stdE7declvalIT_EEspclsr3stdE7declvalIT0_EEEEOS6_DpOS7_', symObjAddr: 0x8638, symBinAddr: 0x100024088, symSize: 0x38 }
  - { offsetInCU: 0xA56F, offset: 0x51D42, size: 0x8, addend: 0x0, symName: __ZNSt3__18__invokeB7v160006IRNS_10__identityEJR10ChromosomeEEEDTclclsr3stdE7declvalIT_EEspclsr3stdE7declvalIT0_EEEEOS5_DpOS6_, symObjAddr: 0x8670, symBinAddr: 0x1000240C0, symSize: 0x2C }
  - { offsetInCU: 0xA5ED, offset: 0x51DC0, size: 0x8, addend: 0x0, symName: __ZNSt3__115__debug_db_swapB7v160006INS_6vectorI15ScheduledModuleNS_9allocatorIS2_EEEEEEvPT_S7_, symObjAddr: 0x9FB8, symBinAddr: 0x100024374, symSize: 0x14 }
  - { offsetInCU: 0xA62C, offset: 0x51DFF, size: 0x8, addend: 0x0, symName: __ZNSt3__1eqB7v160006IP8TimeSlotEEbRKNS_11__wrap_iterIT_EES7_, symObjAddr: 0xA0BC, symBinAddr: 0x10002441C, symSize: 0x48 }
  - { offsetInCU: 0xA66F, offset: 0x51E42, size: 0x8, addend: 0x0, symName: __ZNSt3__1eqB7v160006IPK10ChromosomeEEbRKNS_11__wrap_iterIT_EES8_, symObjAddr: 0xA1B0, symBinAddr: 0x100024510, symSize: 0x48 }
  - { offsetInCU: 0xA6B2, offset: 0x51E85, size: 0x8, addend: 0x0, symName: __ZNSt3__119__debug_db_insert_cB7v160006INS_6vectorI8TimeSlotNS_9allocatorIS2_EEEEEEvPT_, symObjAddr: 0xA710, symBinAddr: 0x100024604, symSize: 0x10 }
  - { offsetInCU: 0xA70A, offset: 0x51EDD, size: 0x8, addend: 0x0, symName: __ZNSt3__112construct_atB7v160006I8TimeSlotJRKS1_EPS1_EEPT_S6_DpOT0_, symObjAddr: 0xABC4, symBinAddr: 0x100024988, symSize: 0x3C }
  - { offsetInCU: 0xA77C, offset: 0x51F4F, size: 0x8, addend: 0x0, symName: __ZNSt3__119__allocate_at_leastB7v160006INS_9allocatorI8TimeSlotEEEENS_19__allocation_resultINS_16allocator_traitsIT_E7pointerEEERS6_m, symObjAddr: 0xB154, symBinAddr: 0x100024E40, symSize: 0x40 }
  - { offsetInCU: 0xA7BF, offset: 0x51F92, size: 0x8, addend: 0x0, symName: __ZNSt3__142__uninitialized_allocator_move_if_noexceptB7v160006INS_9allocatorI8TimeSlotEENS_16reverse_iteratorIPS2_EES6_S6_EET2_RT_T0_T1_S7_, symObjAddr: 0xB3E0, symBinAddr: 0x100024FF8, symSize: 0x12C }
  - { offsetInCU: 0xA85F, offset: 0x52032, size: 0x8, addend: 0x0, symName: __ZNSt3__14swapB7v160006IP8TimeSlotEENS_9enable_ifIXaasr21is_move_constructibleIT_EE5valuesr18is_move_assignableIS4_EE5valueEvE4typeERS4_S7_, symObjAddr: 0xB558, symBinAddr: 0x100025170, symSize: 0x3C }
  - { offsetInCU: 0xA8B1, offset: 0x52084, size: 0x8, addend: 0x0, symName: __ZNSt3__125__debug_db_invalidate_allB7v160006INS_6vectorI8TimeSlotNS_9allocatorIS2_EEEEEEvPT_, symObjAddr: 0xB65C, symBinAddr: 0x100025274, symSize: 0x10 }
  - { offsetInCU: 0xA8E2, offset: 0x520B5, size: 0x8, addend: 0x0, symName: __ZNSt3__122__make_exception_guardB7v160006INS_29_AllocatorDestroyRangeReverseINS_9allocatorI8TimeSlotEENS_16reverse_iteratorIPS3_EEEEEENS_28__exception_guard_exceptionsIT_EESA_, symObjAddr: 0xB6B4, symBinAddr: 0x100025284, symSize: 0x4C }
  - { offsetInCU: 0xA918, offset: 0x520EB, size: 0x8, addend: 0x0, symName: __ZNSt3__1neB7v160006IP8TimeSlotS2_EEbRKNS_16reverse_iteratorIT_EERKNS3_IT0_EE, symObjAddr: 0xB744, symBinAddr: 0x100025314, symSize: 0x48 }
  - { offsetInCU: 0xA964, offset: 0x52137, size: 0x8, addend: 0x0, symName: __ZNSt3__112__to_addressB7v160006INS_16reverse_iteratorIP8TimeSlotEEvEENS_5decayIDTclsr19__to_address_helperIT_EE6__callclsr3stdE7declvalIRKS6_EEEEE4typeES8_, symObjAddr: 0xB7BC, symBinAddr: 0x10002538C, symSize: 0x24 }
  - { offsetInCU: 0xA99A, offset: 0x5216D, size: 0x8, addend: 0x0, symName: __ZNSt3__112construct_atB7v160006I8TimeSlotJS1_EPS1_EEPT_S4_DpOT0_, symObjAddr: 0xB90C, symBinAddr: 0x1000254DC, symSize: 0x3C }
  - { offsetInCU: 0xAA35, offset: 0x52208, size: 0x8, addend: 0x0, symName: __ZNSt3__14prevB7v160006IP8TimeSlotEENS_9enable_ifIXsr25__is_cpp17_input_iteratorIT_EE5valueES4_E4typeES4_NS_15iterator_traitsIS4_E15difference_typeE, symObjAddr: 0xBB94, symBinAddr: 0x10002557C, symSize: 0x50 }
  - { offsetInCU: 0xAA78, offset: 0x5224B, size: 0x8, addend: 0x0, symName: __ZNSt3__19__advanceB7v160006IP8TimeSlotEEvRT_NS_15iterator_traitsIS3_E15difference_typeENS_26random_access_iterator_tagE, symObjAddr: 0xBC34, symBinAddr: 0x10002561C, symSize: 0x30 }
  - { offsetInCU: 0xAAC2, offset: 0x52295, size: 0x8, addend: 0x0, symName: __ZNSt3__119__allocator_destroyB7v160006INS_9allocatorI8TimeSlotEENS_16reverse_iteratorINS4_IPS2_EEEES7_EEvRT_T0_T1_, symObjAddr: 0xBD68, symBinAddr: 0x100025750, symSize: 0x70 }
  - { offsetInCU: 0xAB27, offset: 0x522FA, size: 0x8, addend: 0x0, symName: __ZNSt3__1neB7v160006INS_16reverse_iteratorIP8TimeSlotEES4_EEbRKNS1_IT_EERKNS1_IT0_EE, symObjAddr: 0xBE14, symBinAddr: 0x1000257FC, symSize: 0x60 }
  - { offsetInCU: 0xAB73, offset: 0x52346, size: 0x8, addend: 0x0, symName: __ZNSt3__112__to_addressB7v160006INS_16reverse_iteratorINS1_IP8TimeSlotEEEEvEENS_5decayIDTclsr19__to_address_helperIT_EE6__callclsr3stdE7declvalIRKS7_EEEEE4typeES9_, symObjAddr: 0xBE9C, symBinAddr: 0x10002585C, symSize: 0x24 }
  - { offsetInCU: 0xABD2, offset: 0x523A5, size: 0x8, addend: 0x0, symName: __ZNSt3__14prevB7v160006INS_16reverse_iteratorIP8TimeSlotEEEENS_9enable_ifIXsr25__is_cpp17_input_iteratorIT_EE5valueES6_E4typeES6_NS_15iterator_traitsIS6_E15difference_typeE, symObjAddr: 0xBFE0, symBinAddr: 0x100025958, symSize: 0x60 }
  - { offsetInCU: 0xAC15, offset: 0x523E8, size: 0x8, addend: 0x0, symName: __ZNSt3__19__advanceB7v160006INS_16reverse_iteratorIP8TimeSlotEEEEvRT_NS_15iterator_traitsIS5_E15difference_typeENS_26random_access_iterator_tagE, symObjAddr: 0xC090, symBinAddr: 0x100025A08, symSize: 0x2C }
  - { offsetInCU: 0xAC86, offset: 0x52459, size: 0x8, addend: 0x0, symName: __ZNSt3__112construct_atB7v160006IdJRKdEPdEEPT_S5_DpOT0_, symObjAddr: 0xDB58, symBinAddr: 0x1000260A4, symSize: 0x2C }
  - { offsetInCU: 0xACF8, offset: 0x524CB, size: 0x8, addend: 0x0, symName: __ZNSt3__119__allocate_at_leastB7v160006INS_9allocatorIdEEEENS_19__allocation_resultINS_16allocator_traitsIT_E7pointerEEERS5_m, symObjAddr: 0xE0CC, symBinAddr: 0x100026540, symSize: 0x40 }
  - { offsetInCU: 0xAD3B, offset: 0x5250E, size: 0x8, addend: 0x0, symName: __ZNSt3__142__uninitialized_allocator_move_if_noexceptB7v160006INS_9allocatorIdEENS_16reverse_iteratorIPdEES5_dvEET1_RT_T0_S9_S6_, symObjAddr: 0xE338, symBinAddr: 0x1000266F4, symSize: 0x78 }
  - { offsetInCU: 0xADB9, offset: 0x5258C, size: 0x8, addend: 0x0, symName: __ZNSt3__14swapB7v160006IPdEENS_9enable_ifIXaasr21is_move_constructibleIT_EE5valuesr18is_move_assignableIS3_EE5valueEvE4typeERS3_S6_, symObjAddr: 0xE3FC, symBinAddr: 0x1000267B8, symSize: 0x3C }
  - { offsetInCU: 0xAE0B, offset: 0x525DE, size: 0x8, addend: 0x0, symName: __ZNSt3__125__debug_db_invalidate_allB7v160006INS_6vectorIdNS_9allocatorIdEEEEEEvPT_, symObjAddr: 0xE4E4, symBinAddr: 0x1000268A0, symSize: 0x10 }
  - { offsetInCU: 0xAE3C, offset: 0x5260F, size: 0x8, addend: 0x0, symName: __ZNSt3__14moveB7v160006INS_16reverse_iteratorIPdEES3_EET0_T_S5_S4_, symObjAddr: 0xE53C, symBinAddr: 0x1000268B0, symSize: 0x78 }
  - { offsetInCU: 0xAE96, offset: 0x52669, size: 0x8, addend: 0x0, symName: __ZNSt3__16__moveB7v160006INS_17_ClassicAlgPolicyENS_16reverse_iteratorIPdEES4_S4_EENS_4pairIT0_T2_EES6_T1_S7_, symObjAddr: 0xE5B4, symBinAddr: 0x100026928, symSize: 0x64 }
  - { offsetInCU: 0xAF02, offset: 0x526D5, size: 0x8, addend: 0x0, symName: __ZNSt3__123__dispatch_copy_or_moveB7v160006INS_17_ClassicAlgPolicyENS_11__move_loopIS1_EENS_14__move_trivialENS_16reverse_iteratorIPdEES7_S7_EENS_4pairIT2_T4_EES9_T3_SA_, symObjAddr: 0xE618, symBinAddr: 0x10002698C, symSize: 0x64 }
  - { offsetInCU: 0xAF80, offset: 0x52753, size: 0x8, addend: 0x0, symName: __ZNSt3__121__unwrap_and_dispatchB7v160006INS_10__overloadINS_11__move_loopINS_17_ClassicAlgPolicyEEENS_14__move_trivialEEENS_16reverse_iteratorIPdEES9_S9_Li0EEENS_4pairIT0_T2_EESB_T1_SC_, symObjAddr: 0xE67C, symBinAddr: 0x1000269F0, symSize: 0x12C }
  - { offsetInCU: 0xB012, offset: 0x527E5, size: 0x8, addend: 0x0, symName: __ZNSt3__114__unwrap_rangeB7v160006INS_16reverse_iteratorIPdEES3_EEDaT_T0_, symObjAddr: 0xE7A8, symBinAddr: 0x100026B1C, symSize: 0x4C }
  - { offsetInCU: 0xB184, offset: 0x52957, size: 0x8, addend: 0x0, symName: __ZNSt3__113__unwrap_iterB7v160006INS_16reverse_iteratorIPdEENS_18__unwrap_iter_implIS3_Lb0EEELi0EEEDTclsrT0_8__unwrapclsr3stdE7declvalIT_EEEES7_, symObjAddr: 0xE894, symBinAddr: 0x100026C08, symSize: 0x44 }
  - { offsetInCU: 0xB1C8, offset: 0x5299B, size: 0x8, addend: 0x0, symName: __ZNSt3__19make_pairB7v160006INS_16reverse_iteratorIPdEES3_EENS_4pairINS_18__unwrap_ref_decayIT_E4typeENS5_IT0_E4typeEEEOS6_OS9_, symObjAddr: 0xE8D8, symBinAddr: 0x100026C4C, symSize: 0x38 }
  - { offsetInCU: 0xB217, offset: 0x529EA, size: 0x8, addend: 0x0, symName: __ZNSt3__114__rewrap_rangeB7v160006INS_16reverse_iteratorIPdEES3_S3_EET0_S4_T1_, symObjAddr: 0xE910, symBinAddr: 0x100026C84, symSize: 0x5C }
  - { offsetInCU: 0xB26C, offset: 0x52A3F, size: 0x8, addend: 0x0, symName: __ZNSt3__113__rewrap_iterB7v160006INS_16reverse_iteratorIPdEES3_NS_18__unwrap_iter_implIS3_Lb0EEEEET_S6_T0_, symObjAddr: 0xE96C, symBinAddr: 0x100026CE0, symSize: 0x74 }
  - { offsetInCU: 0xB311, offset: 0x52AE4, size: 0x8, addend: 0x0, symName: __ZNSt3__1neB7v160006IPdS1_EEbRKNS_16reverse_iteratorIT_EERKNS2_IT0_EE, symObjAddr: 0xEAD4, symBinAddr: 0x100026E48, symSize: 0x48 }
  - { offsetInCU: 0xB40F, offset: 0x52BE2, size: 0x8, addend: 0x0, symName: __ZNSt3__1eqB7v160006IPdEEbRKNS_11__wrap_iterIT_EES6_, symObjAddr: 0xEFE0, symBinAddr: 0x100027258, symSize: 0x48 }
  - { offsetInCU: 0xC784, offset: 0x53F57, size: 0x8, addend: 0x0, symName: __ZNSt3__16vectorI10ChromosomeNS_9allocatorIS1_EEE26__swap_out_circular_bufferERNS_14__split_bufferIS1_RS3_EE, symObjAddr: 0x76E0, symBinAddr: 0x1000231B0, symSize: 0x118 }
  - { offsetInCU: 0xC9D4, offset: 0x541A7, size: 0x8, addend: 0x0, symName: __ZNSt3__16vectorI8TimeSlotNS_9allocatorIS1_EEE26__swap_out_circular_bufferERNS_14__split_bufferIS1_RS3_EE, symObjAddr: 0xAD50, symBinAddr: 0x100024ADC, symSize: 0x118 }
  - { offsetInCU: 0xCBC0, offset: 0x54393, size: 0x8, addend: 0x0, symName: __ZNSt3__16vectorIdNS_9allocatorIdEEE26__swap_out_circular_bufferERNS_14__split_bufferIdRS2_EE, symObjAddr: 0xDCD4, symBinAddr: 0x1000261E8, symSize: 0x118 }
  - { offsetInCU: 0xED03, offset: 0x564D6, size: 0x8, addend: 0x0, symName: __ZN16GeneticAlgorithmC2ER10Populationddi, symObjAddr: 0x0, symBinAddr: 0x10001C9F4, symSize: 0x70 }
  - { offsetInCU: 0xED67, offset: 0x5653A, size: 0x8, addend: 0x0, symName: __ZN10PopulationC1ERKS_, symObjAddr: 0x70, symBinAddr: 0x10001CA64, symSize: 0x34 }
  - { offsetInCU: 0xED9C, offset: 0x5656F, size: 0x8, addend: 0x0, symName: __ZNSt3__16vectorIdNS_9allocatorIdEEEC1B7v160006Ev, symObjAddr: 0xA4, symBinAddr: 0x10001CA98, symSize: 0x2C }
  - { offsetInCU: 0xEDC6, offset: 0x56599, size: 0x8, addend: 0x0, symName: __ZN16GeneticAlgorithmC1ER10Populationddi, symObjAddr: 0xD0, symBinAddr: 0x10001CAC4, symSize: 0x4C }
  - { offsetInCU: 0xEE2A, offset: 0x565FD, size: 0x8, addend: 0x0, symName: __ZN16GeneticAlgorithm13selectParentsEv, symObjAddr: 0x11C, symBinAddr: 0x10001CB10, symSize: 0x2B8 }
  - { offsetInCU: 0xEF03, offset: 0x566D6, size: 0x8, addend: 0x0, symName: __ZNSt3__16vectorI10ChromosomeNS_9allocatorIS1_EEEC1B7v160006Ev, symObjAddr: 0x3D4, symBinAddr: 0x10001CDC8, symSize: 0x2C }
  - { offsetInCU: 0xEF2D, offset: 0x56700, size: 0x8, addend: 0x0, symName: __ZNSt3__16vectorI10ChromosomeNS_9allocatorIS1_EEE9push_backB7v160006ERKS1_, symObjAddr: 0x454, symBinAddr: 0x10001CDF4, symSize: 0x6C }
  - { offsetInCU: 0xEF64, offset: 0x56737, size: 0x8, addend: 0x0, symName: __ZNSt3__16vectorI10ChromosomeNS_9allocatorIS1_EEEixB7v160006Em, symObjAddr: 0x4C0, symBinAddr: 0x10001CE60, symSize: 0x2C }
  - { offsetInCU: 0xEF9B, offset: 0x5676E, size: 0x8, addend: 0x0, symName: __ZNSt3__16vectorI10ChromosomeNS_9allocatorIS1_EEE5beginB7v160006Ev, symObjAddr: 0x534, symBinAddr: 0x10001CED4, symSize: 0x30 }
  - { offsetInCU: 0xEFC3, offset: 0x56796, size: 0x8, addend: 0x0, symName: __ZNSt3__16vectorI10ChromosomeNS_9allocatorIS1_EEE3endB7v160006Ev, symObjAddr: 0x564, symBinAddr: 0x10001CF04, symSize: 0x30 }
  - { offsetInCU: 0xEFEB, offset: 0x567BE, size: 0x8, addend: 0x0, symName: __ZNKSt3__111__wrap_iterIP10ChromosomeEdeB7v160006Ev, symObjAddr: 0x594, symBinAddr: 0x10001CF34, symSize: 0x18 }
  - { offsetInCU: 0xF011, offset: 0x567E4, size: 0x8, addend: 0x0, symName: __ZN10ChromosomeC1ERKS_, symObjAddr: 0x5AC, symBinAddr: 0x10001CF4C, symSize: 0x34 }
  - { offsetInCU: 0xF046, offset: 0x56819, size: 0x8, addend: 0x0, symName: __ZN16GeneticAlgorithm9crossoverERK10ChromosomeS2_, symObjAddr: 0x60C, symBinAddr: 0x10001CF80, symSize: 0x5F4 }
  - { offsetInCU: 0xF0FD, offset: 0x568D0, size: 0x8, addend: 0x0, symName: __ZN10ChromosomeC1EOS_, symObjAddr: 0xDD4, symBinAddr: 0x10001D5B0, symSize: 0x34 }
  - { offsetInCU: 0xF132, offset: 0x56905, size: 0x8, addend: 0x0, symName: __ZN16GeneticAlgorithm14getRandomVenueEv, symObjAddr: 0xE08, symBinAddr: 0x10001D5E4, symSize: 0x74 }
  - { offsetInCU: 0xF169, offset: 0x5693C, size: 0x8, addend: 0x0, symName: __ZNSt3__16vectorI5VenueNS_9allocatorIS1_EEEixB7v160006Em, symObjAddr: 0xEA4, symBinAddr: 0x10001D658, symSize: 0x2C }
  - { offsetInCU: 0xF1A0, offset: 0x56973, size: 0x8, addend: 0x0, symName: __ZN16GeneticAlgorithm17findEmptyTimeSlotERKNSt3__112basic_stringIcNS0_11char_traitsIcEENS0_9allocatorIcEEEERKNS0_6vectorI10ChromosomeNS4_ISA_EEEE, symObjAddr: 0xF04, symBinAddr: 0x10001D684, symSize: 0x368 }
  - { offsetInCU: 0xF2D2, offset: 0x56AA5, size: 0x8, addend: 0x0, symName: __ZNSt3__16vectorI8TimeSlotNS_9allocatorIS1_EEE5beginB7v160006Ev, symObjAddr: 0x126C, symBinAddr: 0x10001D9EC, symSize: 0x30 }
  - { offsetInCU: 0xF2FA, offset: 0x56ACD, size: 0x8, addend: 0x0, symName: __ZNSt3__16vectorI8TimeSlotNS_9allocatorIS1_EEE3endB7v160006Ev, symObjAddr: 0x129C, symBinAddr: 0x10001DA1C, symSize: 0x30 }
  - { offsetInCU: 0xF322, offset: 0x56AF5, size: 0x8, addend: 0x0, symName: __ZNKSt3__111__wrap_iterIP8TimeSlotEdeB7v160006Ev, symObjAddr: 0x1300, symBinAddr: 0x10001DA80, symSize: 0x18 }
  - { offsetInCU: 0xF348, offset: 0x56B1B, size: 0x8, addend: 0x0, symName: __ZNKSt3__16vectorI10ChromosomeNS_9allocatorIS1_EEE5beginB7v160006Ev, symObjAddr: 0x1318, symBinAddr: 0x10001DA98, symSize: 0x30 }
  - { offsetInCU: 0xF370, offset: 0x56B43, size: 0x8, addend: 0x0, symName: __ZNKSt3__16vectorI10ChromosomeNS_9allocatorIS1_EEE3endB7v160006Ev, symObjAddr: 0x1348, symBinAddr: 0x10001DAC8, symSize: 0x30 }
  - { offsetInCU: 0xF398, offset: 0x56B6B, size: 0x8, addend: 0x0, symName: __ZNKSt3__111__wrap_iterIPK10ChromosomeEdeB7v160006Ev, symObjAddr: 0x13AC, symBinAddr: 0x10001DB2C, symSize: 0x18 }
  - { offsetInCU: 0xF3BE, offset: 0x56B91, size: 0x8, addend: 0x0, symName: __ZNSt3__111__wrap_iterIPK10ChromosomeEppB7v160006Ev, symObjAddr: 0x1604, symBinAddr: 0x10001DC8C, symSize: 0x20 }
  - { offsetInCU: 0xF3E4, offset: 0x56BB7, size: 0x8, addend: 0x0, symName: __ZNSt3__111__wrap_iterIP8TimeSlotEppB7v160006Ev, symObjAddr: 0x1658, symBinAddr: 0x10001DCAC, symSize: 0x20 }
  - { offsetInCU: 0xF40A, offset: 0x56BDD, size: 0x8, addend: 0x0, symName: __ZN16GeneticAlgorithm27getAnotherAvailableTimeSlotERK8TimeSlotRKNSt3__16vectorIS0_NS3_9allocatorIS0_EEEE, symObjAddr: 0x1678, symBinAddr: 0x10001DCCC, symSize: 0x158 }
  - { offsetInCU: 0xF4B8, offset: 0x56C8B, size: 0x8, addend: 0x0, symName: __ZNSt3__16vectorI8TimeSlotNS_9allocatorIS1_EEEC1B7v160006Ev, symObjAddr: 0x17D0, symBinAddr: 0x10001DE24, symSize: 0x2C }
  - { offsetInCU: 0xF4E2, offset: 0x56CB5, size: 0x8, addend: 0x0, symName: __ZNSt3__16vectorI8TimeSlotNS_9allocatorIS1_EEE9push_backB7v160006ERKS1_, symObjAddr: 0x18A8, symBinAddr: 0x10001DE50, symSize: 0x6C }
  - { offsetInCU: 0xF519, offset: 0x56CEC, size: 0x8, addend: 0x0, symName: __ZNSt3__16vectorI8TimeSlotNS_9allocatorIS1_EEEixB7v160006Em, symObjAddr: 0x195C, symBinAddr: 0x10001DEBC, symSize: 0x2C }
  - { offsetInCU: 0xF550, offset: 0x56D23, size: 0x8, addend: 0x0, symName: __ZN16GeneticAlgorithm6mutateER10Chromosome, symObjAddr: 0x19B4, symBinAddr: 0x10001DEE8, symSize: 0x8B0 }
  - { offsetInCU: 0xF601, offset: 0x56DD4, size: 0x8, addend: 0x0, symName: __ZN16GeneticAlgorithm15isLastSlotOfDayERK8TimeSlot, symObjAddr: 0x22DC, symBinAddr: 0x10001E798, symSize: 0x4C }
  - { offsetInCU: 0xF64D, offset: 0x56E20, size: 0x8, addend: 0x0, symName: __ZN8TimeSlotaSEOS_, symObjAddr: 0x2328, symBinAddr: 0x10001E7E4, symSize: 0x5C }
  - { offsetInCU: 0xF67E, offset: 0x56E51, size: 0x8, addend: 0x0, symName: __ZN16GeneticAlgorithm17replacePopulationERK10Population, symObjAddr: 0x2384, symBinAddr: 0x10001E840, symSize: 0x1CC }
  - { offsetInCU: 0xF783, offset: 0x56F56, size: 0x8, addend: 0x0, symName: __ZNSt3__111__wrap_iterIP10ChromosomeEppB7v160006Ev, symObjAddr: 0x2584, symBinAddr: 0x10001EA40, symSize: 0x20 }
  - { offsetInCU: 0xF7A9, offset: 0x56F7C, size: 0x8, addend: 0x0, symName: __ZN16GeneticAlgorithm16runOneGenerationEi, symObjAddr: 0x25A4, symBinAddr: 0x10001EA60, symSize: 0xA50 }
  - { offsetInCU: 0xF8EF, offset: 0x570C2, size: 0x8, addend: 0x0, symName: __ZN10ChromosomeaSEOS_, symObjAddr: 0x2FF4, symBinAddr: 0x10001F4B0, symSize: 0x34 }
  - { offsetInCU: 0xF920, offset: 0x570F3, size: 0x8, addend: 0x0, symName: __ZN10ChromosomeaSERKS_, symObjAddr: 0x3028, symBinAddr: 0x10001F4E4, symSize: 0x34 }
  - { offsetInCU: 0xF951, offset: 0x57124, size: 0x8, addend: 0x0, symName: __ZN16GeneticAlgorithm17getBestChromosomeEv, symObjAddr: 0x305C, symBinAddr: 0x10001F518, symSize: 0x7C }
  - { offsetInCU: 0xF98E, offset: 0x57161, size: 0x8, addend: 0x0, symName: __ZN16GeneticAlgorithm35surgeryMutationForTimeSlotPrefrenceER10Chromosomei, symObjAddr: 0x310C, symBinAddr: 0x10001F594, symSize: 0xE70 }
  - { offsetInCU: 0xFA76, offset: 0x57249, size: 0x8, addend: 0x0, symName: __ZN16GeneticAlgorithm29surgeryMutationForTimeSlotGapER10Chromosomeii, symObjAddr: 0x3F7C, symBinAddr: 0x100020404, symSize: 0x6B8 }
  - { offsetInCU: 0xFB6D, offset: 0x57340, size: 0x8, addend: 0x0, symName: __ZN16GeneticAlgorithm15surgeryMutationER10Chromosomei, symObjAddr: 0x4634, symBinAddr: 0x100020ABC, symSize: 0xD60 }
  - { offsetInCU: 0xFC55, offset: 0x57428, size: 0x8, addend: 0x0, symName: __ZNSt3__16vectorIdNS_9allocatorIdEEE9push_backB7v160006ERKd, symObjAddr: 0x53C0, symBinAddr: 0x10002181C, symSize: 0x6C }
  - { offsetInCU: 0xFC8C, offset: 0x5745F, size: 0x8, addend: 0x0, symName: __ZN16GeneticAlgorithm3runEi, symObjAddr: 0x5458, symBinAddr: 0x100021888, symSize: 0x158 }
  - { offsetInCU: 0xFCEE, offset: 0x574C1, size: 0x8, addend: 0x0, symName: __ZN16GeneticAlgorithm24printTotalFitnessHistoryEv, symObjAddr: 0x55B0, symBinAddr: 0x1000219E0, symSize: 0xE4 }
  - { offsetInCU: 0xFD34, offset: 0x57507, size: 0x8, addend: 0x0, symName: __ZNSt3__16vectorIdNS_9allocatorIdEEEixB7v160006Em, symObjAddr: 0x56BC, symBinAddr: 0x100021AC4, symSize: 0x24 }
  - { offsetInCU: 0xFD6B, offset: 0x5753E, size: 0x8, addend: 0x0, symName: __ZN16GeneticAlgorithm24printTotalBestFitHistoryEv, symObjAddr: 0x56E0, symBinAddr: 0x100021AE8, symSize: 0xC8 }
  - { offsetInCU: 0xFDE6, offset: 0x575B9, size: 0x8, addend: 0x0, symName: __ZNSt3__16vectorIdNS_9allocatorIdEEE5beginB7v160006Ev, symObjAddr: 0x57A8, symBinAddr: 0x100021BB0, symSize: 0x30 }
  - { offsetInCU: 0xFE0E, offset: 0x575E1, size: 0x8, addend: 0x0, symName: __ZNSt3__16vectorIdNS_9allocatorIdEEE3endB7v160006Ev, symObjAddr: 0x57D8, symBinAddr: 0x100021BE0, symSize: 0x30 }
  - { offsetInCU: 0xFE36, offset: 0x57609, size: 0x8, addend: 0x0, symName: __ZNKSt3__111__wrap_iterIPdEdeB7v160006Ev, symObjAddr: 0x583C, symBinAddr: 0x100021C44, symSize: 0x18 }
  - { offsetInCU: 0xFE5C, offset: 0x5762F, size: 0x8, addend: 0x0, symName: __ZNSt3__111__wrap_iterIPdEppB7v160006Ev, symObjAddr: 0x5854, symBinAddr: 0x100021C5C, symSize: 0x20 }
  - { offsetInCU: 0xFE82, offset: 0x57655, size: 0x8, addend: 0x0, symName: __ZN16GeneticAlgorithm13printProgressEv, symObjAddr: 0x5874, symBinAddr: 0x100021C7C, symSize: 0x134 }
  - { offsetInCU: 0xFEC8, offset: 0x5769B, size: 0x8, addend: 0x0, symName: __ZN10PopulationC2ERKS_, symObjAddr: 0x59D4, symBinAddr: 0x100021DB0, symSize: 0x34 }
  - { offsetInCU: 0xFEFD, offset: 0x576D0, size: 0x8, addend: 0x0, symName: __ZNSt3__16vectorI10ChromosomeNS_9allocatorIS1_EEEC1ERKS4_, symObjAddr: 0x5A08, symBinAddr: 0x100021DE4, symSize: 0x34 }
  - { offsetInCU: 0xFF38, offset: 0x5770B, size: 0x8, addend: 0x0, symName: __ZNSt3__16vectorI10ChromosomeNS_9allocatorIS1_EEEC2ERKS4_, symObjAddr: 0x5A3C, symBinAddr: 0x100021E18, symSize: 0x114 }
  - { offsetInCU: 0xFFA1, offset: 0x57774, size: 0x8, addend: 0x0, symName: __ZNSt3__116allocator_traitsINS_9allocatorI10ChromosomeEEE37select_on_container_copy_constructionB7v160006IS3_vvEES3_RKS3_, symObjAddr: 0x5B50, symBinAddr: 0x100021F2C, symSize: 0x10 }
  - { offsetInCU: 0xFFD0, offset: 0x577A3, size: 0x8, addend: 0x0, symName: __ZNKSt3__16vectorI10ChromosomeNS_9allocatorIS1_EEE7__allocB7v160006Ev, symObjAddr: 0x5B60, symBinAddr: 0x100021F3C, symSize: 0x28 }
  - { offsetInCU: 0x10000, offset: 0x577D3, size: 0x8, addend: 0x0, symName: __ZNSt3__117__compressed_pairIP10ChromosomeNS_9allocatorIS1_EEEC1B7v160006IDnS4_EEOT_OT0_, symObjAddr: 0x5B88, symBinAddr: 0x100021F64, symSize: 0x3C }
  - { offsetInCU: 0x10058, offset: 0x5782B, size: 0x8, addend: 0x0, symName: __ZNSt3__16vectorI10ChromosomeNS_9allocatorIS1_EEE11__vallocateB7v160006Em, symObjAddr: 0x5C48, symBinAddr: 0x100021FF0, symSize: 0xB4 }
  - { offsetInCU: 0x1009C, offset: 0x5786F, size: 0x8, addend: 0x0, symName: __ZNSt3__16vectorI10ChromosomeNS_9allocatorIS1_EEE18__construct_at_endIPS1_Li0EEEvT_S7_m, symObjAddr: 0x5CFC, symBinAddr: 0x1000220A4, symSize: 0x8C }
  - { offsetInCU: 0x1010F, offset: 0x578E2, size: 0x8, addend: 0x0, symName: __ZNSt3__128__exception_guard_exceptionsINS_6vectorI10ChromosomeNS_9allocatorIS2_EEE16__destroy_vectorEE10__completeB7v160006Ev, symObjAddr: 0x5D88, symBinAddr: 0x100022130, symSize: 0x1C }
  - { offsetInCU: 0x10135, offset: 0x57908, size: 0x8, addend: 0x0, symName: __ZNSt3__128__exception_guard_exceptionsINS_6vectorI10ChromosomeNS_9allocatorIS2_EEE16__destroy_vectorEED1B7v160006Ev, symObjAddr: 0x5DA4, symBinAddr: 0x10002214C, symSize: 0x2C }
  - { offsetInCU: 0x1015F, offset: 0x57932, size: 0x8, addend: 0x0, symName: __ZNKSt3__117__compressed_pairIP10ChromosomeNS_9allocatorIS1_EEE6secondB7v160006Ev, symObjAddr: 0x5DD0, symBinAddr: 0x100022178, symSize: 0x24 }
  - { offsetInCU: 0x10185, offset: 0x57958, size: 0x8, addend: 0x0, symName: __ZNKSt3__122__compressed_pair_elemINS_9allocatorI10ChromosomeEELi1ELb1EE5__getB7v160006Ev, symObjAddr: 0x5DF4, symBinAddr: 0x10002219C, symSize: 0x14 }
  - { offsetInCU: 0x101AB, offset: 0x5797E, size: 0x8, addend: 0x0, symName: __ZNSt3__117__compressed_pairIP10ChromosomeNS_9allocatorIS1_EEEC2B7v160006IDnS4_EEOT_OT0_, symObjAddr: 0x5E08, symBinAddr: 0x1000221B0, symSize: 0x44 }
  - { offsetInCU: 0x10203, offset: 0x579D6, size: 0x8, addend: 0x0, symName: __ZNSt3__122__compressed_pair_elemIP10ChromosomeLi0ELb0EEC2B7v160006IDnvEEOT_, symObjAddr: 0x5E4C, symBinAddr: 0x1000221F4, symSize: 0x1C }
  - { offsetInCU: 0x10245, offset: 0x57A18, size: 0x8, addend: 0x0, symName: __ZNSt3__122__compressed_pair_elemINS_9allocatorI10ChromosomeEELi1ELb1EEC2B7v160006IS3_vEEOT_, symObjAddr: 0x5E68, symBinAddr: 0x100022210, symSize: 0x18 }
  - { offsetInCU: 0x10287, offset: 0x57A5A, size: 0x8, addend: 0x0, symName: __ZNSt3__128__exception_guard_exceptionsINS_6vectorI10ChromosomeNS_9allocatorIS2_EEE16__destroy_vectorEEC1B7v160006ES6_, symObjAddr: 0x5E80, symBinAddr: 0x100022228, symSize: 0x34 }
  - { offsetInCU: 0x102BF, offset: 0x57A92, size: 0x8, addend: 0x0, symName: __ZNSt3__128__exception_guard_exceptionsINS_6vectorI10ChromosomeNS_9allocatorIS2_EEE16__destroy_vectorEEC2B7v160006ES6_, symObjAddr: 0x5EB4, symBinAddr: 0x10002225C, symSize: 0x24 }
  - { offsetInCU: 0x102F7, offset: 0x57ACA, size: 0x8, addend: 0x0, symName: __ZNKSt3__16vectorI10ChromosomeNS_9allocatorIS1_EEE8max_sizeEv, symObjAddr: 0x5EF8, symBinAddr: 0x100022280, symSize: 0x60 }
  - { offsetInCU: 0x1031F, offset: 0x57AF2, size: 0x8, addend: 0x0, symName: __ZNKSt3__16vectorI10ChromosomeNS_9allocatorIS1_EEE20__throw_length_errorB7v160006Ev, symObjAddr: 0x5F58, symBinAddr: 0x1000222E0, symSize: 0x1C }
  - { offsetInCU: 0x10345, offset: 0x57B18, size: 0x8, addend: 0x0, symName: __ZNSt3__16vectorI10ChromosomeNS_9allocatorIS1_EEE9__end_capB7v160006Ev, symObjAddr: 0x5FDC, symBinAddr: 0x10002233C, symSize: 0x28 }
  - { offsetInCU: 0x1036B, offset: 0x57B3E, size: 0x8, addend: 0x0, symName: __ZNKSt3__16vectorI10ChromosomeNS_9allocatorIS1_EEE14__annotate_newB7v160006Em, symObjAddr: 0x6004, symBinAddr: 0x100022364, symSize: 0xC8 }
  - { offsetInCU: 0x103A0, offset: 0x57B73, size: 0x8, addend: 0x0, symName: __ZNSt3__116allocator_traitsINS_9allocatorI10ChromosomeEEE8max_sizeB7v160006IS3_vvEEmRKS3_, symObjAddr: 0x60F8, symBinAddr: 0x10002242C, symSize: 0x28 }
  - { offsetInCU: 0x103CC, offset: 0x57B9F, size: 0x8, addend: 0x0, symName: __ZNSt3__19allocatorI10ChromosomeE8allocateB7v160006Em, symObjAddr: 0x62D0, symBinAddr: 0x100022454, symSize: 0x5C }
  - { offsetInCU: 0x10400, offset: 0x57BD3, size: 0x8, addend: 0x0, symName: __ZNSt3__117__compressed_pairIP10ChromosomeNS_9allocatorIS1_EEE5firstB7v160006Ev, symObjAddr: 0x6468, symBinAddr: 0x1000224B0, symSize: 0x24 }
  - { offsetInCU: 0x10426, offset: 0x57BF9, size: 0x8, addend: 0x0, symName: __ZNSt3__122__compressed_pair_elemIP10ChromosomeLi0ELb0EE5__getB7v160006Ev, symObjAddr: 0x648C, symBinAddr: 0x1000224D4, symSize: 0x14 }
  - { offsetInCU: 0x10465, offset: 0x57C38, size: 0x8, addend: 0x0, symName: __ZNSt3__16vectorI10ChromosomeNS_9allocatorIS1_EEE21_ConstructTransactionC1B7v160006ERS4_m, symObjAddr: 0x659C, symBinAddr: 0x1000224E8, symSize: 0x3C }
  - { offsetInCU: 0x104AD, offset: 0x57C80, size: 0x8, addend: 0x0, symName: __ZNSt3__16vectorI10ChromosomeNS_9allocatorIS1_EEE21_ConstructTransactionD1B7v160006Ev, symObjAddr: 0x66CC, symBinAddr: 0x100022618, symSize: 0x2C }
  - { offsetInCU: 0x104D7, offset: 0x57CAA, size: 0x8, addend: 0x0, symName: __ZNSt3__16vectorI10ChromosomeNS_9allocatorIS1_EEE21_ConstructTransactionC2B7v160006ERS4_m, symObjAddr: 0x66F8, symBinAddr: 0x100022644, symSize: 0x4C }
  - { offsetInCU: 0x1051F, offset: 0x57CF2, size: 0x8, addend: 0x0, symName: __ZNSt3__129_AllocatorDestroyRangeReverseINS_9allocatorI10ChromosomeEEPS2_EC1B7v160006ERS3_RS4_S7_, symObjAddr: 0x6790, symBinAddr: 0x1000226DC, symSize: 0x44 }
  - { offsetInCU: 0x10576, offset: 0x57D49, size: 0x8, addend: 0x0, symName: __ZNSt3__116allocator_traitsINS_9allocatorI10ChromosomeEEE9constructB7v160006IS2_JRS2_EvvEEvRS3_PT_DpOT0_, symObjAddr: 0x67D4, symBinAddr: 0x100022720, symSize: 0x30 }
  - { offsetInCU: 0x105CB, offset: 0x57D9E, size: 0x8, addend: 0x0, symName: __ZNSt3__128__exception_guard_exceptionsINS_29_AllocatorDestroyRangeReverseINS_9allocatorI10ChromosomeEEPS3_EEE10__completeB7v160006Ev, symObjAddr: 0x6804, symBinAddr: 0x100022750, symSize: 0x1C }
  - { offsetInCU: 0x105F1, offset: 0x57DC4, size: 0x8, addend: 0x0, symName: __ZNSt3__128__exception_guard_exceptionsINS_29_AllocatorDestroyRangeReverseINS_9allocatorI10ChromosomeEEPS3_EEED1B7v160006Ev, symObjAddr: 0x6820, symBinAddr: 0x10002276C, symSize: 0x2C }
  - { offsetInCU: 0x1061B, offset: 0x57DEE, size: 0x8, addend: 0x0, symName: __ZNSt3__128__exception_guard_exceptionsINS_29_AllocatorDestroyRangeReverseINS_9allocatorI10ChromosomeEEPS3_EEEC1B7v160006ES6_, symObjAddr: 0x684C, symBinAddr: 0x100022798, symSize: 0x34 }
  - { offsetInCU: 0x10654, offset: 0x57E27, size: 0x8, addend: 0x0, symName: __ZNSt3__128__exception_guard_exceptionsINS_29_AllocatorDestroyRangeReverseINS_9allocatorI10ChromosomeEEPS3_EEEC2B7v160006ES6_, symObjAddr: 0x6880, symBinAddr: 0x1000227CC, symSize: 0x30 }
  - { offsetInCU: 0x1068D, offset: 0x57E60, size: 0x8, addend: 0x0, symName: __ZNSt3__129_AllocatorDestroyRangeReverseINS_9allocatorI10ChromosomeEEPS2_EC2B7v160006ERS3_RS4_S7_, symObjAddr: 0x68B0, symBinAddr: 0x1000227FC, symSize: 0x38 }
  - { offsetInCU: 0x106E4, offset: 0x57EB7, size: 0x8, addend: 0x0, symName: __ZNSt3__128__exception_guard_exceptionsINS_29_AllocatorDestroyRangeReverseINS_9allocatorI10ChromosomeEEPS3_EEED2B7v160006Ev, symObjAddr: 0x6924, symBinAddr: 0x100022870, symSize: 0x50 }
  - { offsetInCU: 0x1070E, offset: 0x57EE1, size: 0x8, addend: 0x0, symName: __ZNKSt3__129_AllocatorDestroyRangeReverseINS_9allocatorI10ChromosomeEEPS2_EclB7v160006Ev, symObjAddr: 0x6974, symBinAddr: 0x1000228C0, symSize: 0x68 }
  - { offsetInCU: 0x10734, offset: 0x57F07, size: 0x8, addend: 0x0, symName: __ZNSt3__116reverse_iteratorIP10ChromosomeEC1B7v160006ES2_, symObjAddr: 0x6A4C, symBinAddr: 0x100022998, symSize: 0x34 }
  - { offsetInCU: 0x1076C, offset: 0x57F3F, size: 0x8, addend: 0x0, symName: __ZNSt3__116reverse_iteratorIP10ChromosomeEppB7v160006Ev, symObjAddr: 0x6B14, symBinAddr: 0x100022A38, symSize: 0x20 }
  - { offsetInCU: 0x10792, offset: 0x57F65, size: 0x8, addend: 0x0, symName: __ZNKSt3__116reverse_iteratorIP10ChromosomeE4baseB7v160006Ev, symObjAddr: 0x6B34, symBinAddr: 0x100022A58, symSize: 0x18 }
  - { offsetInCU: 0x107BD, offset: 0x57F90, size: 0x8, addend: 0x0, symName: __ZNSt3__119__to_address_helperINS_16reverse_iteratorIP10ChromosomeEEvE6__callB7v160006ERKS4_, symObjAddr: 0x6B94, symBinAddr: 0x100022A70, symSize: 0x38 }
  - { offsetInCU: 0x107E0, offset: 0x57FB3, size: 0x8, addend: 0x0, symName: __ZNKSt3__116reverse_iteratorIP10ChromosomeEptB7v160006Ev, symObjAddr: 0x6BCC, symBinAddr: 0x100022AA8, symSize: 0x2C }
  - { offsetInCU: 0x10806, offset: 0x57FD9, size: 0x8, addend: 0x0, symName: __ZNSt3__116reverse_iteratorIP10ChromosomeEC2B7v160006ES2_, symObjAddr: 0x6CDC, symBinAddr: 0x100022BA4, symSize: 0x28 }
  - { offsetInCU: 0x1083E, offset: 0x58011, size: 0x8, addend: 0x0, symName: __ZNSt3__16vectorI10ChromosomeNS_9allocatorIS1_EEE21_ConstructTransactionD2B7v160006Ev, symObjAddr: 0x6D04, symBinAddr: 0x100022BCC, symSize: 0x20 }
  - { offsetInCU: 0x10868, offset: 0x5803B, size: 0x8, addend: 0x0, symName: __ZNSt3__128__exception_guard_exceptionsINS_6vectorI10ChromosomeNS_9allocatorIS2_EEE16__destroy_vectorEED2B7v160006Ev, symObjAddr: 0x6D24, symBinAddr: 0x100022BEC, symSize: 0x50 }
  - { offsetInCU: 0x10892, offset: 0x58065, size: 0x8, addend: 0x0, symName: __ZNSt3__16vectorIdNS_9allocatorIdEEEC2B7v160006Ev, symObjAddr: 0x7128, symBinAddr: 0x100022C3C, symSize: 0x58 }
  - { offsetInCU: 0x108C1, offset: 0x58094, size: 0x8, addend: 0x0, symName: __ZNSt3__117__compressed_pairIPdNS_9allocatorIdEEEC1B7v160006IDnNS_18__default_init_tagEEEOT_OT0_, symObjAddr: 0x7180, symBinAddr: 0x100022C94, symSize: 0x3C }
  - { offsetInCU: 0x10919, offset: 0x580EC, size: 0x8, addend: 0x0, symName: __ZNSt3__117__compressed_pairIPdNS_9allocatorIdEEEC2B7v160006IDnNS_18__default_init_tagEEEOT_OT0_, symObjAddr: 0x71CC, symBinAddr: 0x100022CE0, symSize: 0x40 }
  - { offsetInCU: 0x10971, offset: 0x58144, size: 0x8, addend: 0x0, symName: __ZNSt3__122__compressed_pair_elemIPdLi0ELb0EEC2B7v160006IDnvEEOT_, symObjAddr: 0x720C, symBinAddr: 0x100022D20, symSize: 0x1C }
  - { offsetInCU: 0x109B3, offset: 0x58186, size: 0x8, addend: 0x0, symName: __ZNSt3__122__compressed_pair_elemINS_9allocatorIdEELi1ELb1EEC2B7v160006ENS_18__default_init_tagE, symObjAddr: 0x7228, symBinAddr: 0x100022D3C, symSize: 0x2C }
  - { offsetInCU: 0x109E8, offset: 0x581BB, size: 0x8, addend: 0x0, symName: __ZNSt3__19allocatorIdEC2B7v160006Ev, symObjAddr: 0x7254, symBinAddr: 0x100022D68, symSize: 0x2C }
  - { offsetInCU: 0x10A12, offset: 0x581E5, size: 0x8, addend: 0x0, symName: __ZNSt3__116__non_trivial_ifILb1ENS_9allocatorIdEEEC2B7v160006Ev, symObjAddr: 0x7280, symBinAddr: 0x100022D94, symSize: 0x14 }
  - { offsetInCU: 0x10A3C, offset: 0x5820F, size: 0x8, addend: 0x0, symName: __ZNSt3__16vectorI10ChromosomeNS_9allocatorIS1_EEEC2B7v160006Ev, symObjAddr: 0x7294, symBinAddr: 0x100022DA8, symSize: 0x54 }
  - { offsetInCU: 0x10A66, offset: 0x58239, size: 0x8, addend: 0x0, symName: __ZNSt3__117__compressed_pairIP10ChromosomeNS_9allocatorIS1_EEEC1B7v160006IDnNS_18__default_init_tagEEEOT_OT0_, symObjAddr: 0x72E8, symBinAddr: 0x100022DFC, symSize: 0x3C }
  - { offsetInCU: 0x10ABE, offset: 0x58291, size: 0x8, addend: 0x0, symName: __ZNSt3__117__compressed_pairIP10ChromosomeNS_9allocatorIS1_EEEC2B7v160006IDnNS_18__default_init_tagEEEOT_OT0_, symObjAddr: 0x7324, symBinAddr: 0x100022E38, symSize: 0x40 }
  - { offsetInCU: 0x10B16, offset: 0x582E9, size: 0x8, addend: 0x0, symName: __ZNSt3__122__compressed_pair_elemINS_9allocatorI10ChromosomeEELi1ELb1EEC2B7v160006ENS_18__default_init_tagE, symObjAddr: 0x7364, symBinAddr: 0x100022E78, symSize: 0x2C }
  - { offsetInCU: 0x10B4B, offset: 0x5831E, size: 0x8, addend: 0x0, symName: __ZNSt3__19allocatorI10ChromosomeEC2B7v160006Ev, symObjAddr: 0x7390, symBinAddr: 0x100022EA4, symSize: 0x2C }
  - { offsetInCU: 0x10B75, offset: 0x58348, size: 0x8, addend: 0x0, symName: __ZNSt3__116__non_trivial_ifILb1ENS_9allocatorI10ChromosomeEEEC2B7v160006Ev, symObjAddr: 0x73BC, symBinAddr: 0x100022ED0, symSize: 0x14 }
  - { offsetInCU: 0x10B9F, offset: 0x58372, size: 0x8, addend: 0x0, symName: __ZNSt3__16vectorI10ChromosomeNS_9allocatorIS1_EEE22__construct_one_at_endB7v160006IJRKS1_EEEvDpOT_, symObjAddr: 0x7414, symBinAddr: 0x100022EE4, symSize: 0x90 }
  - { offsetInCU: 0x10BEE, offset: 0x583C1, size: 0x8, addend: 0x0, symName: __ZNSt3__16vectorI10ChromosomeNS_9allocatorIS1_EEE21__push_back_slow_pathIRKS1_EEvOT_, symObjAddr: 0x74A4, symBinAddr: 0x100022F74, symSize: 0xD8 }
  - { offsetInCU: 0x10C4C, offset: 0x5841F, size: 0x8, addend: 0x0, symName: __ZNSt3__116allocator_traitsINS_9allocatorI10ChromosomeEEE9constructB7v160006IS2_JRKS2_EvvEEvRS3_PT_DpOT0_, symObjAddr: 0x757C, symBinAddr: 0x10002304C, symSize: 0x30 }
  - { offsetInCU: 0x10CA1, offset: 0x58474, size: 0x8, addend: 0x0, symName: __ZNKSt3__16vectorI10ChromosomeNS_9allocatorIS1_EEE11__recommendB7v160006Em, symObjAddr: 0x75E8, symBinAddr: 0x1000230B8, symSize: 0xB4 }
  - { offsetInCU: 0x10CF6, offset: 0x584C9, size: 0x8, addend: 0x0, symName: __ZNSt3__114__split_bufferI10ChromosomeRNS_9allocatorIS1_EEEC1EmmS4_, symObjAddr: 0x769C, symBinAddr: 0x10002316C, symSize: 0x44 }
  - { offsetInCU: 0x10D4C, offset: 0x5851F, size: 0x8, addend: 0x0, symName: __ZNSt3__114__split_bufferI10ChromosomeRNS_9allocatorIS1_EEED1Ev, symObjAddr: 0x77F8, symBinAddr: 0x1000232C8, symSize: 0x2C }
  - { offsetInCU: 0x10D78, offset: 0x5854B, size: 0x8, addend: 0x0, symName: __ZNSt3__114__split_bufferI10ChromosomeRNS_9allocatorIS1_EEEC2EmmS4_, symObjAddr: 0x78A4, symBinAddr: 0x1000232F4, symSize: 0xE0 }
  - { offsetInCU: 0x10DEB, offset: 0x585BE, size: 0x8, addend: 0x0, symName: __ZNSt3__117__compressed_pairIP10ChromosomeRNS_9allocatorIS1_EEEC1B7v160006IDnS5_EEOT_OT0_, symObjAddr: 0x7984, symBinAddr: 0x1000233D4, symSize: 0x3C }
  - { offsetInCU: 0x10E43, offset: 0x58616, size: 0x8, addend: 0x0, symName: __ZNSt3__114__split_bufferI10ChromosomeRNS_9allocatorIS1_EEE7__allocB7v160006Ev, symObjAddr: 0x79C0, symBinAddr: 0x100023410, symSize: 0x28 }
  - { offsetInCU: 0x10E69, offset: 0x5863C, size: 0x8, addend: 0x0, symName: __ZNSt3__114__split_bufferI10ChromosomeRNS_9allocatorIS1_EEE9__end_capB7v160006Ev, symObjAddr: 0x79E8, symBinAddr: 0x100023438, symSize: 0x28 }
  - { offsetInCU: 0x10E8F, offset: 0x58662, size: 0x8, addend: 0x0, symName: __ZNSt3__117__compressed_pairIP10ChromosomeRNS_9allocatorIS1_EEEC2B7v160006IDnS5_EEOT_OT0_, symObjAddr: 0x7A10, symBinAddr: 0x100023460, symSize: 0x48 }
  - { offsetInCU: 0x10EE7, offset: 0x586BA, size: 0x8, addend: 0x0, symName: __ZNSt3__122__compressed_pair_elemIRNS_9allocatorI10ChromosomeEELi1ELb0EEC2B7v160006IS4_vEEOT_, symObjAddr: 0x7A58, symBinAddr: 0x1000234A8, symSize: 0x20 }
  - { offsetInCU: 0x10F29, offset: 0x586FC, size: 0x8, addend: 0x0, symName: __ZNSt3__117__compressed_pairIP10ChromosomeRNS_9allocatorIS1_EEE6secondB7v160006Ev, symObjAddr: 0x7A78, symBinAddr: 0x1000234C8, symSize: 0x28 }
  - { offsetInCU: 0x10F4F, offset: 0x58722, size: 0x8, addend: 0x0, symName: __ZNSt3__122__compressed_pair_elemIRNS_9allocatorI10ChromosomeEELi1ELb0EE5__getB7v160006Ev, symObjAddr: 0x7AA0, symBinAddr: 0x1000234F0, symSize: 0x18 }
  - { offsetInCU: 0x10F75, offset: 0x58748, size: 0x8, addend: 0x0, symName: __ZNSt3__117__compressed_pairIP10ChromosomeRNS_9allocatorIS1_EEE5firstB7v160006Ev, symObjAddr: 0x7AB8, symBinAddr: 0x100023508, symSize: 0x24 }
  - { offsetInCU: 0x10F9B, offset: 0x5876E, size: 0x8, addend: 0x0, symName: __ZNSt3__129_AllocatorDestroyRangeReverseINS_9allocatorI10ChromosomeEENS_16reverse_iteratorIPS2_EEEC1B7v160006ERS3_RS6_S9_, symObjAddr: 0x7C98, symBinAddr: 0x1000236E8, symSize: 0x44 }
  - { offsetInCU: 0x10FF2, offset: 0x587C5, size: 0x8, addend: 0x0, symName: __ZNSt3__116allocator_traitsINS_9allocatorI10ChromosomeEEE9constructB7v160006IS2_JS2_EvvEEvRS3_PT_DpOT0_, symObjAddr: 0x7CDC, symBinAddr: 0x10002372C, symSize: 0x30 }
  - { offsetInCU: 0x11047, offset: 0x5881A, size: 0x8, addend: 0x0, symName: __ZNKSt3__116reverse_iteratorIP10ChromosomeEdeB7v160006Ev, symObjAddr: 0x7D0C, symBinAddr: 0x10002375C, symSize: 0x28 }
  - { offsetInCU: 0x1107C, offset: 0x5884F, size: 0x8, addend: 0x0, symName: __ZNSt3__128__exception_guard_exceptionsINS_29_AllocatorDestroyRangeReverseINS_9allocatorI10ChromosomeEENS_16reverse_iteratorIPS3_EEEEE10__completeB7v160006Ev, symObjAddr: 0x7D34, symBinAddr: 0x100023784, symSize: 0x1C }
  - { offsetInCU: 0x110A2, offset: 0x58875, size: 0x8, addend: 0x0, symName: __ZNSt3__128__exception_guard_exceptionsINS_29_AllocatorDestroyRangeReverseINS_9allocatorI10ChromosomeEENS_16reverse_iteratorIPS3_EEEEED1B7v160006Ev, symObjAddr: 0x7D50, symBinAddr: 0x1000237A0, symSize: 0x2C }
  - { offsetInCU: 0x110CC, offset: 0x5889F, size: 0x8, addend: 0x0, symName: __ZNSt3__128__exception_guard_exceptionsINS_29_AllocatorDestroyRangeReverseINS_9allocatorI10ChromosomeEENS_16reverse_iteratorIPS3_EEEEEC1B7v160006ES8_, symObjAddr: 0x7D7C, symBinAddr: 0x1000237CC, symSize: 0x34 }
  - { offsetInCU: 0x11105, offset: 0x588D8, size: 0x8, addend: 0x0, symName: __ZNSt3__128__exception_guard_exceptionsINS_29_AllocatorDestroyRangeReverseINS_9allocatorI10ChromosomeEENS_16reverse_iteratorIPS3_EEEEEC2B7v160006ES8_, symObjAddr: 0x7DB0, symBinAddr: 0x100023800, symSize: 0x30 }
  - { offsetInCU: 0x1113E, offset: 0x58911, size: 0x8, addend: 0x0, symName: __ZNSt3__129_AllocatorDestroyRangeReverseINS_9allocatorI10ChromosomeEENS_16reverse_iteratorIPS2_EEEC2B7v160006ERS3_RS6_S9_, symObjAddr: 0x7DE0, symBinAddr: 0x100023830, symSize: 0x38 }
  - { offsetInCU: 0x11195, offset: 0x58968, size: 0x8, addend: 0x0, symName: __ZNSt3__128__exception_guard_exceptionsINS_29_AllocatorDestroyRangeReverseINS_9allocatorI10ChromosomeEENS_16reverse_iteratorIPS3_EEEEED2B7v160006Ev, symObjAddr: 0x7E54, symBinAddr: 0x1000238A4, symSize: 0x50 }
  - { offsetInCU: 0x111BF, offset: 0x58992, size: 0x8, addend: 0x0, symName: __ZNKSt3__129_AllocatorDestroyRangeReverseINS_9allocatorI10ChromosomeEENS_16reverse_iteratorIPS2_EEEclB7v160006Ev, symObjAddr: 0x7EA4, symBinAddr: 0x1000238F4, symSize: 0xB4 }
  - { offsetInCU: 0x111E6, offset: 0x589B9, size: 0x8, addend: 0x0, symName: __ZNSt3__116reverse_iteratorINS0_IP10ChromosomeEEEC1B7v160006ES3_, symObjAddr: 0x7FC8, symBinAddr: 0x100023A18, symSize: 0x3C }
  - { offsetInCU: 0x1121E, offset: 0x589F1, size: 0x8, addend: 0x0, symName: __ZNSt3__116reverse_iteratorINS0_IP10ChromosomeEEEppB7v160006Ev, symObjAddr: 0x8088, symBinAddr: 0x100023AD8, symSize: 0x30 }
  - { offsetInCU: 0x11244, offset: 0x58A17, size: 0x8, addend: 0x0, symName: __ZNKSt3__116reverse_iteratorINS0_IP10ChromosomeEEE4baseB7v160006Ev, symObjAddr: 0x80B8, symBinAddr: 0x100023B08, symSize: 0x24 }
  - { offsetInCU: 0x1126F, offset: 0x58A42, size: 0x8, addend: 0x0, symName: __ZNSt3__119__to_address_helperINS_16reverse_iteratorINS1_IP10ChromosomeEEEEvE6__callB7v160006ERKS5_, symObjAddr: 0x80DC, symBinAddr: 0x100023B2C, symSize: 0x38 }
  - { offsetInCU: 0x11292, offset: 0x58A65, size: 0x8, addend: 0x0, symName: __ZNKSt3__116reverse_iteratorINS0_IP10ChromosomeEEEptB7v160006Ev, symObjAddr: 0x8114, symBinAddr: 0x100023B64, symSize: 0x4C }
  - { offsetInCU: 0x112B8, offset: 0x58A8B, size: 0x8, addend: 0x0, symName: __ZNSt3__116reverse_iteratorIP10ChromosomeEpLB7v160006El, symObjAddr: 0x823C, symBinAddr: 0x100023C8C, symSize: 0x30 }
  - { offsetInCU: 0x112EC, offset: 0x58ABF, size: 0x8, addend: 0x0, symName: __ZNSt3__116reverse_iteratorIP10ChromosomeEmmB7v160006Ev, symObjAddr: 0x826C, symBinAddr: 0x100023CBC, symSize: 0x20 }
  - { offsetInCU: 0x11312, offset: 0x58AE5, size: 0x8, addend: 0x0, symName: __ZNSt3__116reverse_iteratorINS0_IP10ChromosomeEEEC2B7v160006ES3_, symObjAddr: 0x828C, symBinAddr: 0x100023CDC, symSize: 0x2C }
  - { offsetInCU: 0x1134A, offset: 0x58B1D, size: 0x8, addend: 0x0, symName: __ZNSt3__114__split_bufferI10ChromosomeRNS_9allocatorIS1_EEED2Ev, symObjAddr: 0x82B8, symBinAddr: 0x100023D08, symSize: 0x8C }
  - { offsetInCU: 0x11376, offset: 0x58B49, size: 0x8, addend: 0x0, symName: __ZNSt3__114__split_bufferI10ChromosomeRNS_9allocatorIS1_EEE5clearB7v160006Ev, symObjAddr: 0x8344, symBinAddr: 0x100023D94, symSize: 0x28 }
  - { offsetInCU: 0x1139C, offset: 0x58B6F, size: 0x8, addend: 0x0, symName: __ZNKSt3__114__split_bufferI10ChromosomeRNS_9allocatorIS1_EEE8capacityB7v160006Ev, symObjAddr: 0x836C, symBinAddr: 0x100023DBC, symSize: 0x40 }
  - { offsetInCU: 0x113C2, offset: 0x58B95, size: 0x8, addend: 0x0, symName: __ZNSt3__114__split_bufferI10ChromosomeRNS_9allocatorIS1_EEE17__destruct_at_endB7v160006EPS1_, symObjAddr: 0x83AC, symBinAddr: 0x100023DFC, symSize: 0x2C }
  - { offsetInCU: 0x113F6, offset: 0x58BC9, size: 0x8, addend: 0x0, symName: __ZNSt3__114__split_bufferI10ChromosomeRNS_9allocatorIS1_EEE17__destruct_at_endB7v160006EPS1_NS_17integral_constantIbLb0EEE, symObjAddr: 0x83D8, symBinAddr: 0x100023E28, symSize: 0x80 }
  - { offsetInCU: 0x11437, offset: 0x58C0A, size: 0x8, addend: 0x0, symName: __ZNKSt3__114__split_bufferI10ChromosomeRNS_9allocatorIS1_EEE9__end_capB7v160006Ev, symObjAddr: 0x8458, symBinAddr: 0x100023EA8, symSize: 0x28 }
  - { offsetInCU: 0x1145D, offset: 0x58C30, size: 0x8, addend: 0x0, symName: __ZNKSt3__117__compressed_pairIP10ChromosomeRNS_9allocatorIS1_EEE5firstB7v160006Ev, symObjAddr: 0x8480, symBinAddr: 0x100023ED0, symSize: 0x24 }
  - { offsetInCU: 0x11483, offset: 0x58C56, size: 0x8, addend: 0x0, symName: __ZNKSt3__111__wrap_iterIP10ChromosomeE4baseB7v160006Ev, symObjAddr: 0x869C, symBinAddr: 0x1000240EC, symSize: 0x18 }
  - { offsetInCU: 0x114B3, offset: 0x58C86, size: 0x8, addend: 0x0, symName: '__ZZN16GeneticAlgorithm13selectParentsEvENK3$_0clER10ChromosomeS2_', symObjAddr: 0x86B4, symBinAddr: 0x100024104, symSize: 0x4C }
  - { offsetInCU: 0x11503, offset: 0x58CD6, size: 0x8, addend: 0x0, symName: __ZNKSt3__110__identityclIR10ChromosomeEEOT_S5_, symObjAddr: 0x8700, symBinAddr: 0x100024150, symSize: 0x18 }
  - { offsetInCU: 0x11540, offset: 0x58D13, size: 0x8, addend: 0x0, symName: __ZNSt3__16vectorI10ChromosomeNS_9allocatorIS1_EEE11__make_iterB7v160006EPS1_, symObjAddr: 0x8718, symBinAddr: 0x100024168, symSize: 0x34 }
  - { offsetInCU: 0x11575, offset: 0x58D48, size: 0x8, addend: 0x0, symName: __ZNSt3__111__wrap_iterIP10ChromosomeEC1B7v160006EPKvS2_, symObjAddr: 0x874C, symBinAddr: 0x10002419C, symSize: 0x3C }
  - { offsetInCU: 0x115BB, offset: 0x58D8E, size: 0x8, addend: 0x0, symName: __ZNSt3__111__wrap_iterIP10ChromosomeEC2B7v160006EPKvS2_, symObjAddr: 0x8788, symBinAddr: 0x1000241D8, symSize: 0x24 }
  - { offsetInCU: 0x11601, offset: 0x58DD4, size: 0x8, addend: 0x0, symName: __ZN10ChromosomeC2ERKS_, symObjAddr: 0x87AC, symBinAddr: 0x1000241FC, symSize: 0x34 }
  - { offsetInCU: 0x11659, offset: 0x58E2C, size: 0x8, addend: 0x0, symName: __ZN10ChromosomeC2EOS_, symObjAddr: 0x9E74, symBinAddr: 0x100024230, symSize: 0x34 }
  - { offsetInCU: 0x1168E, offset: 0x58E61, size: 0x8, addend: 0x0, symName: __ZNSt3__16vectorI15ScheduledModuleNS_9allocatorIS1_EEEC1B7v160006EOS4_, symObjAddr: 0x9EA8, symBinAddr: 0x100024264, symSize: 0x34 }
  - { offsetInCU: 0x116C9, offset: 0x58E9C, size: 0x8, addend: 0x0, symName: __ZNSt3__16vectorI15ScheduledModuleNS_9allocatorIS1_EEEC2B7v160006EOS4_, symObjAddr: 0x9EDC, symBinAddr: 0x100024298, symSize: 0xDC }
  - { offsetInCU: 0x11704, offset: 0x58ED7, size: 0x8, addend: 0x0, symName: __ZNSt3__16vectorI8TimeSlotNS_9allocatorIS1_EEE11__make_iterB7v160006EPS1_, symObjAddr: 0xA028, symBinAddr: 0x100024388, symSize: 0x34 }
  - { offsetInCU: 0x11739, offset: 0x58F0C, size: 0x8, addend: 0x0, symName: __ZNSt3__111__wrap_iterIP8TimeSlotEC1B7v160006EPKvS2_, symObjAddr: 0xA05C, symBinAddr: 0x1000243BC, symSize: 0x3C }
  - { offsetInCU: 0x1177F, offset: 0x58F52, size: 0x8, addend: 0x0, symName: __ZNSt3__111__wrap_iterIP8TimeSlotEC2B7v160006EPKvS2_, symObjAddr: 0xA098, symBinAddr: 0x1000243F8, symSize: 0x24 }
  - { offsetInCU: 0x117C5, offset: 0x58F98, size: 0x8, addend: 0x0, symName: __ZNKSt3__111__wrap_iterIP8TimeSlotE4baseB7v160006Ev, symObjAddr: 0xA104, symBinAddr: 0x100024464, symSize: 0x18 }
  - { offsetInCU: 0x117EB, offset: 0x58FBE, size: 0x8, addend: 0x0, symName: __ZNKSt3__16vectorI10ChromosomeNS_9allocatorIS1_EEE11__make_iterB7v160006EPKS1_, symObjAddr: 0xA11C, symBinAddr: 0x10002447C, symSize: 0x34 }
  - { offsetInCU: 0x11820, offset: 0x58FF3, size: 0x8, addend: 0x0, symName: __ZNSt3__111__wrap_iterIPK10ChromosomeEC1B7v160006EPKvS3_, symObjAddr: 0xA150, symBinAddr: 0x1000244B0, symSize: 0x3C }
  - { offsetInCU: 0x11866, offset: 0x59039, size: 0x8, addend: 0x0, symName: __ZNSt3__111__wrap_iterIPK10ChromosomeEC2B7v160006EPKvS3_, symObjAddr: 0xA18C, symBinAddr: 0x1000244EC, symSize: 0x24 }
  - { offsetInCU: 0x118AC, offset: 0x5907F, size: 0x8, addend: 0x0, symName: __ZNKSt3__111__wrap_iterIPK10ChromosomeE4baseB7v160006Ev, symObjAddr: 0xA1F8, symBinAddr: 0x100024558, symSize: 0x18 }
  - { offsetInCU: 0x118D2, offset: 0x590A5, size: 0x8, addend: 0x0, symName: __ZNSt3__16vectorI8TimeSlotNS_9allocatorIS1_EEEC2B7v160006Ev, symObjAddr: 0xA67C, symBinAddr: 0x100024570, symSize: 0x58 }
  - { offsetInCU: 0x118FC, offset: 0x590CF, size: 0x8, addend: 0x0, symName: __ZNSt3__117__compressed_pairIP8TimeSlotNS_9allocatorIS1_EEEC1B7v160006IDnNS_18__default_init_tagEEEOT_OT0_, symObjAddr: 0xA6D4, symBinAddr: 0x1000245C8, symSize: 0x3C }
  - { offsetInCU: 0x11954, offset: 0x59127, size: 0x8, addend: 0x0, symName: __ZNSt3__117__compressed_pairIP8TimeSlotNS_9allocatorIS1_EEEC2B7v160006IDnNS_18__default_init_tagEEEOT_OT0_, symObjAddr: 0xA720, symBinAddr: 0x100024614, symSize: 0x40 }
  - { offsetInCU: 0x119AC, offset: 0x5917F, size: 0x8, addend: 0x0, symName: __ZNSt3__122__compressed_pair_elemIP8TimeSlotLi0ELb0EEC2B7v160006IDnvEEOT_, symObjAddr: 0xA760, symBinAddr: 0x100024654, symSize: 0x1C }
  - { offsetInCU: 0x119EE, offset: 0x591C1, size: 0x8, addend: 0x0, symName: __ZNSt3__122__compressed_pair_elemINS_9allocatorI8TimeSlotEELi1ELb1EEC2B7v160006ENS_18__default_init_tagE, symObjAddr: 0xA77C, symBinAddr: 0x100024670, symSize: 0x2C }
  - { offsetInCU: 0x11A23, offset: 0x591F6, size: 0x8, addend: 0x0, symName: __ZNSt3__19allocatorI8TimeSlotEC2B7v160006Ev, symObjAddr: 0xA7A8, symBinAddr: 0x10002469C, symSize: 0x2C }
  - { offsetInCU: 0x11A4D, offset: 0x59220, size: 0x8, addend: 0x0, symName: __ZNSt3__116__non_trivial_ifILb1ENS_9allocatorI8TimeSlotEEEC2B7v160006Ev, symObjAddr: 0xA7D4, symBinAddr: 0x1000246C8, symSize: 0x14 }
  - { offsetInCU: 0x11A77, offset: 0x5924A, size: 0x8, addend: 0x0, symName: __ZNSt3__16vectorI8TimeSlotNS_9allocatorIS1_EEE9__end_capB7v160006Ev, symObjAddr: 0xA8DC, symBinAddr: 0x1000246DC, symSize: 0x28 }
  - { offsetInCU: 0x11A9D, offset: 0x59270, size: 0x8, addend: 0x0, symName: __ZNSt3__16vectorI8TimeSlotNS_9allocatorIS1_EEE22__construct_one_at_endB7v160006IJRKS1_EEEvDpOT_, symObjAddr: 0xA904, symBinAddr: 0x100024704, symSize: 0x90 }
  - { offsetInCU: 0x11AEC, offset: 0x592BF, size: 0x8, addend: 0x0, symName: __ZNSt3__16vectorI8TimeSlotNS_9allocatorIS1_EEE21__push_back_slow_pathIRKS1_EEvOT_, symObjAddr: 0xA994, symBinAddr: 0x100024794, symSize: 0xD8 }
  - { offsetInCU: 0x11B4A, offset: 0x5931D, size: 0x8, addend: 0x0, symName: __ZNSt3__117__compressed_pairIP8TimeSlotNS_9allocatorIS1_EEE5firstB7v160006Ev, symObjAddr: 0xAA6C, symBinAddr: 0x10002486C, symSize: 0x24 }
  - { offsetInCU: 0x11B70, offset: 0x59343, size: 0x8, addend: 0x0, symName: __ZNSt3__122__compressed_pair_elemIP8TimeSlotLi0ELb0EE5__getB7v160006Ev, symObjAddr: 0xAA90, symBinAddr: 0x100024890, symSize: 0x14 }
  - { offsetInCU: 0x11BAF, offset: 0x59382, size: 0x8, addend: 0x0, symName: __ZNSt3__16vectorI8TimeSlotNS_9allocatorIS1_EEE21_ConstructTransactionC1B7v160006ERS4_m, symObjAddr: 0xAAA4, symBinAddr: 0x1000248A4, symSize: 0x3C }
  - { offsetInCU: 0x11BF7, offset: 0x593CA, size: 0x8, addend: 0x0, symName: __ZNSt3__116allocator_traitsINS_9allocatorI8TimeSlotEEE9constructB7v160006IS2_JRKS2_EvvEEvRS3_PT_DpOT0_, symObjAddr: 0xAAE0, symBinAddr: 0x1000248E0, symSize: 0x30 }
  - { offsetInCU: 0x11C4C, offset: 0x5941F, size: 0x8, addend: 0x0, symName: __ZNSt3__16vectorI8TimeSlotNS_9allocatorIS1_EEE21_ConstructTransactionD1B7v160006Ev, symObjAddr: 0xAB4C, symBinAddr: 0x100024910, symSize: 0x2C }
  - { offsetInCU: 0x11C76, offset: 0x59449, size: 0x8, addend: 0x0, symName: __ZNSt3__16vectorI8TimeSlotNS_9allocatorIS1_EEE21_ConstructTransactionC2B7v160006ERS4_m, symObjAddr: 0xAB78, symBinAddr: 0x10002493C, symSize: 0x4C }
  - { offsetInCU: 0x11CBE, offset: 0x59491, size: 0x8, addend: 0x0, symName: __ZNSt3__16vectorI8TimeSlotNS_9allocatorIS1_EEE21_ConstructTransactionD2B7v160006Ev, symObjAddr: 0xAC38, symBinAddr: 0x1000249C4, symSize: 0x20 }
  - { offsetInCU: 0x11CE8, offset: 0x594BB, size: 0x8, addend: 0x0, symName: __ZNKSt3__16vectorI8TimeSlotNS_9allocatorIS1_EEE11__recommendB7v160006Em, symObjAddr: 0xAC58, symBinAddr: 0x1000249E4, symSize: 0xB4 }
  - { offsetInCU: 0x11D3D, offset: 0x59510, size: 0x8, addend: 0x0, symName: __ZNSt3__114__split_bufferI8TimeSlotRNS_9allocatorIS1_EEEC1EmmS4_, symObjAddr: 0xAD0C, symBinAddr: 0x100024A98, symSize: 0x44 }
  - { offsetInCU: 0x11D93, offset: 0x59566, size: 0x8, addend: 0x0, symName: __ZNSt3__114__split_bufferI8TimeSlotRNS_9allocatorIS1_EEED1Ev, symObjAddr: 0xAE68, symBinAddr: 0x100024BF4, symSize: 0x2C }
  - { offsetInCU: 0x11DBF, offset: 0x59592, size: 0x8, addend: 0x0, symName: __ZNKSt3__16vectorI8TimeSlotNS_9allocatorIS1_EEE8max_sizeEv, symObjAddr: 0xAE94, symBinAddr: 0x100024C20, symSize: 0x60 }
  - { offsetInCU: 0x11DE7, offset: 0x595BA, size: 0x8, addend: 0x0, symName: __ZNKSt3__16vectorI8TimeSlotNS_9allocatorIS1_EEE20__throw_length_errorB7v160006Ev, symObjAddr: 0xAEF4, symBinAddr: 0x100024C80, symSize: 0x1C }
  - { offsetInCU: 0x11E17, offset: 0x595EA, size: 0x8, addend: 0x0, symName: __ZNSt3__116allocator_traitsINS_9allocatorI8TimeSlotEEE8max_sizeB7v160006IS3_vvEEmRKS3_, symObjAddr: 0xAF50, symBinAddr: 0x100024C9C, symSize: 0x28 }
  - { offsetInCU: 0x11E43, offset: 0x59616, size: 0x8, addend: 0x0, symName: __ZNKSt3__16vectorI8TimeSlotNS_9allocatorIS1_EEE7__allocB7v160006Ev, symObjAddr: 0xAF78, symBinAddr: 0x100024CC4, symSize: 0x28 }
  - { offsetInCU: 0x11E69, offset: 0x5963C, size: 0x8, addend: 0x0, symName: __ZNKSt3__117__compressed_pairIP8TimeSlotNS_9allocatorIS1_EEE6secondB7v160006Ev, symObjAddr: 0xAFA0, symBinAddr: 0x100024CEC, symSize: 0x24 }
  - { offsetInCU: 0x11E8F, offset: 0x59662, size: 0x8, addend: 0x0, symName: __ZNKSt3__122__compressed_pair_elemINS_9allocatorI8TimeSlotEELi1ELb1EE5__getB7v160006Ev, symObjAddr: 0xAFC4, symBinAddr: 0x100024D10, symSize: 0x14 }
  - { offsetInCU: 0x11EB5, offset: 0x59688, size: 0x8, addend: 0x0, symName: __ZNSt3__114__split_bufferI8TimeSlotRNS_9allocatorIS1_EEEC2EmmS4_, symObjAddr: 0xB038, symBinAddr: 0x100024D24, symSize: 0xE0 }
  - { offsetInCU: 0x11F28, offset: 0x596FB, size: 0x8, addend: 0x0, symName: __ZNSt3__117__compressed_pairIP8TimeSlotRNS_9allocatorIS1_EEEC1B7v160006IDnS5_EEOT_OT0_, symObjAddr: 0xB118, symBinAddr: 0x100024E04, symSize: 0x3C }
  - { offsetInCU: 0x11F80, offset: 0x59753, size: 0x8, addend: 0x0, symName: __ZNSt3__114__split_bufferI8TimeSlotRNS_9allocatorIS1_EEE7__allocB7v160006Ev, symObjAddr: 0xB194, symBinAddr: 0x100024E80, symSize: 0x28 }
  - { offsetInCU: 0x11FA6, offset: 0x59779, size: 0x8, addend: 0x0, symName: __ZNSt3__114__split_bufferI8TimeSlotRNS_9allocatorIS1_EEE9__end_capB7v160006Ev, symObjAddr: 0xB1BC, symBinAddr: 0x100024EA8, symSize: 0x28 }
  - { offsetInCU: 0x11FCC, offset: 0x5979F, size: 0x8, addend: 0x0, symName: __ZNSt3__117__compressed_pairIP8TimeSlotRNS_9allocatorIS1_EEEC2B7v160006IDnS5_EEOT_OT0_, symObjAddr: 0xB1E4, symBinAddr: 0x100024ED0, symSize: 0x48 }
  - { offsetInCU: 0x12024, offset: 0x597F7, size: 0x8, addend: 0x0, symName: __ZNSt3__122__compressed_pair_elemIRNS_9allocatorI8TimeSlotEELi1ELb0EEC2B7v160006IS4_vEEOT_, symObjAddr: 0xB22C, symBinAddr: 0x100024F18, symSize: 0x20 }
  - { offsetInCU: 0x12066, offset: 0x59839, size: 0x8, addend: 0x0, symName: __ZNSt3__19allocatorI8TimeSlotE8allocateB7v160006Em, symObjAddr: 0xB24C, symBinAddr: 0x100024F38, symSize: 0x5C }
  - { offsetInCU: 0x1209A, offset: 0x5986D, size: 0x8, addend: 0x0, symName: __ZNSt3__117__compressed_pairIP8TimeSlotRNS_9allocatorIS1_EEE6secondB7v160006Ev, symObjAddr: 0xB2A8, symBinAddr: 0x100024F94, symSize: 0x28 }
  - { offsetInCU: 0x120C0, offset: 0x59893, size: 0x8, addend: 0x0, symName: __ZNSt3__122__compressed_pair_elemIRNS_9allocatorI8TimeSlotEELi1ELb0EE5__getB7v160006Ev, symObjAddr: 0xB2D0, symBinAddr: 0x100024FBC, symSize: 0x18 }
  - { offsetInCU: 0x120E6, offset: 0x598B9, size: 0x8, addend: 0x0, symName: __ZNSt3__117__compressed_pairIP8TimeSlotRNS_9allocatorIS1_EEE5firstB7v160006Ev, symObjAddr: 0xB2E8, symBinAddr: 0x100024FD4, symSize: 0x24 }
  - { offsetInCU: 0x1210C, offset: 0x598DF, size: 0x8, addend: 0x0, symName: __ZNSt3__116reverse_iteratorIP8TimeSlotEC1B7v160006ES2_, symObjAddr: 0xB50C, symBinAddr: 0x100025124, symSize: 0x34 }
  - { offsetInCU: 0x12144, offset: 0x59917, size: 0x8, addend: 0x0, symName: __ZNKSt3__116reverse_iteratorIP8TimeSlotE4baseB7v160006Ev, symObjAddr: 0xB540, symBinAddr: 0x100025158, symSize: 0x18 }
  - { offsetInCU: 0x1216A, offset: 0x5993D, size: 0x8, addend: 0x0, symName: __ZNKSt3__16vectorI8TimeSlotNS_9allocatorIS1_EEE14__annotate_newB7v160006Em, symObjAddr: 0xB594, symBinAddr: 0x1000251AC, symSize: 0xC8 }
  - { offsetInCU: 0x1219F, offset: 0x59972, size: 0x8, addend: 0x0, symName: __ZNSt3__129_AllocatorDestroyRangeReverseINS_9allocatorI8TimeSlotEENS_16reverse_iteratorIPS2_EEEC1B7v160006ERS3_RS6_S9_, symObjAddr: 0xB700, symBinAddr: 0x1000252D0, symSize: 0x44 }
  - { offsetInCU: 0x121F6, offset: 0x599C9, size: 0x8, addend: 0x0, symName: __ZNSt3__116allocator_traitsINS_9allocatorI8TimeSlotEEE9constructB7v160006IS2_JS2_EvvEEvRS3_PT_DpOT0_, symObjAddr: 0xB78C, symBinAddr: 0x10002535C, symSize: 0x30 }
  - { offsetInCU: 0x1224B, offset: 0x59A1E, size: 0x8, addend: 0x0, symName: __ZNKSt3__116reverse_iteratorIP8TimeSlotEdeB7v160006Ev, symObjAddr: 0xB7E0, symBinAddr: 0x1000253B0, symSize: 0x28 }
  - { offsetInCU: 0x12280, offset: 0x59A53, size: 0x8, addend: 0x0, symName: __ZNSt3__116reverse_iteratorIP8TimeSlotEppB7v160006Ev, symObjAddr: 0xB808, symBinAddr: 0x1000253D8, symSize: 0x20 }
  - { offsetInCU: 0x122A6, offset: 0x59A79, size: 0x8, addend: 0x0, symName: __ZNSt3__128__exception_guard_exceptionsINS_29_AllocatorDestroyRangeReverseINS_9allocatorI8TimeSlotEENS_16reverse_iteratorIPS3_EEEEE10__completeB7v160006Ev, symObjAddr: 0xB828, symBinAddr: 0x1000253F8, symSize: 0x1C }
  - { offsetInCU: 0x122CC, offset: 0x59A9F, size: 0x8, addend: 0x0, symName: __ZNSt3__128__exception_guard_exceptionsINS_29_AllocatorDestroyRangeReverseINS_9allocatorI8TimeSlotEENS_16reverse_iteratorIPS3_EEEEED1B7v160006Ev, symObjAddr: 0xB844, symBinAddr: 0x100025414, symSize: 0x2C }
  - { offsetInCU: 0x122F6, offset: 0x59AC9, size: 0x8, addend: 0x0, symName: __ZNSt3__128__exception_guard_exceptionsINS_29_AllocatorDestroyRangeReverseINS_9allocatorI8TimeSlotEENS_16reverse_iteratorIPS3_EEEEEC1B7v160006ES8_, symObjAddr: 0xB870, symBinAddr: 0x100025440, symSize: 0x34 }
  - { offsetInCU: 0x1232F, offset: 0x59B02, size: 0x8, addend: 0x0, symName: __ZNSt3__128__exception_guard_exceptionsINS_29_AllocatorDestroyRangeReverseINS_9allocatorI8TimeSlotEENS_16reverse_iteratorIPS3_EEEEEC2B7v160006ES8_, symObjAddr: 0xB8A4, symBinAddr: 0x100025474, symSize: 0x30 }
  - { offsetInCU: 0x12368, offset: 0x59B3B, size: 0x8, addend: 0x0, symName: __ZNSt3__129_AllocatorDestroyRangeReverseINS_9allocatorI8TimeSlotEENS_16reverse_iteratorIPS2_EEEC2B7v160006ERS3_RS6_S9_, symObjAddr: 0xB8D4, symBinAddr: 0x1000254A4, symSize: 0x38 }
  - { offsetInCU: 0x123C4, offset: 0x59B97, size: 0x8, addend: 0x0, symName: __ZNSt3__119__to_address_helperINS_16reverse_iteratorIP8TimeSlotEEvE6__callB7v160006ERKS4_, symObjAddr: 0xBB30, symBinAddr: 0x100025518, symSize: 0x38 }
  - { offsetInCU: 0x123E7, offset: 0x59BBA, size: 0x8, addend: 0x0, symName: __ZNKSt3__116reverse_iteratorIP8TimeSlotEptB7v160006Ev, symObjAddr: 0xBB68, symBinAddr: 0x100025550, symSize: 0x2C }
  - { offsetInCU: 0x1240D, offset: 0x59BE0, size: 0x8, addend: 0x0, symName: __ZNSt3__128__exception_guard_exceptionsINS_29_AllocatorDestroyRangeReverseINS_9allocatorI8TimeSlotEENS_16reverse_iteratorIPS3_EEEEED2B7v160006Ev, symObjAddr: 0xBC64, symBinAddr: 0x10002564C, symSize: 0x50 }
  - { offsetInCU: 0x12437, offset: 0x59C0A, size: 0x8, addend: 0x0, symName: __ZNKSt3__129_AllocatorDestroyRangeReverseINS_9allocatorI8TimeSlotEENS_16reverse_iteratorIPS2_EEEclB7v160006Ev, symObjAddr: 0xBCB4, symBinAddr: 0x10002569C, symSize: 0xB4 }
  - { offsetInCU: 0x1245E, offset: 0x59C31, size: 0x8, addend: 0x0, symName: __ZNSt3__116reverse_iteratorINS0_IP8TimeSlotEEEC1B7v160006ES3_, symObjAddr: 0xBDD8, symBinAddr: 0x1000257C0, symSize: 0x3C }
  - { offsetInCU: 0x12496, offset: 0x59C69, size: 0x8, addend: 0x0, symName: __ZNSt3__116reverse_iteratorINS0_IP8TimeSlotEEEppB7v160006Ev, symObjAddr: 0xBEC0, symBinAddr: 0x100025880, symSize: 0x30 }
  - { offsetInCU: 0x124BC, offset: 0x59C8F, size: 0x8, addend: 0x0, symName: __ZNKSt3__116reverse_iteratorINS0_IP8TimeSlotEEE4baseB7v160006Ev, symObjAddr: 0xBEF0, symBinAddr: 0x1000258B0, symSize: 0x24 }
  - { offsetInCU: 0x124E7, offset: 0x59CBA, size: 0x8, addend: 0x0, symName: __ZNSt3__119__to_address_helperINS_16reverse_iteratorINS1_IP8TimeSlotEEEEvE6__callB7v160006ERKS5_, symObjAddr: 0xBF5C, symBinAddr: 0x1000258D4, symSize: 0x38 }
  - { offsetInCU: 0x1250A, offset: 0x59CDD, size: 0x8, addend: 0x0, symName: __ZNKSt3__116reverse_iteratorINS0_IP8TimeSlotEEEptB7v160006Ev, symObjAddr: 0xBF94, symBinAddr: 0x10002590C, symSize: 0x4C }
  - { offsetInCU: 0x12530, offset: 0x59D03, size: 0x8, addend: 0x0, symName: __ZNSt3__116reverse_iteratorIP8TimeSlotEpLB7v160006El, symObjAddr: 0xC0BC, symBinAddr: 0x100025A34, symSize: 0x30 }
  - { offsetInCU: 0x12564, offset: 0x59D37, size: 0x8, addend: 0x0, symName: __ZNSt3__116reverse_iteratorIP8TimeSlotEmmB7v160006Ev, symObjAddr: 0xC0EC, symBinAddr: 0x100025A64, symSize: 0x20 }
  - { offsetInCU: 0x1258A, offset: 0x59D5D, size: 0x8, addend: 0x0, symName: __ZNSt3__116reverse_iteratorINS0_IP8TimeSlotEEEC2B7v160006ES3_, symObjAddr: 0xC10C, symBinAddr: 0x100025A84, symSize: 0x2C }
  - { offsetInCU: 0x125C2, offset: 0x59D95, size: 0x8, addend: 0x0, symName: __ZNSt3__116reverse_iteratorIP8TimeSlotEC2B7v160006ES2_, symObjAddr: 0xC138, symBinAddr: 0x100025AB0, symSize: 0x28 }
  - { offsetInCU: 0x125FA, offset: 0x59DCD, size: 0x8, addend: 0x0, symName: __ZNSt3__114__split_bufferI8TimeSlotRNS_9allocatorIS1_EEED2Ev, symObjAddr: 0xC160, symBinAddr: 0x100025AD8, symSize: 0x8C }
  - { offsetInCU: 0x12626, offset: 0x59DF9, size: 0x8, addend: 0x0, symName: __ZNSt3__114__split_bufferI8TimeSlotRNS_9allocatorIS1_EEE5clearB7v160006Ev, symObjAddr: 0xC1EC, symBinAddr: 0x100025B64, symSize: 0x28 }
  - { offsetInCU: 0x1264C, offset: 0x59E1F, size: 0x8, addend: 0x0, symName: __ZNKSt3__114__split_bufferI8TimeSlotRNS_9allocatorIS1_EEE8capacityB7v160006Ev, symObjAddr: 0xC248, symBinAddr: 0x100025B8C, symSize: 0x40 }
  - { offsetInCU: 0x12672, offset: 0x59E45, size: 0x8, addend: 0x0, symName: __ZNSt3__114__split_bufferI8TimeSlotRNS_9allocatorIS1_EEE17__destruct_at_endB7v160006EPS1_, symObjAddr: 0xC288, symBinAddr: 0x100025BCC, symSize: 0x2C }
  - { offsetInCU: 0x126A6, offset: 0x59E79, size: 0x8, addend: 0x0, symName: __ZNSt3__114__split_bufferI8TimeSlotRNS_9allocatorIS1_EEE17__destruct_at_endB7v160006EPS1_NS_17integral_constantIbLb0EEE, symObjAddr: 0xC2B4, symBinAddr: 0x100025BF8, symSize: 0x80 }
  - { offsetInCU: 0x126E7, offset: 0x59EBA, size: 0x8, addend: 0x0, symName: __ZNKSt3__114__split_bufferI8TimeSlotRNS_9allocatorIS1_EEE9__end_capB7v160006Ev, symObjAddr: 0xC378, symBinAddr: 0x100025C78, symSize: 0x28 }
  - { offsetInCU: 0x1270D, offset: 0x59EE0, size: 0x8, addend: 0x0, symName: __ZNKSt3__117__compressed_pairIP8TimeSlotRNS_9allocatorIS1_EEE5firstB7v160006Ev, symObjAddr: 0xC3A0, symBinAddr: 0x100025CA0, symSize: 0x24 }
  - { offsetInCU: 0x12733, offset: 0x59F06, size: 0x8, addend: 0x0, symName: __ZNSt3__16vectorI15ScheduledModuleNS_9allocatorIS1_EEEaSB7v160006EOS4_, symObjAddr: 0xC94C, symBinAddr: 0x100025CC4, symSize: 0x34 }
  - { offsetInCU: 0x1276A, offset: 0x59F3D, size: 0x8, addend: 0x0, symName: __ZNSt3__16vectorI15ScheduledModuleNS_9allocatorIS1_EEE13__move_assignERS4_NS_17integral_constantIbLb1EEE, symObjAddr: 0xC980, symBinAddr: 0x100025CF8, symSize: 0xA4 }
  - { offsetInCU: 0x127AD, offset: 0x59F80, size: 0x8, addend: 0x0, symName: __ZNSt3__16vectorI15ScheduledModuleNS_9allocatorIS1_EEE19__move_assign_allocB7v160006ERS4_, symObjAddr: 0xCAB0, symBinAddr: 0x100025D9C, symSize: 0x2C }
  - { offsetInCU: 0x127E2, offset: 0x59FB5, size: 0x8, addend: 0x0, symName: __ZNSt3__16vectorI15ScheduledModuleNS_9allocatorIS1_EEE19__move_assign_allocB7v160006ERS4_NS_17integral_constantIbLb1EEE, symObjAddr: 0xCC10, symBinAddr: 0x100025DC8, symSize: 0x38 }
  - { offsetInCU: 0x1282D, offset: 0x5A000, size: 0x8, addend: 0x0, symName: __ZNSt3__16vectorIdNS_9allocatorIdEEE9__end_capB7v160006Ev, symObjAddr: 0xD878, symBinAddr: 0x100025E00, symSize: 0x28 }
  - { offsetInCU: 0x12858, offset: 0x5A02B, size: 0x8, addend: 0x0, symName: __ZNSt3__16vectorIdNS_9allocatorIdEEE22__construct_one_at_endB7v160006IJRKdEEEvDpOT_, symObjAddr: 0xD8A0, symBinAddr: 0x100025E28, symSize: 0x90 }
  - { offsetInCU: 0x128A7, offset: 0x5A07A, size: 0x8, addend: 0x0, symName: __ZNSt3__16vectorIdNS_9allocatorIdEEE21__push_back_slow_pathIRKdEEvOT_, symObjAddr: 0xD930, symBinAddr: 0x100025EB8, symSize: 0xD8 }
  - { offsetInCU: 0x12905, offset: 0x5A0D8, size: 0x8, addend: 0x0, symName: __ZNSt3__117__compressed_pairIPdNS_9allocatorIdEEE5firstB7v160006Ev, symObjAddr: 0xDA08, symBinAddr: 0x100025F90, symSize: 0x24 }
  - { offsetInCU: 0x1292B, offset: 0x5A0FE, size: 0x8, addend: 0x0, symName: __ZNSt3__122__compressed_pair_elemIPdLi0ELb0EE5__getB7v160006Ev, symObjAddr: 0xDA2C, symBinAddr: 0x100025FB4, symSize: 0x14 }
  - { offsetInCU: 0x1296A, offset: 0x5A13D, size: 0x8, addend: 0x0, symName: __ZNSt3__16vectorIdNS_9allocatorIdEEE21_ConstructTransactionC1B7v160006ERS3_m, symObjAddr: 0xDA40, symBinAddr: 0x100025FC8, symSize: 0x3C }
  - { offsetInCU: 0x129B2, offset: 0x5A185, size: 0x8, addend: 0x0, symName: __ZNSt3__116allocator_traitsINS_9allocatorIdEEE9constructB7v160006IdJRKdEvvEEvRS2_PT_DpOT0_, symObjAddr: 0xDA7C, symBinAddr: 0x100026004, symSize: 0x30 }
  - { offsetInCU: 0x12A07, offset: 0x5A1DA, size: 0x8, addend: 0x0, symName: __ZNSt3__16vectorIdNS_9allocatorIdEEE21_ConstructTransactionD1B7v160006Ev, symObjAddr: 0xDAE8, symBinAddr: 0x100026034, symSize: 0x2C }
  - { offsetInCU: 0x12A31, offset: 0x5A204, size: 0x8, addend: 0x0, symName: __ZNSt3__16vectorIdNS_9allocatorIdEEE21_ConstructTransactionC2B7v160006ERS3_m, symObjAddr: 0xDB14, symBinAddr: 0x100026060, symSize: 0x44 }
  - { offsetInCU: 0x12A79, offset: 0x5A24C, size: 0x8, addend: 0x0, symName: __ZNSt3__16vectorIdNS_9allocatorIdEEE21_ConstructTransactionD2B7v160006Ev, symObjAddr: 0xDBBC, symBinAddr: 0x1000260D0, symSize: 0x20 }
  - { offsetInCU: 0x12AA3, offset: 0x5A276, size: 0x8, addend: 0x0, symName: __ZNKSt3__16vectorIdNS_9allocatorIdEEE11__recommendB7v160006Em, symObjAddr: 0xDBDC, symBinAddr: 0x1000260F0, symSize: 0xB4 }
  - { offsetInCU: 0x12AF8, offset: 0x5A2CB, size: 0x8, addend: 0x0, symName: __ZNSt3__114__split_bufferIdRNS_9allocatorIdEEEC1EmmS3_, symObjAddr: 0xDC90, symBinAddr: 0x1000261A4, symSize: 0x44 }
  - { offsetInCU: 0x12B4E, offset: 0x5A321, size: 0x8, addend: 0x0, symName: __ZNSt3__114__split_bufferIdRNS_9allocatorIdEEED1Ev, symObjAddr: 0xDDEC, symBinAddr: 0x100026300, symSize: 0x2C }
  - { offsetInCU: 0x12B7A, offset: 0x5A34D, size: 0x8, addend: 0x0, symName: __ZNKSt3__16vectorIdNS_9allocatorIdEEE8max_sizeEv, symObjAddr: 0xDE18, symBinAddr: 0x10002632C, symSize: 0x60 }
  - { offsetInCU: 0x12BA2, offset: 0x5A375, size: 0x8, addend: 0x0, symName: __ZNKSt3__16vectorIdNS_9allocatorIdEEE20__throw_length_errorB7v160006Ev, symObjAddr: 0xDE78, symBinAddr: 0x10002638C, symSize: 0x1C }
  - { offsetInCU: 0x12BD2, offset: 0x5A3A5, size: 0x8, addend: 0x0, symName: __ZNSt3__116allocator_traitsINS_9allocatorIdEEE8max_sizeB7v160006IS2_vvEEmRKS2_, symObjAddr: 0xDED4, symBinAddr: 0x1000263A8, symSize: 0x28 }
  - { offsetInCU: 0x12BFE, offset: 0x5A3D1, size: 0x8, addend: 0x0, symName: __ZNKSt3__16vectorIdNS_9allocatorIdEEE7__allocB7v160006Ev, symObjAddr: 0xDEFC, symBinAddr: 0x1000263D0, symSize: 0x28 }
  - { offsetInCU: 0x12C24, offset: 0x5A3F7, size: 0x8, addend: 0x0, symName: __ZNKSt3__117__compressed_pairIPdNS_9allocatorIdEEE6secondB7v160006Ev, symObjAddr: 0xDF24, symBinAddr: 0x1000263F8, symSize: 0x24 }
  - { offsetInCU: 0x12C4A, offset: 0x5A41D, size: 0x8, addend: 0x0, symName: __ZNKSt3__122__compressed_pair_elemINS_9allocatorIdEELi1ELb1EE5__getB7v160006Ev, symObjAddr: 0xDF48, symBinAddr: 0x10002641C, symSize: 0x14 }
  - { offsetInCU: 0x12C70, offset: 0x5A443, size: 0x8, addend: 0x0, symName: __ZNSt3__114__split_bufferIdRNS_9allocatorIdEEEC2EmmS3_, symObjAddr: 0xDFBC, symBinAddr: 0x100026430, symSize: 0xD4 }
  - { offsetInCU: 0x12CE3, offset: 0x5A4B6, size: 0x8, addend: 0x0, symName: __ZNSt3__117__compressed_pairIPdRNS_9allocatorIdEEEC1B7v160006IDnS4_EEOT_OT0_, symObjAddr: 0xE090, symBinAddr: 0x100026504, symSize: 0x3C }
  - { offsetInCU: 0x12D3B, offset: 0x5A50E, size: 0x8, addend: 0x0, symName: __ZNSt3__114__split_bufferIdRNS_9allocatorIdEEE7__allocB7v160006Ev, symObjAddr: 0xE10C, symBinAddr: 0x100026580, symSize: 0x28 }
  - { offsetInCU: 0x12D61, offset: 0x5A534, size: 0x8, addend: 0x0, symName: __ZNSt3__114__split_bufferIdRNS_9allocatorIdEEE9__end_capB7v160006Ev, symObjAddr: 0xE134, symBinAddr: 0x1000265A8, symSize: 0x28 }
  - { offsetInCU: 0x12D87, offset: 0x5A55A, size: 0x8, addend: 0x0, symName: __ZNSt3__117__compressed_pairIPdRNS_9allocatorIdEEEC2B7v160006IDnS4_EEOT_OT0_, symObjAddr: 0xE15C, symBinAddr: 0x1000265D0, symSize: 0x48 }
  - { offsetInCU: 0x12DDF, offset: 0x5A5B2, size: 0x8, addend: 0x0, symName: __ZNSt3__122__compressed_pair_elemIRNS_9allocatorIdEELi1ELb0EEC2B7v160006IS3_vEEOT_, symObjAddr: 0xE1A4, symBinAddr: 0x100026618, symSize: 0x20 }
  - { offsetInCU: 0x12E21, offset: 0x5A5F4, size: 0x8, addend: 0x0, symName: __ZNSt3__19allocatorIdE8allocateB7v160006Em, symObjAddr: 0xE1C4, symBinAddr: 0x100026638, symSize: 0x58 }
  - { offsetInCU: 0x12E55, offset: 0x5A628, size: 0x8, addend: 0x0, symName: __ZNSt3__117__compressed_pairIPdRNS_9allocatorIdEEE6secondB7v160006Ev, symObjAddr: 0xE21C, symBinAddr: 0x100026690, symSize: 0x28 }
  - { offsetInCU: 0x12E7B, offset: 0x5A64E, size: 0x8, addend: 0x0, symName: __ZNSt3__122__compressed_pair_elemIRNS_9allocatorIdEELi1ELb0EE5__getB7v160006Ev, symObjAddr: 0xE244, symBinAddr: 0x1000266B8, symSize: 0x18 }
  - { offsetInCU: 0x12EA1, offset: 0x5A674, size: 0x8, addend: 0x0, symName: __ZNSt3__117__compressed_pairIPdRNS_9allocatorIdEEE5firstB7v160006Ev, symObjAddr: 0xE25C, symBinAddr: 0x1000266D0, symSize: 0x24 }
  - { offsetInCU: 0x12EC7, offset: 0x5A69A, size: 0x8, addend: 0x0, symName: __ZNSt3__116reverse_iteratorIPdEC1B7v160006ES1_, symObjAddr: 0xE3B0, symBinAddr: 0x10002676C, symSize: 0x34 }
  - { offsetInCU: 0x12EFF, offset: 0x5A6D2, size: 0x8, addend: 0x0, symName: __ZNKSt3__116reverse_iteratorIPdE4baseB7v160006Ev, symObjAddr: 0xE3E4, symBinAddr: 0x1000267A0, symSize: 0x18 }
  - { offsetInCU: 0x12F25, offset: 0x5A6F8, size: 0x8, addend: 0x0, symName: __ZNKSt3__16vectorIdNS_9allocatorIdEEE14__annotate_newB7v160006Em, symObjAddr: 0xE438, symBinAddr: 0x1000267F4, symSize: 0xAC }
  - { offsetInCU: 0x12F7D, offset: 0x5A750, size: 0x8, addend: 0x0, symName: __ZNKSt3__111__move_loopINS_17_ClassicAlgPolicyEEclB7v160006INS_16reverse_iteratorIPdEES6_S6_EENS_4pairIT_T1_EES8_T0_S9_, symObjAddr: 0xE7F4, symBinAddr: 0x100026B68, symSize: 0xA0 }
  - { offsetInCU: 0x12FE8, offset: 0x5A7BB, size: 0x8, addend: 0x0, symName: __ZNSt3__119__unwrap_range_implINS_16reverse_iteratorIPdEES3_E8__unwrapB7v160006ES3_S3_, symObjAddr: 0xE9E0, symBinAddr: 0x100026D54, symSize: 0x84 }
  - { offsetInCU: 0x1301E, offset: 0x5A7F1, size: 0x8, addend: 0x0, symName: __ZNSt3__14pairINS_16reverse_iteratorIPdEES3_EC1B7v160006IS3_S3_LPv0EEEOT_OT0_, symObjAddr: 0xEA64, symBinAddr: 0x100026DD8, symSize: 0x3C }
  - { offsetInCU: 0x1307C, offset: 0x5A84F, size: 0x8, addend: 0x0, symName: __ZNSt3__14pairINS_16reverse_iteratorIPdEES3_EC2B7v160006IS3_S3_LPv0EEEOT_OT0_, symObjAddr: 0xEAA0, symBinAddr: 0x100026E14, symSize: 0x34 }
  - { offsetInCU: 0x130DF, offset: 0x5A8B2, size: 0x8, addend: 0x0, symName: __ZNSt3__18_IterOpsINS_17_ClassicAlgPolicyEE11__iter_moveB7v160006IRNS_16reverse_iteratorIPdEEEENS_9enable_ifIXsr12is_referenceIDTdeclsr3stdE7declvalIRT_EEEEE5valueEDTclsr3stdE4movedeclsr3stdE7declvalISA_EEEEE4typeEOS9_, symObjAddr: 0xEB1C, symBinAddr: 0x100026E90, symSize: 0x28 }
  - { offsetInCU: 0x1310B, offset: 0x5A8DE, size: 0x8, addend: 0x0, symName: __ZNKSt3__116reverse_iteratorIPdEdeB7v160006Ev, symObjAddr: 0xEB44, symBinAddr: 0x100026EB8, symSize: 0x28 }
  - { offsetInCU: 0x13140, offset: 0x5A913, size: 0x8, addend: 0x0, symName: __ZNSt3__116reverse_iteratorIPdEppB7v160006Ev, symObjAddr: 0xEB6C, symBinAddr: 0x100026EE0, symSize: 0x20 }
  - { offsetInCU: 0x13166, offset: 0x5A939, size: 0x8, addend: 0x0, symName: __ZNSt3__18_IterOpsINS_17_ClassicAlgPolicyEE25__validate_iter_referenceB7v160006IRNS_16reverse_iteratorIPdEEEEvv, symObjAddr: 0xEB8C, symBinAddr: 0x100026F00, symSize: 0x4 }
  - { offsetInCU: 0x13184, offset: 0x5A957, size: 0x8, addend: 0x0, symName: __ZNSt3__118__unwrap_iter_implINS_16reverse_iteratorIPdEELb0EE8__unwrapB7v160006ES3_, symObjAddr: 0xEB90, symBinAddr: 0x100026F04, symSize: 0x24 }
  - { offsetInCU: 0x131A7, offset: 0x5A97A, size: 0x8, addend: 0x0, symName: __ZNSt3__119__unwrap_range_implINS_16reverse_iteratorIPdEES3_E8__rewrapB7v160006ES3_S3_, symObjAddr: 0xEBB4, symBinAddr: 0x100026F28, symSize: 0x5C }
  - { offsetInCU: 0x131D8, offset: 0x5A9AB, size: 0x8, addend: 0x0, symName: __ZNSt3__118__unwrap_iter_implINS_16reverse_iteratorIPdEELb0EE8__rewrapB7v160006ES3_S3_, symObjAddr: 0xEC10, symBinAddr: 0x100026F84, symSize: 0x2C }
  - { offsetInCU: 0x13206, offset: 0x5A9D9, size: 0x8, addend: 0x0, symName: __ZNSt3__116reverse_iteratorIPdEC2B7v160006ES1_, symObjAddr: 0xEC3C, symBinAddr: 0x100026FB0, symSize: 0x28 }
  - { offsetInCU: 0x1323E, offset: 0x5AA11, size: 0x8, addend: 0x0, symName: __ZNSt3__114__split_bufferIdRNS_9allocatorIdEEED2Ev, symObjAddr: 0xEC64, symBinAddr: 0x100026FD8, symSize: 0x8C }
  - { offsetInCU: 0x1326A, offset: 0x5AA3D, size: 0x8, addend: 0x0, symName: __ZNSt3__114__split_bufferIdRNS_9allocatorIdEEE5clearB7v160006Ev, symObjAddr: 0xECF0, symBinAddr: 0x100027064, symSize: 0x28 }
  - { offsetInCU: 0x13290, offset: 0x5AA63, size: 0x8, addend: 0x0, symName: __ZNKSt3__114__split_bufferIdRNS_9allocatorIdEEE8capacityB7v160006Ev, symObjAddr: 0xED4C, symBinAddr: 0x10002708C, symSize: 0x40 }
  - { offsetInCU: 0x132B6, offset: 0x5AA89, size: 0x8, addend: 0x0, symName: __ZNSt3__114__split_bufferIdRNS_9allocatorIdEEE17__destruct_at_endB7v160006EPd, symObjAddr: 0xED8C, symBinAddr: 0x1000270CC, symSize: 0x2C }
  - { offsetInCU: 0x132EA, offset: 0x5AABD, size: 0x8, addend: 0x0, symName: __ZNSt3__114__split_bufferIdRNS_9allocatorIdEEE17__destruct_at_endB7v160006EPdNS_17integral_constantIbLb0EEE, symObjAddr: 0xEDB8, symBinAddr: 0x1000270F8, symSize: 0x80 }
  - { offsetInCU: 0x1332B, offset: 0x5AAFE, size: 0x8, addend: 0x0, symName: __ZNKSt3__114__split_bufferIdRNS_9allocatorIdEEE9__end_capB7v160006Ev, symObjAddr: 0xEED4, symBinAddr: 0x100027178, symSize: 0x28 }
  - { offsetInCU: 0x13351, offset: 0x5AB24, size: 0x8, addend: 0x0, symName: __ZNKSt3__117__compressed_pairIPdRNS_9allocatorIdEEE5firstB7v160006Ev, symObjAddr: 0xEEFC, symBinAddr: 0x1000271A0, symSize: 0x24 }
  - { offsetInCU: 0x13377, offset: 0x5AB4A, size: 0x8, addend: 0x0, symName: __ZNSt3__16vectorIdNS_9allocatorIdEEE11__make_iterB7v160006EPd, symObjAddr: 0xEF4C, symBinAddr: 0x1000271C4, symSize: 0x34 }
  - { offsetInCU: 0x133AC, offset: 0x5AB7F, size: 0x8, addend: 0x0, symName: __ZNSt3__111__wrap_iterIPdEC1B7v160006EPKvS1_, symObjAddr: 0xEF80, symBinAddr: 0x1000271F8, symSize: 0x3C }
  - { offsetInCU: 0x133F2, offset: 0x5ABC5, size: 0x8, addend: 0x0, symName: __ZNSt3__111__wrap_iterIPdEC2B7v160006EPKvS1_, symObjAddr: 0xEFBC, symBinAddr: 0x100027234, symSize: 0x24 }
  - { offsetInCU: 0x13438, offset: 0x5AC0B, size: 0x8, addend: 0x0, symName: __ZNKSt3__111__wrap_iterIPdE4baseB7v160006Ev, symObjAddr: 0xF028, symBinAddr: 0x1000272A0, symSize: 0x18 }
  - { offsetInCU: 0x52, offset: 0x5ADFE, size: 0x8, addend: 0x0, symName: _crossoverPoints, symObjAddr: 0x931F8, symBinAddr: 0x1000500B0, symSize: 0x0 }
  - { offsetInCU: 0x4F97, offset: 0x5FD43, size: 0x8, addend: 0x0, symName: __ZNSt3__17advanceB7v160006IP8LecturerllvEEvRT_T0_, symObjAddr: 0x6E0C, symBinAddr: 0x10002D10C, symSize: 0x50 }
  - { offsetInCU: 0x5218, offset: 0x5FFC4, size: 0x8, addend: 0x0, symName: __ZNSt3__17advanceB7v160006INS_16reverse_iteratorIP8LecturerEEllvEEvRT_T0_, symObjAddr: 0x7274, symBinAddr: 0x10002D4F0, symSize: 0x50 }
  - { offsetInCU: 0x6765, offset: 0x61511, size: 0x8, addend: 0x0, symName: __ZNSt3__17advanceB7v160006IPNS_12basic_stringIcNS_11char_traitsIcEENS_9allocatorIcEEEEllvEEvRT_T0_, symObjAddr: 0x88B0, symBinAddr: 0x10002E7D0, symSize: 0x50 }
  - { offsetInCU: 0x96BD, offset: 0x64469, size: 0x8, addend: 0x0, symName: __ZNSt3__17advanceB7v160006IP6ModulellvEEvRT_T0_, symObjAddr: 0xBEBC, symBinAddr: 0x10002FDAC, symSize: 0x50 }
  - { offsetInCU: 0x993E, offset: 0x646EA, size: 0x8, addend: 0x0, symName: __ZNSt3__17advanceB7v160006INS_16reverse_iteratorIP6ModuleEEllvEEvRT_T0_, symObjAddr: 0xC318, symBinAddr: 0x100030198, symSize: 0x50 }
  - { offsetInCU: 0xAFD3, offset: 0x65D7F, size: 0x8, addend: 0x0, symName: __ZNSt3__17advanceB7v160006IP5VenuellvEEvRT_T0_, symObjAddr: 0xD860, symBinAddr: 0x100031344, symSize: 0x50 }
  - { offsetInCU: 0xB254, offset: 0x66000, size: 0x8, addend: 0x0, symName: __ZNSt3__17advanceB7v160006INS_16reverse_iteratorIP5VenueEEllvEEvRT_T0_, symObjAddr: 0xDCBC, symBinAddr: 0x100031730, symSize: 0x50 }
  - { offsetInCU: 0xCA8F, offset: 0x6783B, size: 0x8, addend: 0x0, symName: __ZNSt3__17advanceB7v160006IP26LecturerTimeSlotPreferencellvEEvRT_T0_, symObjAddr: 0x11C30, symBinAddr: 0x1000330E0, symSize: 0x50 }
  - { offsetInCU: 0xCD10, offset: 0x67ABC, size: 0x8, addend: 0x0, symName: __ZNSt3__17advanceB7v160006INS_16reverse_iteratorIP26LecturerTimeSlotPreferenceEEllvEEvRT_T0_, symObjAddr: 0x12084, symBinAddr: 0x1000334C4, symSize: 0x50 }
  - { offsetInCU: 0xE014, offset: 0x68DC0, size: 0x8, addend: 0x0, symName: __ZNSt3__1neB7v160006IPNS_12basic_stringIcNS_11char_traitsIcEENS_9allocatorIcEEEEEEbRKNS_11__wrap_iterIT_EESC_, symObjAddr: 0x1690, symBinAddr: 0x1000288E8, symSize: 0x34 }
  - { offsetInCU: 0xE057, offset: 0x68E03, size: 0x8, addend: 0x0, symName: __ZNSt3__1eqB7v160006IcNS_11char_traitsIcEENS_9allocatorIcEEEEbRKNS_12basic_stringIT_T0_T1_EEPKS6_, symObjAddr: 0x16DC, symBinAddr: 0x100028934, symSize: 0x5C }
  - { offsetInCU: 0xE0AF, offset: 0x68E5B, size: 0x8, addend: 0x0, symName: __ZNSt3__1neB7v160006IP6ModuleEEbRKNS_11__wrap_iterIT_EES7_, symObjAddr: 0x3B9C, symBinAddr: 0x10002AC84, symSize: 0x34 }
  - { offsetInCU: 0xE9BF, offset: 0x6976B, size: 0x8, addend: 0x0, symName: __ZNSt3__1rsB7v160006IcNS_11char_traitsIcEENS_9allocatorIcEEEERNS_13basic_istreamIT_T0_EES9_RNS_12basic_stringIS6_S7_T1_EE, symObjAddr: 0x4140, symBinAddr: 0x10002B15C, symSize: 0x31C }
  - { offsetInCU: 0xEA99, offset: 0x69845, size: 0x8, addend: 0x0, symName: '__ZNSt3__17find_ifB7v160006INS_11__wrap_iterIP8LecturerEEZ18findLecturerByNameRKNS_12basic_stringIcNS_11char_traitsIcEENS_9allocatorIcEEEEE3$_0EET_SE_SE_T0_', symObjAddr: 0x48B4, symBinAddr: 0x10002B74C, symSize: 0x78 }
  - { offsetInCU: 0xEAF4, offset: 0x698A0, size: 0x8, addend: 0x0, symName: __ZNSt3__1neB7v160006IP8LecturerEEbRKNS_11__wrap_iterIT_EES7_, symObjAddr: 0x498C, symBinAddr: 0x10002B824, symSize: 0x34 }
  - { offsetInCU: 0xEB5E, offset: 0x6990A, size: 0x8, addend: 0x0, symName: __ZNSt3__112construct_atB7v160006I8LecturerJS1_EPS1_EEPT_S4_DpOT0_, symObjAddr: 0x5AA0, symBinAddr: 0x10002C544, symSize: 0x3C }
  - { offsetInCU: 0xEBD0, offset: 0x6997C, size: 0x8, addend: 0x0, symName: __ZNSt3__119__allocate_at_leastB7v160006INS_9allocatorI8LecturerEEEENS_19__allocation_resultINS_16allocator_traitsIT_E7pointerEEERS6_m, symObjAddr: 0x64EC, symBinAddr: 0x10002C9F0, symSize: 0x40 }
  - { offsetInCU: 0xEC13, offset: 0x699BF, size: 0x8, addend: 0x0, symName: __ZNSt3__142__uninitialized_allocator_move_if_noexceptB7v160006INS_9allocatorI8LecturerEENS_16reverse_iteratorIPS2_EES6_S6_EET2_RT_T0_T1_S7_, symObjAddr: 0x6878, symBinAddr: 0x10002CBC0, symSize: 0x12C }
  - { offsetInCU: 0xECB3, offset: 0x69A5F, size: 0x8, addend: 0x0, symName: __ZNSt3__14swapB7v160006IP8LecturerEENS_9enable_ifIXaasr21is_move_constructibleIT_EE5valuesr18is_move_assignableIS4_EE5valueEvE4typeERS4_S7_, symObjAddr: 0x69F0, symBinAddr: 0x10002CD38, symSize: 0x3C }
  - { offsetInCU: 0xED05, offset: 0x69AB1, size: 0x8, addend: 0x0, symName: __ZNSt3__125__debug_db_invalidate_allB7v160006INS_6vectorI8LecturerNS_9allocatorIS2_EEEEEEvPT_, symObjAddr: 0x6AD8, symBinAddr: 0x10002CE20, symSize: 0x10 }
  - { offsetInCU: 0xED36, offset: 0x69AE2, size: 0x8, addend: 0x0, symName: __ZNSt3__122__make_exception_guardB7v160006INS_29_AllocatorDestroyRangeReverseINS_9allocatorI8LecturerEENS_16reverse_iteratorIPS3_EEEEEENS_28__exception_guard_exceptionsIT_EESA_, symObjAddr: 0x6B30, symBinAddr: 0x10002CE30, symSize: 0x4C }
  - { offsetInCU: 0xED6C, offset: 0x69B18, size: 0x8, addend: 0x0, symName: __ZNSt3__1neB7v160006IP8LecturerS2_EEbRKNS_16reverse_iteratorIT_EERKNS3_IT0_EE, symObjAddr: 0x6BC0, symBinAddr: 0x10002CEC0, symSize: 0x48 }
  - { offsetInCU: 0xEDB8, offset: 0x69B64, size: 0x8, addend: 0x0, symName: __ZNSt3__112__to_addressB7v160006INS_16reverse_iteratorIP8LecturerEEvEENS_5decayIDTclsr19__to_address_helperIT_EE6__callclsr3stdE7declvalIRKS6_EEEEE4typeES8_, symObjAddr: 0x6C08, symBinAddr: 0x10002CF08, symSize: 0x24 }
  - { offsetInCU: 0xEE17, offset: 0x69BC3, size: 0x8, addend: 0x0, symName: __ZNSt3__14prevB7v160006IP8LecturerEENS_9enable_ifIXsr25__is_cpp17_input_iteratorIT_EE5valueES4_E4typeES4_NS_15iterator_traitsIS4_E15difference_typeE, symObjAddr: 0x6DBC, symBinAddr: 0x10002D0BC, symSize: 0x50 }
  - { offsetInCU: 0xEE5A, offset: 0x69C06, size: 0x8, addend: 0x0, symName: __ZNSt3__19__advanceB7v160006IP8LecturerEEvRT_NS_15iterator_traitsIS3_E15difference_typeENS_26random_access_iterator_tagE, symObjAddr: 0x6E70, symBinAddr: 0x10002D15C, symSize: 0x28 }
  - { offsetInCU: 0xEEA4, offset: 0x69C50, size: 0x8, addend: 0x0, symName: __ZNSt3__119__allocator_destroyB7v160006INS_9allocatorI8LecturerEENS_16reverse_iteratorINS4_IPS2_EEEES7_EEvRT_T0_T1_, symObjAddr: 0x6F9C, symBinAddr: 0x10002D288, symSize: 0x70 }
  - { offsetInCU: 0xEF09, offset: 0x69CB5, size: 0x8, addend: 0x0, symName: __ZNSt3__1neB7v160006INS_16reverse_iteratorIP8LecturerEES4_EEbRKNS1_IT_EERKNS1_IT0_EE, symObjAddr: 0x7048, symBinAddr: 0x10002D334, symSize: 0x60 }
  - { offsetInCU: 0xEF55, offset: 0x69D01, size: 0x8, addend: 0x0, symName: __ZNSt3__112__to_addressB7v160006INS_16reverse_iteratorINS1_IP8LecturerEEEEvEENS_5decayIDTclsr19__to_address_helperIT_EE6__callclsr3stdE7declvalIRKS7_EEEEE4typeES9_, symObjAddr: 0x70D0, symBinAddr: 0x10002D394, symSize: 0x24 }
  - { offsetInCU: 0xEFB4, offset: 0x69D60, size: 0x8, addend: 0x0, symName: __ZNSt3__14prevB7v160006INS_16reverse_iteratorIP8LecturerEEEENS_9enable_ifIXsr25__is_cpp17_input_iteratorIT_EE5valueES6_E4typeES6_NS_15iterator_traitsIS6_E15difference_typeE, symObjAddr: 0x7214, symBinAddr: 0x10002D490, symSize: 0x60 }
  - { offsetInCU: 0xEFF7, offset: 0x69DA3, size: 0x8, addend: 0x0, symName: __ZNSt3__19__advanceB7v160006INS_16reverse_iteratorIP8LecturerEEEEvRT_NS_15iterator_traitsIS5_E15difference_typeENS_26random_access_iterator_tagE, symObjAddr: 0x72C4, symBinAddr: 0x10002D540, symSize: 0x2C }
  - { offsetInCU: 0xF041, offset: 0x69DED, size: 0x8, addend: 0x0, symName: __ZNSt3__122__make_exception_guardB7v160006INS_6vectorINS_12basic_stringIcNS_11char_traitsIcEENS_9allocatorIcEEEENS5_IS7_EEE16__destroy_vectorEEENS_28__exception_guard_exceptionsIT_EESC_, symObjAddr: 0x7A3C, symBinAddr: 0x10002D95C, symSize: 0x40 }
  - { offsetInCU: 0xF076, offset: 0x69E22, size: 0x8, addend: 0x0, symName: __ZNSt3__119__debug_db_insert_cB7v160006INS_6vectorINS_12basic_stringIcNS_11char_traitsIcEENS_9allocatorIcEEEENS5_IS7_EEEEEEvPT_, symObjAddr: 0x7AB0, symBinAddr: 0x10002D9D0, symSize: 0x10 }
  - { offsetInCU: 0xF0A7, offset: 0x69E53, size: 0x8, addend: 0x0, symName: __ZNSt3__119__allocate_at_leastB7v160006INS_9allocatorINS_12basic_stringIcNS_11char_traitsIcEENS1_IcEEEEEEEENS_19__allocation_resultINS_16allocator_traitsIT_E7pointerEEERSA_m, symObjAddr: 0x7E5C, symBinAddr: 0x10002DD7C, symSize: 0x40 }
  - { offsetInCU: 0xF0EA, offset: 0x69E96, size: 0x8, addend: 0x0, symName: __ZNSt3__112__to_addressB7v160006INS_12basic_stringIcNS_11char_traitsIcEENS_9allocatorIcEEEEEEPT_S8_, symObjAddr: 0x8190, symBinAddr: 0x10002E0B0, symSize: 0x14 }
  - { offsetInCU: 0xF11F, offset: 0x69ECB, size: 0x8, addend: 0x0, symName: __ZNSt3__130__uninitialized_allocator_copyB7v160006INS_9allocatorINS_12basic_stringIcNS_11char_traitsIcEENS1_IcEEEEEEPKS6_S9_PS6_EET2_RT_T0_T1_SB_, symObjAddr: 0x8240, symBinAddr: 0x10002E160, symSize: 0xF4 }
  - { offsetInCU: 0xF1BD, offset: 0x69F69, size: 0x8, addend: 0x0, symName: __ZNSt3__122__make_exception_guardB7v160006INS_29_AllocatorDestroyRangeReverseINS_9allocatorINS_12basic_stringIcNS_11char_traitsIcEENS2_IcEEEEEEPS7_EEEENS_28__exception_guard_exceptionsIT_EESC_, symObjAddr: 0x83AC, symBinAddr: 0x10002E2CC, symSize: 0x4C }
  - { offsetInCU: 0xF21A, offset: 0x69FC6, size: 0x8, addend: 0x0, symName: __ZNSt3__112construct_atB7v160006INS_12basic_stringIcNS_11char_traitsIcEENS_9allocatorIcEEEEJRKS6_EPS6_EEPT_SB_DpOT0_, symObjAddr: 0x8550, symBinAddr: 0x10002E470, symSize: 0x3C }
  - { offsetInCU: 0xF28C, offset: 0x6A038, size: 0x8, addend: 0x0, symName: __ZNSt3__119__allocator_destroyB7v160006INS_9allocatorINS_12basic_stringIcNS_11char_traitsIcEENS1_IcEEEEEENS_16reverse_iteratorIPS6_EESA_EEvRT_T0_T1_, symObjAddr: 0x8644, symBinAddr: 0x10002E564, symSize: 0x70 }
  - { offsetInCU: 0xF2EF, offset: 0x6A09B, size: 0x8, addend: 0x0, symName: __ZNSt3__1neB7v160006IPNS_12basic_stringIcNS_11char_traitsIcEENS_9allocatorIcEEEES7_EEbRKNS_16reverse_iteratorIT_EERKNS8_IT0_EE, symObjAddr: 0x86E8, symBinAddr: 0x10002E608, symSize: 0x48 }
  - { offsetInCU: 0xF33B, offset: 0x6A0E7, size: 0x8, addend: 0x0, symName: __ZNSt3__112__to_addressB7v160006INS_16reverse_iteratorIPNS_12basic_stringIcNS_11char_traitsIcEENS_9allocatorIcEEEEEEvEENS_5decayIDTclsr19__to_address_helperIT_EE6__callclsr3stdE7declvalIRKSB_EEEEE4typeESD_, symObjAddr: 0x8758, symBinAddr: 0x10002E678, symSize: 0x24 }
  - { offsetInCU: 0xF371, offset: 0x6A11D, size: 0x8, addend: 0x0, symName: __ZNSt3__110destroy_atB7v160006INS_12basic_stringIcNS_11char_traitsIcEENS_9allocatorIcEEEELi0EEEvPT_, symObjAddr: 0x87B4, symBinAddr: 0x10002E6D4, symSize: 0x24 }
  - { offsetInCU: 0xF3A8, offset: 0x6A154, size: 0x8, addend: 0x0, symName: __ZNSt3__112__destroy_atB7v160006INS_12basic_stringIcNS_11char_traitsIcEENS_9allocatorIcEEEELi0EEEvPT_, symObjAddr: 0x87D8, symBinAddr: 0x10002E6F8, symSize: 0x24 }
  - { offsetInCU: 0xF408, offset: 0x6A1B4, size: 0x8, addend: 0x0, symName: __ZNSt3__14prevB7v160006IPNS_12basic_stringIcNS_11char_traitsIcEENS_9allocatorIcEEEEEENS_9enable_ifIXsr25__is_cpp17_input_iteratorIT_EE5valueES9_E4typeES9_NS_15iterator_traitsIS9_E15difference_typeE, symObjAddr: 0x8860, symBinAddr: 0x10002E780, symSize: 0x50 }
  - { offsetInCU: 0xF44B, offset: 0x6A1F7, size: 0x8, addend: 0x0, symName: __ZNSt3__19__advanceB7v160006IPNS_12basic_stringIcNS_11char_traitsIcEENS_9allocatorIcEEEEEEvRT_NS_15iterator_traitsIS8_E15difference_typeENS_26random_access_iterator_tagE, symObjAddr: 0x8900, symBinAddr: 0x10002E820, symSize: 0x30 }
  - { offsetInCU: 0xF495, offset: 0x6A241, size: 0x8, addend: 0x0, symName: __ZNSt3__118__debug_db_erase_cB7v160006INS_6vectorINS_12basic_stringIcNS_11char_traitsIcEENS_9allocatorIcEEEENS5_IS7_EEEEEEvPT_, symObjAddr: 0x8B38, symBinAddr: 0x10002EA58, symSize: 0x10 }
  - { offsetInCU: 0xF4C6, offset: 0x6A272, size: 0x8, addend: 0x0, symName: __ZNSt3__1eqB7v160006IPNS_12basic_stringIcNS_11char_traitsIcEENS_9allocatorIcEEEEEEbRKNS_11__wrap_iterIT_EESC_, symObjAddr: 0x8D30, symBinAddr: 0x10002EC50, symSize: 0x48 }
  - { offsetInCU: 0xF509, offset: 0x6A2B5, size: 0x8, addend: 0x0, symName: __ZNSt3__1eqB7v160006IcNS_11char_traitsIcEEEEbNS_17basic_string_viewIT_T0_EES6_, symObjAddr: 0x8D90, symBinAddr: 0x10002ECB0, symSize: 0xB0 }
  - { offsetInCU: 0xF57F, offset: 0x6A32B, size: 0x8, addend: 0x0, symName: __ZNSt3__112construct_atB7v160006I6ModuleJS1_EPS1_EEPT_S4_DpOT0_, symObjAddr: 0xB010, symBinAddr: 0x10002F1B8, symSize: 0x3C }
  - { offsetInCU: 0xF5F1, offset: 0x6A39D, size: 0x8, addend: 0x0, symName: __ZNSt3__119__allocate_at_leastB7v160006INS_9allocatorI6ModuleEEEENS_19__allocation_resultINS_16allocator_traitsIT_E7pointerEEERS6_m, symObjAddr: 0xB664, symBinAddr: 0x10002F670, symSize: 0x40 }
  - { offsetInCU: 0xF634, offset: 0x6A3E0, size: 0x8, addend: 0x0, symName: __ZNSt3__142__uninitialized_allocator_move_if_noexceptB7v160006INS_9allocatorI6ModuleEENS_16reverse_iteratorIPS2_EES6_S6_EET2_RT_T0_T1_S7_, symObjAddr: 0xB90C, symBinAddr: 0x10002F844, symSize: 0x12C }
  - { offsetInCU: 0xF6D4, offset: 0x6A480, size: 0x8, addend: 0x0, symName: __ZNSt3__14swapB7v160006IP6ModuleEENS_9enable_ifIXaasr21is_move_constructibleIT_EE5valuesr18is_move_assignableIS4_EE5valueEvE4typeERS4_S7_, symObjAddr: 0xBA84, symBinAddr: 0x10002F9BC, symSize: 0x3C }
  - { offsetInCU: 0xF726, offset: 0x6A4D2, size: 0x8, addend: 0x0, symName: __ZNSt3__125__debug_db_invalidate_allB7v160006INS_6vectorI6ModuleNS_9allocatorIS2_EEEEEEvPT_, symObjAddr: 0xBB88, symBinAddr: 0x10002FAC0, symSize: 0x10 }
  - { offsetInCU: 0xF757, offset: 0x6A503, size: 0x8, addend: 0x0, symName: __ZNSt3__122__make_exception_guardB7v160006INS_29_AllocatorDestroyRangeReverseINS_9allocatorI6ModuleEENS_16reverse_iteratorIPS3_EEEEEENS_28__exception_guard_exceptionsIT_EESA_, symObjAddr: 0xBBE0, symBinAddr: 0x10002FAD0, symSize: 0x4C }
  - { offsetInCU: 0xF78D, offset: 0x6A539, size: 0x8, addend: 0x0, symName: __ZNSt3__1neB7v160006IP6ModuleS2_EEbRKNS_16reverse_iteratorIT_EERKNS3_IT0_EE, symObjAddr: 0xBC70, symBinAddr: 0x10002FB60, symSize: 0x48 }
  - { offsetInCU: 0xF7D9, offset: 0x6A585, size: 0x8, addend: 0x0, symName: __ZNSt3__112__to_addressB7v160006INS_16reverse_iteratorIP6ModuleEEvEENS_5decayIDTclsr19__to_address_helperIT_EE6__callclsr3stdE7declvalIRKS6_EEEEE4typeES8_, symObjAddr: 0xBCB8, symBinAddr: 0x10002FBA8, symSize: 0x24 }
  - { offsetInCU: 0xF838, offset: 0x6A5E4, size: 0x8, addend: 0x0, symName: __ZNSt3__14prevB7v160006IP6ModuleEENS_9enable_ifIXsr25__is_cpp17_input_iteratorIT_EE5valueES4_E4typeES4_NS_15iterator_traitsIS4_E15difference_typeE, symObjAddr: 0xBE6C, symBinAddr: 0x10002FD5C, symSize: 0x50 }
  - { offsetInCU: 0xF87B, offset: 0x6A627, size: 0x8, addend: 0x0, symName: __ZNSt3__19__advanceB7v160006IP6ModuleEEvRT_NS_15iterator_traitsIS3_E15difference_typeENS_26random_access_iterator_tagE, symObjAddr: 0xBF0C, symBinAddr: 0x10002FDFC, symSize: 0x30 }
  - { offsetInCU: 0xF8C5, offset: 0x6A671, size: 0x8, addend: 0x0, symName: __ZNSt3__119__allocator_destroyB7v160006INS_9allocatorI6ModuleEENS_16reverse_iteratorINS4_IPS2_EEEES7_EEvRT_T0_T1_, symObjAddr: 0xC040, symBinAddr: 0x10002FF30, symSize: 0x70 }
  - { offsetInCU: 0xF92A, offset: 0x6A6D6, size: 0x8, addend: 0x0, symName: __ZNSt3__1neB7v160006INS_16reverse_iteratorIP6ModuleEES4_EEbRKNS1_IT_EERKNS1_IT0_EE, symObjAddr: 0xC0EC, symBinAddr: 0x10002FFDC, symSize: 0x60 }
  - { offsetInCU: 0xF976, offset: 0x6A722, size: 0x8, addend: 0x0, symName: __ZNSt3__112__to_addressB7v160006INS_16reverse_iteratorINS1_IP6ModuleEEEEvEENS_5decayIDTclsr19__to_address_helperIT_EE6__callclsr3stdE7declvalIRKS7_EEEEE4typeES9_, symObjAddr: 0xC174, symBinAddr: 0x10003003C, symSize: 0x24 }
  - { offsetInCU: 0xF9D5, offset: 0x6A781, size: 0x8, addend: 0x0, symName: __ZNSt3__14prevB7v160006INS_16reverse_iteratorIP6ModuleEEEENS_9enable_ifIXsr25__is_cpp17_input_iteratorIT_EE5valueES6_E4typeES6_NS_15iterator_traitsIS6_E15difference_typeE, symObjAddr: 0xC2B8, symBinAddr: 0x100030138, symSize: 0x60 }
  - { offsetInCU: 0xFA18, offset: 0x6A7C4, size: 0x8, addend: 0x0, symName: __ZNSt3__19__advanceB7v160006INS_16reverse_iteratorIP6ModuleEEEEvRT_NS_15iterator_traitsIS5_E15difference_typeENS_26random_access_iterator_tagE, symObjAddr: 0xC368, symBinAddr: 0x1000301E8, symSize: 0x2C }
  - { offsetInCU: 0xFA89, offset: 0x6A835, size: 0x8, addend: 0x0, symName: __ZNSt3__112construct_atB7v160006I5VenueJS1_EPS1_EEPT_S4_DpOT0_, symObjAddr: 0xC9C0, symBinAddr: 0x100030750, symSize: 0x3C }
  - { offsetInCU: 0xFAFB, offset: 0x6A8A7, size: 0x8, addend: 0x0, symName: __ZNSt3__119__allocate_at_leastB7v160006INS_9allocatorI5VenueEEEENS_19__allocation_resultINS_16allocator_traitsIT_E7pointerEEERS6_m, symObjAddr: 0xD008, symBinAddr: 0x100030C08, symSize: 0x40 }
  - { offsetInCU: 0xFB3E, offset: 0x6A8EA, size: 0x8, addend: 0x0, symName: __ZNSt3__142__uninitialized_allocator_move_if_noexceptB7v160006INS_9allocatorI5VenueEENS_16reverse_iteratorIPS2_EES6_S6_EET2_RT_T0_T1_S7_, symObjAddr: 0xD2B0, symBinAddr: 0x100030DDC, symSize: 0x12C }
  - { offsetInCU: 0xFBDE, offset: 0x6A98A, size: 0x8, addend: 0x0, symName: __ZNSt3__14swapB7v160006IP5VenueEENS_9enable_ifIXaasr21is_move_constructibleIT_EE5valuesr18is_move_assignableIS4_EE5valueEvE4typeERS4_S7_, symObjAddr: 0xD428, symBinAddr: 0x100030F54, symSize: 0x3C }
  - { offsetInCU: 0xFC30, offset: 0x6A9DC, size: 0x8, addend: 0x0, symName: __ZNSt3__125__debug_db_invalidate_allB7v160006INS_6vectorI5VenueNS_9allocatorIS2_EEEEEEvPT_, symObjAddr: 0xD52C, symBinAddr: 0x100031058, symSize: 0x10 }
  - { offsetInCU: 0xFC61, offset: 0x6AA0D, size: 0x8, addend: 0x0, symName: __ZNSt3__122__make_exception_guardB7v160006INS_29_AllocatorDestroyRangeReverseINS_9allocatorI5VenueEENS_16reverse_iteratorIPS3_EEEEEENS_28__exception_guard_exceptionsIT_EESA_, symObjAddr: 0xD584, symBinAddr: 0x100031068, symSize: 0x4C }
  - { offsetInCU: 0xFC97, offset: 0x6AA43, size: 0x8, addend: 0x0, symName: __ZNSt3__1neB7v160006IP5VenueS2_EEbRKNS_16reverse_iteratorIT_EERKNS3_IT0_EE, symObjAddr: 0xD614, symBinAddr: 0x1000310F8, symSize: 0x48 }
  - { offsetInCU: 0xFCE3, offset: 0x6AA8F, size: 0x8, addend: 0x0, symName: __ZNSt3__112__to_addressB7v160006INS_16reverse_iteratorIP5VenueEEvEENS_5decayIDTclsr19__to_address_helperIT_EE6__callclsr3stdE7declvalIRKS6_EEEEE4typeES8_, symObjAddr: 0xD65C, symBinAddr: 0x100031140, symSize: 0x24 }
  - { offsetInCU: 0xFD42, offset: 0x6AAEE, size: 0x8, addend: 0x0, symName: __ZNSt3__14prevB7v160006IP5VenueEENS_9enable_ifIXsr25__is_cpp17_input_iteratorIT_EE5valueES4_E4typeES4_NS_15iterator_traitsIS4_E15difference_typeE, symObjAddr: 0xD810, symBinAddr: 0x1000312F4, symSize: 0x50 }
  - { offsetInCU: 0xFD85, offset: 0x6AB31, size: 0x8, addend: 0x0, symName: __ZNSt3__19__advanceB7v160006IP5VenueEEvRT_NS_15iterator_traitsIS3_E15difference_typeENS_26random_access_iterator_tagE, symObjAddr: 0xD8B0, symBinAddr: 0x100031394, symSize: 0x30 }
  - { offsetInCU: 0xFDCF, offset: 0x6AB7B, size: 0x8, addend: 0x0, symName: __ZNSt3__119__allocator_destroyB7v160006INS_9allocatorI5VenueEENS_16reverse_iteratorINS4_IPS2_EEEES7_EEvRT_T0_T1_, symObjAddr: 0xD9E4, symBinAddr: 0x1000314C8, symSize: 0x70 }
  - { offsetInCU: 0xFE34, offset: 0x6ABE0, size: 0x8, addend: 0x0, symName: __ZNSt3__1neB7v160006INS_16reverse_iteratorIP5VenueEES4_EEbRKNS1_IT_EERKNS1_IT0_EE, symObjAddr: 0xDA90, symBinAddr: 0x100031574, symSize: 0x60 }
  - { offsetInCU: 0xFE80, offset: 0x6AC2C, size: 0x8, addend: 0x0, symName: __ZNSt3__112__to_addressB7v160006INS_16reverse_iteratorINS1_IP5VenueEEEEvEENS_5decayIDTclsr19__to_address_helperIT_EE6__callclsr3stdE7declvalIRKS7_EEEEE4typeES9_, symObjAddr: 0xDB18, symBinAddr: 0x1000315D4, symSize: 0x24 }
  - { offsetInCU: 0xFEDF, offset: 0x6AC8B, size: 0x8, addend: 0x0, symName: __ZNSt3__14prevB7v160006INS_16reverse_iteratorIP5VenueEEEENS_9enable_ifIXsr25__is_cpp17_input_iteratorIT_EE5valueES6_E4typeES6_NS_15iterator_traitsIS6_E15difference_typeE, symObjAddr: 0xDC5C, symBinAddr: 0x1000316D0, symSize: 0x60 }
  - { offsetInCU: 0xFF22, offset: 0x6ACCE, size: 0x8, addend: 0x0, symName: __ZNSt3__19__advanceB7v160006INS_16reverse_iteratorIP5VenueEEEEvRT_NS_15iterator_traitsIS5_E15difference_typeENS_26random_access_iterator_tagE, symObjAddr: 0xDD0C, symBinAddr: 0x100031780, symSize: 0x2C }
  - { offsetInCU: 0xFF6C, offset: 0x6AD18, size: 0x8, addend: 0x0, symName: __ZNSt3__1eqB7v160006IP6ModuleEEbRKNS_11__wrap_iterIT_EES7_, symObjAddr: 0xF9E8, symBinAddr: 0x100031AD0, symSize: 0x48 }
  - { offsetInCU: 0xFFAF, offset: 0x6AD5B, size: 0x8, addend: 0x0, symName: __ZNSt3__123__str_find_first_not_ofB7v160006IcmNS_11char_traitsIcEELm18446744073709551615EEET0_PKT_S3_S6_S3_S3_, symObjAddr: 0xFC0C, symBinAddr: 0x100031B30, symSize: 0xDC }
  - { offsetInCU: 0x10081, offset: 0x6AE2D, size: 0x8, addend: 0x0, symName: __ZNSt3__123__constexpr_char_memchrB7v160006EPKcim, symObjAddr: 0xFD58, symBinAddr: 0x100031C7C, symSize: 0x34 }
  - { offsetInCU: 0x100C9, offset: 0x6AE75, size: 0x8, addend: 0x0, symName: __ZNSt3__122__str_find_last_not_ofB7v160006IcmNS_11char_traitsIcEELm18446744073709551615EEET0_PKT_S3_S6_S3_S3_, symObjAddr: 0xFD8C, symBinAddr: 0x100031CB0, symSize: 0xDC }
  - { offsetInCU: 0x1017E, offset: 0x6AF2A, size: 0x8, addend: 0x0, symName: __ZNSt3__1eqB7v160006IP8LecturerEEbRKNS_11__wrap_iterIT_EES7_, symObjAddr: 0x1059C, symBinAddr: 0x100031FCC, symSize: 0x48 }
  - { offsetInCU: 0x101E8, offset: 0x6AF94, size: 0x8, addend: 0x0, symName: __ZNSt3__112construct_atB7v160006I26LecturerTimeSlotPreferenceJS1_EPS1_EEPT_S4_DpOT0_, symObjAddr: 0x10C10, symBinAddr: 0x1000322D0, symSize: 0x3C }
  - { offsetInCU: 0x1025A, offset: 0x6B006, size: 0x8, addend: 0x0, symName: __ZNSt3__115__debug_db_swapB7v160006INS_6vectorI8TimeSlotNS_9allocatorIS2_EEEEEEvPT_S7_, symObjAddr: 0x10E34, symBinAddr: 0x1000324E4, symSize: 0x14 }
  - { offsetInCU: 0x10299, offset: 0x6B045, size: 0x8, addend: 0x0, symName: __ZNSt3__119__allocate_at_leastB7v160006INS_9allocatorI26LecturerTimeSlotPreferenceEEEENS_19__allocation_resultINS_16allocator_traitsIT_E7pointerEEERS6_m, symObjAddr: 0x11414, symBinAddr: 0x1000329C4, symSize: 0x40 }
  - { offsetInCU: 0x102DC, offset: 0x6B088, size: 0x8, addend: 0x0, symName: __ZNSt3__142__uninitialized_allocator_move_if_noexceptB7v160006INS_9allocatorI26LecturerTimeSlotPreferenceEENS_16reverse_iteratorIPS2_EES6_S6_EET2_RT_T0_T1_S7_, symObjAddr: 0x1169C, symBinAddr: 0x100032B94, symSize: 0x12C }
  - { offsetInCU: 0x1037C, offset: 0x6B128, size: 0x8, addend: 0x0, symName: __ZNSt3__14swapB7v160006IP26LecturerTimeSlotPreferenceEENS_9enable_ifIXaasr21is_move_constructibleIT_EE5valuesr18is_move_assignableIS4_EE5valueEvE4typeERS4_S7_, symObjAddr: 0x11814, symBinAddr: 0x100032D0C, symSize: 0x3C }
  - { offsetInCU: 0x103CE, offset: 0x6B17A, size: 0x8, addend: 0x0, symName: __ZNSt3__125__debug_db_invalidate_allB7v160006INS_6vectorI26LecturerTimeSlotPreferenceNS_9allocatorIS2_EEEEEEvPT_, symObjAddr: 0x118FC, symBinAddr: 0x100032DF4, symSize: 0x10 }
  - { offsetInCU: 0x103FF, offset: 0x6B1AB, size: 0x8, addend: 0x0, symName: __ZNSt3__122__make_exception_guardB7v160006INS_29_AllocatorDestroyRangeReverseINS_9allocatorI26LecturerTimeSlotPreferenceEENS_16reverse_iteratorIPS3_EEEEEENS_28__exception_guard_exceptionsIT_EESA_, symObjAddr: 0x11954, symBinAddr: 0x100032E04, symSize: 0x4C }
  - { offsetInCU: 0x10435, offset: 0x6B1E1, size: 0x8, addend: 0x0, symName: __ZNSt3__1neB7v160006IP26LecturerTimeSlotPreferenceS2_EEbRKNS_16reverse_iteratorIT_EERKNS3_IT0_EE, symObjAddr: 0x119E4, symBinAddr: 0x100032E94, symSize: 0x48 }
  - { offsetInCU: 0x10481, offset: 0x6B22D, size: 0x8, addend: 0x0, symName: __ZNSt3__112__to_addressB7v160006INS_16reverse_iteratorIP26LecturerTimeSlotPreferenceEEvEENS_5decayIDTclsr19__to_address_helperIT_EE6__callclsr3stdE7declvalIRKS6_EEEEE4typeES8_, symObjAddr: 0x11A2C, symBinAddr: 0x100032EDC, symSize: 0x24 }
  - { offsetInCU: 0x104E0, offset: 0x6B28C, size: 0x8, addend: 0x0, symName: __ZNSt3__14prevB7v160006IP26LecturerTimeSlotPreferenceEENS_9enable_ifIXsr25__is_cpp17_input_iteratorIT_EE5valueES4_E4typeES4_NS_15iterator_traitsIS4_E15difference_typeE, symObjAddr: 0x11BE0, symBinAddr: 0x100033090, symSize: 0x50 }
  - { offsetInCU: 0x10523, offset: 0x6B2CF, size: 0x8, addend: 0x0, symName: __ZNSt3__19__advanceB7v160006IP26LecturerTimeSlotPreferenceEEvRT_NS_15iterator_traitsIS3_E15difference_typeENS_26random_access_iterator_tagE, symObjAddr: 0x11C80, symBinAddr: 0x100033130, symSize: 0x28 }
  - { offsetInCU: 0x1056D, offset: 0x6B319, size: 0x8, addend: 0x0, symName: __ZNSt3__119__allocator_destroyB7v160006INS_9allocatorI26LecturerTimeSlotPreferenceEENS_16reverse_iteratorINS4_IPS2_EEEES7_EEvRT_T0_T1_, symObjAddr: 0x11DAC, symBinAddr: 0x10003325C, symSize: 0x70 }
  - { offsetInCU: 0x105D2, offset: 0x6B37E, size: 0x8, addend: 0x0, symName: __ZNSt3__1neB7v160006INS_16reverse_iteratorIP26LecturerTimeSlotPreferenceEES4_EEbRKNS1_IT_EERKNS1_IT0_EE, symObjAddr: 0x11E58, symBinAddr: 0x100033308, symSize: 0x60 }
  - { offsetInCU: 0x1061E, offset: 0x6B3CA, size: 0x8, addend: 0x0, symName: __ZNSt3__112__to_addressB7v160006INS_16reverse_iteratorINS1_IP26LecturerTimeSlotPreferenceEEEEvEENS_5decayIDTclsr19__to_address_helperIT_EE6__callclsr3stdE7declvalIRKS7_EEEEE4typeES9_, symObjAddr: 0x11EE0, symBinAddr: 0x100033368, symSize: 0x24 }
  - { offsetInCU: 0x1067D, offset: 0x6B429, size: 0x8, addend: 0x0, symName: __ZNSt3__14prevB7v160006INS_16reverse_iteratorIP26LecturerTimeSlotPreferenceEEEENS_9enable_ifIXsr25__is_cpp17_input_iteratorIT_EE5valueES6_E4typeES6_NS_15iterator_traitsIS6_E15difference_typeE, symObjAddr: 0x12024, symBinAddr: 0x100033464, symSize: 0x60 }
  - { offsetInCU: 0x106C0, offset: 0x6B46C, size: 0x8, addend: 0x0, symName: __ZNSt3__19__advanceB7v160006INS_16reverse_iteratorIP26LecturerTimeSlotPreferenceEEEEvRT_NS_15iterator_traitsIS5_E15difference_typeENS_26random_access_iterator_tagE, symObjAddr: 0x120D4, symBinAddr: 0x100033514, symSize: 0x2C }
  - { offsetInCU: 0x1070A, offset: 0x6B4B6, size: 0x8, addend: 0x0, symName: __ZNSt3__122__make_exception_guardB7v160006INS_6vectorI8TimeSlotNS_9allocatorIS2_EEE16__destroy_vectorEEENS_28__exception_guard_exceptionsIT_EES8_, symObjAddr: 0x12568, symBinAddr: 0x1000338F8, symSize: 0x40 }
  - { offsetInCU: 0x1073F, offset: 0x6B4EB, size: 0x8, addend: 0x0, symName: __ZNSt3__130__uninitialized_allocator_copyB7v160006INS_9allocatorI8TimeSlotEEPKS2_S5_PS2_EET2_RT_T0_T1_S7_, symObjAddr: 0x1288C, symBinAddr: 0x100033B70, symSize: 0xF4 }
  - { offsetInCU: 0x107DD, offset: 0x6B589, size: 0x8, addend: 0x0, symName: __ZNSt3__122__make_exception_guardB7v160006INS_29_AllocatorDestroyRangeReverseINS_9allocatorI8TimeSlotEEPS3_EEEENS_28__exception_guard_exceptionsIT_EES8_, symObjAddr: 0x12980, symBinAddr: 0x100033C64, symSize: 0x4C }
  - { offsetInCU: 0x10813, offset: 0x6B5BF, size: 0x8, addend: 0x0, symName: __ZNSt3__119__allocator_destroyB7v160006INS_9allocatorI8TimeSlotEENS_16reverse_iteratorIPS2_EES6_EEvRT_T0_T1_, symObjAddr: 0x12C18, symBinAddr: 0x100033E90, symSize: 0x70 }
  - { offsetInCU: 0x10876, offset: 0x6B622, size: 0x8, addend: 0x0, symName: __ZNSt3__110__str_findB7v160006IcmNS_11char_traitsIcEELm18446744073709551615EEET0_PKT_S3_S6_S3_S3_, symObjAddr: 0x12D10, symBinAddr: 0x100033F50, symSize: 0xE4 }
  - { offsetInCU: 0x1091D, offset: 0x6B6C9, size: 0x8, addend: 0x0, symName: __ZNSt3__118__search_substringB7v160006IcNS_11char_traitsIcEEEEPKT_S5_S5_S5_S5_, symObjAddr: 0x12DF4, symBinAddr: 0x100034034, symSize: 0x154 }
  - { offsetInCU: 0x1125C, offset: 0x6C008, size: 0x8, addend: 0x0, symName: __ZNSt3__16vectorI8LecturerNS_9allocatorIS1_EEE26__swap_out_circular_bufferERNS_14__split_bufferIS1_RS3_EE, symObjAddr: 0x5EA4, symBinAddr: 0x10002C698, symSize: 0x118 }
  - { offsetInCU: 0x11B05, offset: 0x6C8B1, size: 0x8, addend: 0x0, symName: __ZNSt3__16vectorI6ModuleNS_9allocatorIS1_EEE26__swap_out_circular_bufferERNS_14__split_bufferIS1_RS3_EE, symObjAddr: 0xB260, symBinAddr: 0x10002F30C, symSize: 0x118 }
  - { offsetInCU: 0x11E6A, offset: 0x6CC16, size: 0x8, addend: 0x0, symName: __ZNSt3__16vectorI5VenueNS_9allocatorIS1_EEE26__swap_out_circular_bufferERNS_14__split_bufferIS1_RS3_EE, symObjAddr: 0xCC04, symBinAddr: 0x1000308A4, symSize: 0x118 }
  - { offsetInCU: 0x12150, offset: 0x6CEFC, size: 0x8, addend: 0x0, symName: __ZNSt3__16vectorI26LecturerTimeSlotPreferenceNS_9allocatorIS1_EEE26__swap_out_circular_bufferERNS_14__split_bufferIS1_RS3_EE, symObjAddr: 0x1101C, symBinAddr: 0x10003266C, symSize: 0x118 }
  - { offsetInCU: 0x14122, offset: 0x6EECE, size: 0x8, addend: 0x0, symName: __Z19initializeLecturersv, symObjAddr: 0x0, symBinAddr: 0x1000272B8, symSize: 0xEBC }
  - { offsetInCU: 0x1413C, offset: 0x6EEE8, size: 0x8, addend: 0x0, symName: __ZNSt3__16vectorI8LecturerNS_9allocatorIS1_EEE9push_backB7v160006EOS1_, symObjAddr: 0xEBC, symBinAddr: 0x100028174, symSize: 0x6C }
  - { offsetInCU: 0x14177, offset: 0x6EF23, size: 0x8, addend: 0x0, symName: __Z19initializeTimeSlotsv, symObjAddr: 0xF88, symBinAddr: 0x1000281E0, symSize: 0x66C }
  - { offsetInCU: 0x1426C, offset: 0x6F018, size: 0x8, addend: 0x0, symName: __ZNSt3__16vectorINS_12basic_stringIcNS_11char_traitsIcEENS_9allocatorIcEEEENS4_IS6_EEEC1B7v160006ESt16initializer_listIS6_E, symObjAddr: 0x15F4, symBinAddr: 0x10002884C, symSize: 0x3C }
  - { offsetInCU: 0x142A7, offset: 0x6F053, size: 0x8, addend: 0x0, symName: __ZNSt3__16vectorINS_12basic_stringIcNS_11char_traitsIcEENS_9allocatorIcEEEENS4_IS6_EEE5beginB7v160006Ev, symObjAddr: 0x1630, symBinAddr: 0x100028888, symSize: 0x30 }
  - { offsetInCU: 0x142CF, offset: 0x6F07B, size: 0x8, addend: 0x0, symName: __ZNSt3__16vectorINS_12basic_stringIcNS_11char_traitsIcEENS_9allocatorIcEEEENS4_IS6_EEE3endB7v160006Ev, symObjAddr: 0x1660, symBinAddr: 0x1000288B8, symSize: 0x30 }
  - { offsetInCU: 0x142F7, offset: 0x6F0A3, size: 0x8, addend: 0x0, symName: __ZNKSt3__111__wrap_iterIPNS_12basic_stringIcNS_11char_traitsIcEENS_9allocatorIcEEEEEdeB7v160006Ev, symObjAddr: 0x16C4, symBinAddr: 0x10002891C, symSize: 0x18 }
  - { offsetInCU: 0x1431D, offset: 0x6F0C9, size: 0x8, addend: 0x0, symName: __ZNSt3__16vectorI8TimeSlotNS_9allocatorIS1_EEE9push_backB7v160006EOS1_, symObjAddr: 0x1738, symBinAddr: 0x100028990, symSize: 0x6C }
  - { offsetInCU: 0x14354, offset: 0x6F100, size: 0x8, addend: 0x0, symName: __ZNSt3__111__wrap_iterIPNS_12basic_stringIcNS_11char_traitsIcEENS_9allocatorIcEEEEEppB7v160006Ev, symObjAddr: 0x17D0, symBinAddr: 0x1000289FC, symSize: 0x20 }
  - { offsetInCU: 0x1437A, offset: 0x6F126, size: 0x8, addend: 0x0, symName: __ZNSt3__16vectorINS_12basic_stringIcNS_11char_traitsIcEENS_9allocatorIcEEEENS4_IS6_EEED1B7v160006Ev, symObjAddr: 0x1844, symBinAddr: 0x100028A1C, symSize: 0x2C }
  - { offsetInCU: 0x143A4, offset: 0x6F150, size: 0x8, addend: 0x0, symName: __Z17initializeModulesv, symObjAddr: 0x1870, symBinAddr: 0x100028A48, symSize: 0x19B4 }
  - { offsetInCU: 0x143BE, offset: 0x6F16A, size: 0x8, addend: 0x0, symName: __ZNSt3__16vectorI6ModuleNS_9allocatorIS1_EEE9push_backB7v160006EOS1_, symObjAddr: 0x3224, symBinAddr: 0x10002A3FC, symSize: 0x6C }
  - { offsetInCU: 0x143F5, offset: 0x6F1A1, size: 0x8, addend: 0x0, symName: __ZNSt3__16vectorI8LecturerNS_9allocatorIS1_EEEixB7v160006Em, symObjAddr: 0x3290, symBinAddr: 0x10002A468, symSize: 0x24 }
  - { offsetInCU: 0x1442C, offset: 0x6F1D8, size: 0x8, addend: 0x0, symName: __Z16initializeVenuesv, symObjAddr: 0x32E0, symBinAddr: 0x10002A48C, symSize: 0x584 }
  - { offsetInCU: 0x14446, offset: 0x6F1F2, size: 0x8, addend: 0x0, symName: __ZNSt3__16vectorI5VenueNS_9allocatorIS1_EEE9push_backB7v160006EOS1_, symObjAddr: 0x3864, symBinAddr: 0x10002AA10, symSize: 0x6C }
  - { offsetInCU: 0x1447C, offset: 0x6F228, size: 0x8, addend: 0x0, symName: __Z25initializeCrossoverPointsv, symObjAddr: 0x3928, symBinAddr: 0x10002AA7C, symSize: 0x1A8 }
  - { offsetInCU: 0x1454F, offset: 0x6F2FB, size: 0x8, addend: 0x0, symName: __ZNSt3__16vectorI6ModuleNS_9allocatorIS1_EEE5beginB7v160006Ev, symObjAddr: 0x3B3C, symBinAddr: 0x10002AC24, symSize: 0x30 }
  - { offsetInCU: 0x14577, offset: 0x6F323, size: 0x8, addend: 0x0, symName: __ZNSt3__16vectorI6ModuleNS_9allocatorIS1_EEE3endB7v160006Ev, symObjAddr: 0x3B6C, symBinAddr: 0x10002AC54, symSize: 0x30 }
  - { offsetInCU: 0x1459F, offset: 0x6F34B, size: 0x8, addend: 0x0, symName: __ZNKSt3__111__wrap_iterIP6ModuleEdeB7v160006Ev, symObjAddr: 0x3BD0, symBinAddr: 0x10002ACB8, symSize: 0x18 }
  - { offsetInCU: 0x145C5, offset: 0x6F371, size: 0x8, addend: 0x0, symName: __ZNSt3__111__wrap_iterIP6ModuleEppB7v160006Ev, symObjAddr: 0x3C54, symBinAddr: 0x10002ACD0, symSize: 0x20 }
  - { offsetInCU: 0x145EA, offset: 0x6F396, size: 0x8, addend: 0x0, symName: __Z10trimStringRNSt3__112basic_stringIcNS_11char_traitsIcEENS_9allocatorIcEEEE, symObjAddr: 0x3C74, symBinAddr: 0x10002ACF0, symSize: 0xF8 }
  - { offsetInCU: 0x14631, offset: 0x6F3DD, size: 0x8, addend: 0x0, symName: __ZNKSt3__112basic_stringIcNS_11char_traitsIcEENS_9allocatorIcEEE17find_first_not_ofB7v160006EPKcm, symObjAddr: 0x3D6C, symBinAddr: 0x10002ADE8, symSize: 0x74 }
  - { offsetInCU: 0x14677, offset: 0x6F423, size: 0x8, addend: 0x0, symName: __ZNKSt3__112basic_stringIcNS_11char_traitsIcEENS_9allocatorIcEEE16find_last_not_ofB7v160006EPKcm, symObjAddr: 0x3DE0, symBinAddr: 0x10002AE5C, symSize: 0x74 }
  - { offsetInCU: 0x146BD, offset: 0x6F469, size: 0x8, addend: 0x0, symName: __ZNKSt3__112basic_stringIcNS_11char_traitsIcEENS_9allocatorIcEEE6substrB7v160006Emm, symObjAddr: 0x3E54, symBinAddr: 0x10002AED0, symSize: 0x68 }
  - { offsetInCU: 0x14700, offset: 0x6F4AC, size: 0x8, addend: 0x0, symName: __Z9parseBoolRKNSt3__112basic_stringIcNS_11char_traitsIcEENS_9allocatorIcEEEE, symObjAddr: 0x3EF0, symBinAddr: 0x10002AF38, symSize: 0x128 }
  - { offsetInCU: 0x14822, offset: 0x6F5CE, size: 0x8, addend: 0x0, symName: __ZNSt3__119basic_istringstreamIcNS_11char_traitsIcEENS_9allocatorIcEEEC1B7v160006ERKNS_12basic_stringIcS2_S4_EEj, symObjAddr: 0x4018, symBinAddr: 0x10002B060, symSize: 0xFC }
  - { offsetInCU: 0x1486F, offset: 0x6F61B, size: 0x8, addend: 0x0, symName: __ZNSt3__119basic_istringstreamIcNS_11char_traitsIcEENS_9allocatorIcEEED1Ev, symObjAddr: 0x445C, symBinAddr: 0x10002B478, symSize: 0x40 }
  - { offsetInCU: 0x1489B, offset: 0x6F647, size: 0x8, addend: 0x0, symName: __Z15getTimeSlotByIdi, symObjAddr: 0x449C, symBinAddr: 0x10002B4B8, symSize: 0x1D4 }
  - { offsetInCU: 0x14919, offset: 0x6F6C5, size: 0x8, addend: 0x0, symName: __Z18findLecturerByNameRKNSt3__112basic_stringIcNS_11char_traitsIcEENS_9allocatorIcEEEE, symObjAddr: 0x47F4, symBinAddr: 0x10002B68C, symSize: 0xC0 }
  - { offsetInCU: 0x14985, offset: 0x6F731, size: 0x8, addend: 0x0, symName: __ZNSt3__16vectorI8LecturerNS_9allocatorIS1_EEE5beginB7v160006Ev, symObjAddr: 0x492C, symBinAddr: 0x10002B7C4, symSize: 0x30 }
  - { offsetInCU: 0x149AD, offset: 0x6F759, size: 0x8, addend: 0x0, symName: __ZNSt3__16vectorI8LecturerNS_9allocatorIS1_EEE3endB7v160006Ev, symObjAddr: 0x495C, symBinAddr: 0x10002B7F4, symSize: 0x30 }
  - { offsetInCU: 0x149D5, offset: 0x6F781, size: 0x8, addend: 0x0, symName: __ZNKSt3__111__wrap_iterIP8LecturerEdeB7v160006Ev, symObjAddr: 0x49C0, symBinAddr: 0x10002B858, symSize: 0x18 }
  - { offsetInCU: 0x149FA, offset: 0x6F7A6, size: 0x8, addend: 0x0, symName: __Z10startsWithRKNSt3__112basic_stringIcNS_11char_traitsIcEENS_9allocatorIcEEEES7_, symObjAddr: 0x4A0C, symBinAddr: 0x10002B870, symSize: 0xB8 }
  - { offsetInCU: 0x14A38, offset: 0x6F7E4, size: 0x8, addend: 0x0, symName: __ZNKSt3__112basic_stringIcNS_11char_traitsIcEENS_9allocatorIcEEE6lengthB7v160006Ev, symObjAddr: 0x4AC4, symBinAddr: 0x10002B928, symSize: 0x24 }
  - { offsetInCU: 0x14A5D, offset: 0x6F809, size: 0x8, addend: 0x0, symName: __Z31getRandomTimeSlotFromPreferenceRK6Module, symObjAddr: 0x4C30, symBinAddr: 0x10002B94C, symSize: 0x268 }
  - { offsetInCU: 0x14B0D, offset: 0x6F8B9, size: 0x8, addend: 0x0, symName: __ZNKSt3__16vectorI8TimeSlotNS_9allocatorIS1_EEE5emptyB7v160006Ev, symObjAddr: 0x4F44, symBinAddr: 0x10002BBB4, symSize: 0x28 }
  - { offsetInCU: 0x14B33, offset: 0x6F8DF, size: 0x8, addend: 0x0, symName: __ZNKSt3__16vectorI8TimeSlotNS_9allocatorIS1_EEEixB7v160006Em, symObjAddr: 0x4FB4, symBinAddr: 0x10002BBDC, symSize: 0x2C }
  - { offsetInCU: 0x14B6A, offset: 0x6F916, size: 0x8, addend: 0x0, symName: __Z36initializeLecturerTimeSlotPreferencev, symObjAddr: 0x502C, symBinAddr: 0x10002BC08, symSize: 0x404 }
  - { offsetInCU: 0x14B85, offset: 0x6F931, size: 0x8, addend: 0x0, symName: __ZNSt3__16vectorI26LecturerTimeSlotPreferenceNS_9allocatorIS1_EEE9push_backB7v160006EOS1_, symObjAddr: 0x5430, symBinAddr: 0x10002C00C, symSize: 0x6C }
  - { offsetInCU: 0x14BBC, offset: 0x6F968, size: 0x8, addend: 0x0, symName: __ZNSt3__16vectorI8TimeSlotNS_9allocatorIS1_EEEC1B7v160006ESt16initializer_listIS1_E, symObjAddr: 0x549C, symBinAddr: 0x10002C078, symSize: 0x3C }
  - { offsetInCU: 0x14BF6, offset: 0x6F9A2, size: 0x8, addend: 0x0, symName: __Z17extractLastSlotIdRKNSt3__112basic_stringIcNS_11char_traitsIcEENS_9allocatorIcEEEE, symObjAddr: 0x5504, symBinAddr: 0x10002C0B4, symSize: 0x174 }
  - { offsetInCU: 0x14C67, offset: 0x6FA13, size: 0x8, addend: 0x0, symName: __ZNKSt3__112basic_stringIcNS_11char_traitsIcEENS_9allocatorIcEEE4findB7v160006ERKS5_m, symObjAddr: 0x5678, symBinAddr: 0x10002C228, symSize: 0x78 }
  - { offsetInCU: 0x14CAD, offset: 0x6FA59, size: 0x8, addend: 0x0, symName: __ZNSt3__16vectorI8LecturerNS_9allocatorIS1_EEE9__end_capB7v160006Ev, symObjAddr: 0x57C0, symBinAddr: 0x10002C2A0, symSize: 0x28 }
  - { offsetInCU: 0x14CD8, offset: 0x6FA84, size: 0x8, addend: 0x0, symName: __ZNSt3__16vectorI8LecturerNS_9allocatorIS1_EEE22__construct_one_at_endB7v160006IJS1_EEEvDpOT_, symObjAddr: 0x57E8, symBinAddr: 0x10002C2C8, symSize: 0x90 }
  - { offsetInCU: 0x14D27, offset: 0x6FAD3, size: 0x8, addend: 0x0, symName: __ZNSt3__16vectorI8LecturerNS_9allocatorIS1_EEE21__push_back_slow_pathIS1_EEvOT_, symObjAddr: 0x5878, symBinAddr: 0x10002C358, symSize: 0xD8 }
  - { offsetInCU: 0x14D85, offset: 0x6FB31, size: 0x8, addend: 0x0, symName: __ZNSt3__117__compressed_pairIP8LecturerNS_9allocatorIS1_EEE5firstB7v160006Ev, symObjAddr: 0x5950, symBinAddr: 0x10002C430, symSize: 0x24 }
  - { offsetInCU: 0x14DAB, offset: 0x6FB57, size: 0x8, addend: 0x0, symName: __ZNSt3__122__compressed_pair_elemIP8LecturerLi0ELb0EE5__getB7v160006Ev, symObjAddr: 0x5974, symBinAddr: 0x10002C454, symSize: 0x14 }
  - { offsetInCU: 0x14DEA, offset: 0x6FB96, size: 0x8, addend: 0x0, symName: __ZNSt3__16vectorI8LecturerNS_9allocatorIS1_EEE21_ConstructTransactionC1B7v160006ERS4_m, symObjAddr: 0x5988, symBinAddr: 0x10002C468, symSize: 0x3C }
  - { offsetInCU: 0x14E32, offset: 0x6FBDE, size: 0x8, addend: 0x0, symName: __ZNSt3__116allocator_traitsINS_9allocatorI8LecturerEEE9constructB7v160006IS2_JS2_EvvEEvRS3_PT_DpOT0_, symObjAddr: 0x59C4, symBinAddr: 0x10002C4A4, symSize: 0x30 }
  - { offsetInCU: 0x14E87, offset: 0x6FC33, size: 0x8, addend: 0x0, symName: __ZNSt3__16vectorI8LecturerNS_9allocatorIS1_EEE21_ConstructTransactionD1B7v160006Ev, symObjAddr: 0x5A30, symBinAddr: 0x10002C4D4, symSize: 0x2C }
  - { offsetInCU: 0x14EB1, offset: 0x6FC5D, size: 0x8, addend: 0x0, symName: __ZNSt3__16vectorI8LecturerNS_9allocatorIS1_EEE21_ConstructTransactionC2B7v160006ERS4_m, symObjAddr: 0x5A5C, symBinAddr: 0x10002C500, symSize: 0x44 }
  - { offsetInCU: 0x14EF9, offset: 0x6FCA5, size: 0x8, addend: 0x0, symName: __ZNSt3__16vectorI8LecturerNS_9allocatorIS1_EEE21_ConstructTransactionD2B7v160006Ev, symObjAddr: 0x5D64, symBinAddr: 0x10002C580, symSize: 0x20 }
  - { offsetInCU: 0x14F23, offset: 0x6FCCF, size: 0x8, addend: 0x0, symName: __ZNKSt3__16vectorI8LecturerNS_9allocatorIS1_EEE11__recommendB7v160006Em, symObjAddr: 0x5D84, symBinAddr: 0x10002C5A0, symSize: 0xB4 }
  - { offsetInCU: 0x14F78, offset: 0x6FD24, size: 0x8, addend: 0x0, symName: __ZNSt3__114__split_bufferI8LecturerRNS_9allocatorIS1_EEEC1EmmS4_, symObjAddr: 0x5E60, symBinAddr: 0x10002C654, symSize: 0x44 }
  - { offsetInCU: 0x14FCE, offset: 0x6FD7A, size: 0x8, addend: 0x0, symName: __ZNSt3__114__split_bufferI8LecturerRNS_9allocatorIS1_EEED1Ev, symObjAddr: 0x5FBC, symBinAddr: 0x10002C7B0, symSize: 0x2C }
  - { offsetInCU: 0x14FFA, offset: 0x6FDA6, size: 0x8, addend: 0x0, symName: __ZNKSt3__16vectorI8LecturerNS_9allocatorIS1_EEE8max_sizeEv, symObjAddr: 0x5FE8, symBinAddr: 0x10002C7DC, symSize: 0x60 }
  - { offsetInCU: 0x15022, offset: 0x6FDCE, size: 0x8, addend: 0x0, symName: __ZNKSt3__16vectorI8LecturerNS_9allocatorIS1_EEE20__throw_length_errorB7v160006Ev, symObjAddr: 0x6048, symBinAddr: 0x10002C83C, symSize: 0x1C }
  - { offsetInCU: 0x15052, offset: 0x6FDFE, size: 0x8, addend: 0x0, symName: __ZNSt3__116allocator_traitsINS_9allocatorI8LecturerEEE8max_sizeB7v160006IS3_vvEEmRKS3_, symObjAddr: 0x60FC, symBinAddr: 0x10002C858, symSize: 0x28 }
  - { offsetInCU: 0x1507E, offset: 0x6FE2A, size: 0x8, addend: 0x0, symName: __ZNKSt3__16vectorI8LecturerNS_9allocatorIS1_EEE7__allocB7v160006Ev, symObjAddr: 0x6124, symBinAddr: 0x10002C880, symSize: 0x28 }
  - { offsetInCU: 0x150A4, offset: 0x6FE50, size: 0x8, addend: 0x0, symName: __ZNKSt3__117__compressed_pairIP8LecturerNS_9allocatorIS1_EEE6secondB7v160006Ev, symObjAddr: 0x6204, symBinAddr: 0x10002C8A8, symSize: 0x24 }
  - { offsetInCU: 0x150CA, offset: 0x6FE76, size: 0x8, addend: 0x0, symName: __ZNKSt3__122__compressed_pair_elemINS_9allocatorI8LecturerEELi1ELb1EE5__getB7v160006Ev, symObjAddr: 0x6228, symBinAddr: 0x10002C8CC, symSize: 0x14 }
  - { offsetInCU: 0x150F0, offset: 0x6FE9C, size: 0x8, addend: 0x0, symName: __ZNSt3__114__split_bufferI8LecturerRNS_9allocatorIS1_EEEC2EmmS4_, symObjAddr: 0x63DC, symBinAddr: 0x10002C8E0, symSize: 0xD4 }
  - { offsetInCU: 0x15168, offset: 0x6FF14, size: 0x8, addend: 0x0, symName: __ZNSt3__117__compressed_pairIP8LecturerRNS_9allocatorIS1_EEEC1B7v160006IDnS5_EEOT_OT0_, symObjAddr: 0x64B0, symBinAddr: 0x10002C9B4, symSize: 0x3C }
  - { offsetInCU: 0x151C0, offset: 0x6FF6C, size: 0x8, addend: 0x0, symName: __ZNSt3__114__split_bufferI8LecturerRNS_9allocatorIS1_EEE7__allocB7v160006Ev, symObjAddr: 0x652C, symBinAddr: 0x10002CA30, symSize: 0x28 }
  - { offsetInCU: 0x151E6, offset: 0x6FF92, size: 0x8, addend: 0x0, symName: __ZNSt3__114__split_bufferI8LecturerRNS_9allocatorIS1_EEE9__end_capB7v160006Ev, symObjAddr: 0x6554, symBinAddr: 0x10002CA58, symSize: 0x28 }
  - { offsetInCU: 0x1520C, offset: 0x6FFB8, size: 0x8, addend: 0x0, symName: __ZNSt3__117__compressed_pairIP8LecturerRNS_9allocatorIS1_EEEC2B7v160006IDnS5_EEOT_OT0_, symObjAddr: 0x657C, symBinAddr: 0x10002CA80, symSize: 0x48 }
  - { offsetInCU: 0x15264, offset: 0x70010, size: 0x8, addend: 0x0, symName: __ZNSt3__122__compressed_pair_elemIP8LecturerLi0ELb0EEC2B7v160006IDnvEEOT_, symObjAddr: 0x65C4, symBinAddr: 0x10002CAC8, symSize: 0x1C }
  - { offsetInCU: 0x152A6, offset: 0x70052, size: 0x8, addend: 0x0, symName: __ZNSt3__122__compressed_pair_elemIRNS_9allocatorI8LecturerEELi1ELb0EEC2B7v160006IS4_vEEOT_, symObjAddr: 0x65E0, symBinAddr: 0x10002CAE4, symSize: 0x20 }
  - { offsetInCU: 0x152E8, offset: 0x70094, size: 0x8, addend: 0x0, symName: __ZNSt3__19allocatorI8LecturerE8allocateB7v160006Em, symObjAddr: 0x6600, symBinAddr: 0x10002CB04, symSize: 0x58 }
  - { offsetInCU: 0x1531C, offset: 0x700C8, size: 0x8, addend: 0x0, symName: __ZNSt3__117__compressed_pairIP8LecturerRNS_9allocatorIS1_EEE6secondB7v160006Ev, symObjAddr: 0x675C, symBinAddr: 0x10002CB5C, symSize: 0x28 }
  - { offsetInCU: 0x15342, offset: 0x700EE, size: 0x8, addend: 0x0, symName: __ZNSt3__122__compressed_pair_elemIRNS_9allocatorI8LecturerEELi1ELb0EE5__getB7v160006Ev, symObjAddr: 0x6784, symBinAddr: 0x10002CB84, symSize: 0x18 }
  - { offsetInCU: 0x15368, offset: 0x70114, size: 0x8, addend: 0x0, symName: __ZNSt3__117__compressed_pairIP8LecturerRNS_9allocatorIS1_EEE5firstB7v160006Ev, symObjAddr: 0x679C, symBinAddr: 0x10002CB9C, symSize: 0x24 }
  - { offsetInCU: 0x1538E, offset: 0x7013A, size: 0x8, addend: 0x0, symName: __ZNSt3__116reverse_iteratorIP8LecturerEC1B7v160006ES2_, symObjAddr: 0x69A4, symBinAddr: 0x10002CCEC, symSize: 0x34 }
  - { offsetInCU: 0x153C6, offset: 0x70172, size: 0x8, addend: 0x0, symName: __ZNKSt3__116reverse_iteratorIP8LecturerE4baseB7v160006Ev, symObjAddr: 0x69D8, symBinAddr: 0x10002CD20, symSize: 0x18 }
  - { offsetInCU: 0x153EC, offset: 0x70198, size: 0x8, addend: 0x0, symName: __ZNKSt3__16vectorI8LecturerNS_9allocatorIS1_EEE14__annotate_newB7v160006Em, symObjAddr: 0x6A2C, symBinAddr: 0x10002CD74, symSize: 0xAC }
  - { offsetInCU: 0x15421, offset: 0x701CD, size: 0x8, addend: 0x0, symName: __ZNSt3__129_AllocatorDestroyRangeReverseINS_9allocatorI8LecturerEENS_16reverse_iteratorIPS2_EEEC1B7v160006ERS3_RS6_S9_, symObjAddr: 0x6B7C, symBinAddr: 0x10002CE7C, symSize: 0x44 }
  - { offsetInCU: 0x15478, offset: 0x70224, size: 0x8, addend: 0x0, symName: __ZNKSt3__116reverse_iteratorIP8LecturerEdeB7v160006Ev, symObjAddr: 0x6C2C, symBinAddr: 0x10002CF2C, symSize: 0x28 }
  - { offsetInCU: 0x154AD, offset: 0x70259, size: 0x8, addend: 0x0, symName: __ZNSt3__116reverse_iteratorIP8LecturerEppB7v160006Ev, symObjAddr: 0x6C54, symBinAddr: 0x10002CF54, symSize: 0x20 }
  - { offsetInCU: 0x154D3, offset: 0x7027F, size: 0x8, addend: 0x0, symName: __ZNSt3__128__exception_guard_exceptionsINS_29_AllocatorDestroyRangeReverseINS_9allocatorI8LecturerEENS_16reverse_iteratorIPS3_EEEEE10__completeB7v160006Ev, symObjAddr: 0x6C74, symBinAddr: 0x10002CF74, symSize: 0x1C }
  - { offsetInCU: 0x154F9, offset: 0x702A5, size: 0x8, addend: 0x0, symName: __ZNSt3__128__exception_guard_exceptionsINS_29_AllocatorDestroyRangeReverseINS_9allocatorI8LecturerEENS_16reverse_iteratorIPS3_EEEEED1B7v160006Ev, symObjAddr: 0x6C90, symBinAddr: 0x10002CF90, symSize: 0x2C }
  - { offsetInCU: 0x15523, offset: 0x702CF, size: 0x8, addend: 0x0, symName: __ZNSt3__128__exception_guard_exceptionsINS_29_AllocatorDestroyRangeReverseINS_9allocatorI8LecturerEENS_16reverse_iteratorIPS3_EEEEEC1B7v160006ES8_, symObjAddr: 0x6CBC, symBinAddr: 0x10002CFBC, symSize: 0x34 }
  - { offsetInCU: 0x1555C, offset: 0x70308, size: 0x8, addend: 0x0, symName: __ZNSt3__128__exception_guard_exceptionsINS_29_AllocatorDestroyRangeReverseINS_9allocatorI8LecturerEENS_16reverse_iteratorIPS3_EEEEEC2B7v160006ES8_, symObjAddr: 0x6CF0, symBinAddr: 0x10002CFF0, symSize: 0x30 }
  - { offsetInCU: 0x15595, offset: 0x70341, size: 0x8, addend: 0x0, symName: __ZNSt3__129_AllocatorDestroyRangeReverseINS_9allocatorI8LecturerEENS_16reverse_iteratorIPS2_EEEC2B7v160006ERS3_RS6_S9_, symObjAddr: 0x6D20, symBinAddr: 0x10002D020, symSize: 0x38 }
  - { offsetInCU: 0x155F1, offset: 0x7039D, size: 0x8, addend: 0x0, symName: __ZNSt3__119__to_address_helperINS_16reverse_iteratorIP8LecturerEEvE6__callB7v160006ERKS4_, symObjAddr: 0x6D58, symBinAddr: 0x10002D058, symSize: 0x38 }
  - { offsetInCU: 0x15614, offset: 0x703C0, size: 0x8, addend: 0x0, symName: __ZNKSt3__116reverse_iteratorIP8LecturerEptB7v160006Ev, symObjAddr: 0x6D90, symBinAddr: 0x10002D090, symSize: 0x2C }
  - { offsetInCU: 0x1563A, offset: 0x703E6, size: 0x8, addend: 0x0, symName: __ZNSt3__128__exception_guard_exceptionsINS_29_AllocatorDestroyRangeReverseINS_9allocatorI8LecturerEENS_16reverse_iteratorIPS3_EEEEED2B7v160006Ev, symObjAddr: 0x6E98, symBinAddr: 0x10002D184, symSize: 0x50 }
  - { offsetInCU: 0x15664, offset: 0x70410, size: 0x8, addend: 0x0, symName: __ZNKSt3__129_AllocatorDestroyRangeReverseINS_9allocatorI8LecturerEENS_16reverse_iteratorIPS2_EEEclB7v160006Ev, symObjAddr: 0x6EE8, symBinAddr: 0x10002D1D4, symSize: 0xB4 }
  - { offsetInCU: 0x1568B, offset: 0x70437, size: 0x8, addend: 0x0, symName: __ZNSt3__116reverse_iteratorINS0_IP8LecturerEEEC1B7v160006ES3_, symObjAddr: 0x700C, symBinAddr: 0x10002D2F8, symSize: 0x3C }
  - { offsetInCU: 0x156C3, offset: 0x7046F, size: 0x8, addend: 0x0, symName: __ZNSt3__116reverse_iteratorINS0_IP8LecturerEEEppB7v160006Ev, symObjAddr: 0x70F4, symBinAddr: 0x10002D3B8, symSize: 0x30 }
  - { offsetInCU: 0x156E9, offset: 0x70495, size: 0x8, addend: 0x0, symName: __ZNKSt3__116reverse_iteratorINS0_IP8LecturerEEE4baseB7v160006Ev, symObjAddr: 0x7124, symBinAddr: 0x10002D3E8, symSize: 0x24 }
  - { offsetInCU: 0x15714, offset: 0x704C0, size: 0x8, addend: 0x0, symName: __ZNSt3__119__to_address_helperINS_16reverse_iteratorINS1_IP8LecturerEEEEvE6__callB7v160006ERKS5_, symObjAddr: 0x7190, symBinAddr: 0x10002D40C, symSize: 0x38 }
  - { offsetInCU: 0x15737, offset: 0x704E3, size: 0x8, addend: 0x0, symName: __ZNKSt3__116reverse_iteratorINS0_IP8LecturerEEEptB7v160006Ev, symObjAddr: 0x71C8, symBinAddr: 0x10002D444, symSize: 0x4C }
  - { offsetInCU: 0x1575D, offset: 0x70509, size: 0x8, addend: 0x0, symName: __ZNSt3__116reverse_iteratorIP8LecturerEpLB7v160006El, symObjAddr: 0x72F0, symBinAddr: 0x10002D56C, symSize: 0x30 }
  - { offsetInCU: 0x15791, offset: 0x7053D, size: 0x8, addend: 0x0, symName: __ZNSt3__116reverse_iteratorIP8LecturerEmmB7v160006Ev, symObjAddr: 0x7320, symBinAddr: 0x10002D59C, symSize: 0x20 }
  - { offsetInCU: 0x157B7, offset: 0x70563, size: 0x8, addend: 0x0, symName: __ZNSt3__116reverse_iteratorINS0_IP8LecturerEEEC2B7v160006ES3_, symObjAddr: 0x7340, symBinAddr: 0x10002D5BC, symSize: 0x2C }
  - { offsetInCU: 0x157EF, offset: 0x7059B, size: 0x8, addend: 0x0, symName: __ZNSt3__116reverse_iteratorIP8LecturerEC2B7v160006ES2_, symObjAddr: 0x736C, symBinAddr: 0x10002D5E8, symSize: 0x28 }
  - { offsetInCU: 0x15827, offset: 0x705D3, size: 0x8, addend: 0x0, symName: __ZNSt3__114__split_bufferI8LecturerRNS_9allocatorIS1_EEED2Ev, symObjAddr: 0x7394, symBinAddr: 0x10002D610, symSize: 0x8C }
  - { offsetInCU: 0x15853, offset: 0x705FF, size: 0x8, addend: 0x0, symName: __ZNSt3__114__split_bufferI8LecturerRNS_9allocatorIS1_EEE5clearB7v160006Ev, symObjAddr: 0x7420, symBinAddr: 0x10002D69C, symSize: 0x28 }
  - { offsetInCU: 0x15879, offset: 0x70625, size: 0x8, addend: 0x0, symName: __ZNKSt3__114__split_bufferI8LecturerRNS_9allocatorIS1_EEE8capacityB7v160006Ev, symObjAddr: 0x747C, symBinAddr: 0x10002D6C4, symSize: 0x40 }
  - { offsetInCU: 0x1589F, offset: 0x7064B, size: 0x8, addend: 0x0, symName: __ZNSt3__114__split_bufferI8LecturerRNS_9allocatorIS1_EEE17__destruct_at_endB7v160006EPS1_, symObjAddr: 0x74BC, symBinAddr: 0x10002D704, symSize: 0x2C }
  - { offsetInCU: 0x158D3, offset: 0x7067F, size: 0x8, addend: 0x0, symName: __ZNSt3__114__split_bufferI8LecturerRNS_9allocatorIS1_EEE17__destruct_at_endB7v160006EPS1_NS_17integral_constantIbLb0EEE, symObjAddr: 0x74E8, symBinAddr: 0x10002D730, symSize: 0x80 }
  - { offsetInCU: 0x15914, offset: 0x706C0, size: 0x8, addend: 0x0, symName: __ZNKSt3__114__split_bufferI8LecturerRNS_9allocatorIS1_EEE9__end_capB7v160006Ev, symObjAddr: 0x76B0, symBinAddr: 0x10002D7B0, symSize: 0x28 }
  - { offsetInCU: 0x1593A, offset: 0x706E6, size: 0x8, addend: 0x0, symName: __ZNKSt3__117__compressed_pairIP8LecturerRNS_9allocatorIS1_EEE5firstB7v160006Ev, symObjAddr: 0x76D8, symBinAddr: 0x10002D7D8, symSize: 0x24 }
  - { offsetInCU: 0x15965, offset: 0x70711, size: 0x8, addend: 0x0, symName: __ZNSt3__16vectorINS_12basic_stringIcNS_11char_traitsIcEENS_9allocatorIcEEEENS4_IS6_EEEC2B7v160006ESt16initializer_listIS6_E, symObjAddr: 0x78DC, symBinAddr: 0x10002D7FC, symSize: 0x124 }
  - { offsetInCU: 0x159B6, offset: 0x70762, size: 0x8, addend: 0x0, symName: __ZNSt3__117__compressed_pairIPNS_12basic_stringIcNS_11char_traitsIcEENS_9allocatorIcEEEENS4_IS6_EEEC1B7v160006IDnNS_18__default_init_tagEEEOT_OT0_, symObjAddr: 0x7A00, symBinAddr: 0x10002D920, symSize: 0x3C }
  - { offsetInCU: 0x15A0E, offset: 0x707BA, size: 0x8, addend: 0x0, symName: __ZNSt3__16vectorINS_12basic_stringIcNS_11char_traitsIcEENS_9allocatorIcEEEENS4_IS6_EEE16__destroy_vectorC1ERS8_, symObjAddr: 0x7A7C, symBinAddr: 0x10002D99C, symSize: 0x34 }
  - { offsetInCU: 0x15A47, offset: 0x707F3, size: 0x8, addend: 0x0, symName: __ZNKSt16initializer_listINSt3__112basic_stringIcNS0_11char_traitsIcEENS0_9allocatorIcEEEEE4sizeB7v160006Ev, symObjAddr: 0x7AC0, symBinAddr: 0x10002D9E0, symSize: 0x18 }
  - { offsetInCU: 0x15A6D, offset: 0x70819, size: 0x8, addend: 0x0, symName: __ZNSt3__16vectorINS_12basic_stringIcNS_11char_traitsIcEENS_9allocatorIcEEEENS4_IS6_EEE11__vallocateB7v160006Em, symObjAddr: 0x7AD8, symBinAddr: 0x10002D9F8, symSize: 0xB4 }
  - { offsetInCU: 0x15AB1, offset: 0x7085D, size: 0x8, addend: 0x0, symName: __ZNSt3__16vectorINS_12basic_stringIcNS_11char_traitsIcEENS_9allocatorIcEEEENS4_IS6_EEE18__construct_at_endIPKS6_Li0EEEvT_SC_m, symObjAddr: 0x7B8C, symBinAddr: 0x10002DAAC, symSize: 0x8C }
  - { offsetInCU: 0x15B24, offset: 0x708D0, size: 0x8, addend: 0x0, symName: __ZNKSt16initializer_listINSt3__112basic_stringIcNS0_11char_traitsIcEENS0_9allocatorIcEEEEE5beginB7v160006Ev, symObjAddr: 0x7C18, symBinAddr: 0x10002DB38, symSize: 0x18 }
  - { offsetInCU: 0x15B4A, offset: 0x708F6, size: 0x8, addend: 0x0, symName: __ZNKSt16initializer_listINSt3__112basic_stringIcNS0_11char_traitsIcEENS0_9allocatorIcEEEEE3endB7v160006Ev, symObjAddr: 0x7C30, symBinAddr: 0x10002DB50, symSize: 0x28 }
  - { offsetInCU: 0x15B70, offset: 0x7091C, size: 0x8, addend: 0x0, symName: __ZNSt3__128__exception_guard_exceptionsINS_6vectorINS_12basic_stringIcNS_11char_traitsIcEENS_9allocatorIcEEEENS5_IS7_EEE16__destroy_vectorEE10__completeB7v160006Ev, symObjAddr: 0x7C58, symBinAddr: 0x10002DB78, symSize: 0x1C }
  - { offsetInCU: 0x15B96, offset: 0x70942, size: 0x8, addend: 0x0, symName: __ZNSt3__128__exception_guard_exceptionsINS_6vectorINS_12basic_stringIcNS_11char_traitsIcEENS_9allocatorIcEEEENS5_IS7_EEE16__destroy_vectorEED1B7v160006Ev, symObjAddr: 0x7C74, symBinAddr: 0x10002DB94, symSize: 0x2C }
  - { offsetInCU: 0x15BC0, offset: 0x7096C, size: 0x8, addend: 0x0, symName: __ZNSt3__117__compressed_pairIPNS_12basic_stringIcNS_11char_traitsIcEENS_9allocatorIcEEEENS4_IS6_EEEC2B7v160006IDnNS_18__default_init_tagEEEOT_OT0_, symObjAddr: 0x7CA0, symBinAddr: 0x10002DBC0, symSize: 0x40 }
  - { offsetInCU: 0x15C18, offset: 0x709C4, size: 0x8, addend: 0x0, symName: __ZNSt3__122__compressed_pair_elemIPNS_12basic_stringIcNS_11char_traitsIcEENS_9allocatorIcEEEELi0ELb0EEC2B7v160006IDnvEEOT_, symObjAddr: 0x7CE0, symBinAddr: 0x10002DC00, symSize: 0x1C }
  - { offsetInCU: 0x15C5A, offset: 0x70A06, size: 0x8, addend: 0x0, symName: __ZNSt3__122__compressed_pair_elemINS_9allocatorINS_12basic_stringIcNS_11char_traitsIcEENS1_IcEEEEEELi1ELb1EEC2B7v160006ENS_18__default_init_tagE, symObjAddr: 0x7CFC, symBinAddr: 0x10002DC1C, symSize: 0x2C }
  - { offsetInCU: 0x15C8F, offset: 0x70A3B, size: 0x8, addend: 0x0, symName: __ZNSt3__19allocatorINS_12basic_stringIcNS_11char_traitsIcEENS0_IcEEEEEC2B7v160006Ev, symObjAddr: 0x7D28, symBinAddr: 0x10002DC48, symSize: 0x2C }
  - { offsetInCU: 0x15CB9, offset: 0x70A65, size: 0x8, addend: 0x0, symName: __ZNSt3__116__non_trivial_ifILb1ENS_9allocatorINS_12basic_stringIcNS_11char_traitsIcEENS1_IcEEEEEEEC2B7v160006Ev, symObjAddr: 0x7D54, symBinAddr: 0x10002DC74, symSize: 0x14 }
  - { offsetInCU: 0x15CE3, offset: 0x70A8F, size: 0x8, addend: 0x0, symName: __ZNSt3__128__exception_guard_exceptionsINS_6vectorINS_12basic_stringIcNS_11char_traitsIcEENS_9allocatorIcEEEENS5_IS7_EEE16__destroy_vectorEEC1B7v160006ESA_, symObjAddr: 0x7D68, symBinAddr: 0x10002DC88, symSize: 0x34 }
  - { offsetInCU: 0x15D1B, offset: 0x70AC7, size: 0x8, addend: 0x0, symName: __ZNSt3__128__exception_guard_exceptionsINS_6vectorINS_12basic_stringIcNS_11char_traitsIcEENS_9allocatorIcEEEENS5_IS7_EEE16__destroy_vectorEEC2B7v160006ESA_, symObjAddr: 0x7D9C, symBinAddr: 0x10002DCBC, symSize: 0x24 }
  - { offsetInCU: 0x15D53, offset: 0x70AFF, size: 0x8, addend: 0x0, symName: __ZNSt3__16vectorINS_12basic_stringIcNS_11char_traitsIcEENS_9allocatorIcEEEENS4_IS6_EEE16__destroy_vectorC2ERS8_, symObjAddr: 0x7DC0, symBinAddr: 0x10002DCE0, symSize: 0x20 }
  - { offsetInCU: 0x15D8C, offset: 0x70B38, size: 0x8, addend: 0x0, symName: __ZNKSt3__16vectorINS_12basic_stringIcNS_11char_traitsIcEENS_9allocatorIcEEEENS4_IS6_EEE8max_sizeEv, symObjAddr: 0x7DE0, symBinAddr: 0x10002DD00, symSize: 0x60 }
  - { offsetInCU: 0x15DB4, offset: 0x70B60, size: 0x8, addend: 0x0, symName: __ZNKSt3__16vectorINS_12basic_stringIcNS_11char_traitsIcEENS_9allocatorIcEEEENS4_IS6_EEE20__throw_length_errorB7v160006Ev, symObjAddr: 0x7E40, symBinAddr: 0x10002DD60, symSize: 0x1C }
  - { offsetInCU: 0x15DDA, offset: 0x70B86, size: 0x8, addend: 0x0, symName: __ZNSt3__16vectorINS_12basic_stringIcNS_11char_traitsIcEENS_9allocatorIcEEEENS4_IS6_EEE7__allocB7v160006Ev, symObjAddr: 0x7E9C, symBinAddr: 0x10002DDBC, symSize: 0x28 }
  - { offsetInCU: 0x15E00, offset: 0x70BAC, size: 0x8, addend: 0x0, symName: __ZNSt3__16vectorINS_12basic_stringIcNS_11char_traitsIcEENS_9allocatorIcEEEENS4_IS6_EEE9__end_capB7v160006Ev, symObjAddr: 0x7EC4, symBinAddr: 0x10002DDE4, symSize: 0x28 }
  - { offsetInCU: 0x15E26, offset: 0x70BD2, size: 0x8, addend: 0x0, symName: __ZNKSt3__16vectorINS_12basic_stringIcNS_11char_traitsIcEENS_9allocatorIcEEEENS4_IS6_EEE14__annotate_newB7v160006Em, symObjAddr: 0x7EEC, symBinAddr: 0x10002DE0C, symSize: 0xC8 }
  - { offsetInCU: 0x15E65, offset: 0x70C11, size: 0x8, addend: 0x0, symName: __ZNSt3__116allocator_traitsINS_9allocatorINS_12basic_stringIcNS_11char_traitsIcEENS1_IcEEEEEEE8max_sizeB7v160006IS7_vvEEmRKS7_, symObjAddr: 0x7FB4, symBinAddr: 0x10002DED4, symSize: 0x28 }
  - { offsetInCU: 0x15E91, offset: 0x70C3D, size: 0x8, addend: 0x0, symName: __ZNKSt3__16vectorINS_12basic_stringIcNS_11char_traitsIcEENS_9allocatorIcEEEENS4_IS6_EEE7__allocB7v160006Ev, symObjAddr: 0x7FDC, symBinAddr: 0x10002DEFC, symSize: 0x28 }
  - { offsetInCU: 0x15EB7, offset: 0x70C63, size: 0x8, addend: 0x0, symName: __ZNKSt3__117__compressed_pairIPNS_12basic_stringIcNS_11char_traitsIcEENS_9allocatorIcEEEENS4_IS6_EEE6secondB7v160006Ev, symObjAddr: 0x8004, symBinAddr: 0x10002DF24, symSize: 0x24 }
  - { offsetInCU: 0x15EDD, offset: 0x70C89, size: 0x8, addend: 0x0, symName: __ZNKSt3__122__compressed_pair_elemINS_9allocatorINS_12basic_stringIcNS_11char_traitsIcEENS1_IcEEEEEELi1ELb1EE5__getB7v160006Ev, symObjAddr: 0x8028, symBinAddr: 0x10002DF48, symSize: 0x14 }
  - { offsetInCU: 0x15F03, offset: 0x70CAF, size: 0x8, addend: 0x0, symName: __ZNSt3__19allocatorINS_12basic_stringIcNS_11char_traitsIcEENS0_IcEEEEE8allocateB7v160006Em, symObjAddr: 0x803C, symBinAddr: 0x10002DF5C, symSize: 0x5C }
  - { offsetInCU: 0x15F37, offset: 0x70CE3, size: 0x8, addend: 0x0, symName: __ZNSt3__117__compressed_pairIPNS_12basic_stringIcNS_11char_traitsIcEENS_9allocatorIcEEEENS4_IS6_EEE6secondB7v160006Ev, symObjAddr: 0x8098, symBinAddr: 0x10002DFB8, symSize: 0x24 }
  - { offsetInCU: 0x15F5D, offset: 0x70D09, size: 0x8, addend: 0x0, symName: __ZNSt3__122__compressed_pair_elemINS_9allocatorINS_12basic_stringIcNS_11char_traitsIcEENS1_IcEEEEEELi1ELb1EE5__getB7v160006Ev, symObjAddr: 0x80BC, symBinAddr: 0x10002DFDC, symSize: 0x14 }
  - { offsetInCU: 0x15F83, offset: 0x70D2F, size: 0x8, addend: 0x0, symName: __ZNSt3__117__compressed_pairIPNS_12basic_stringIcNS_11char_traitsIcEENS_9allocatorIcEEEENS4_IS6_EEE5firstB7v160006Ev, symObjAddr: 0x80D0, symBinAddr: 0x10002DFF0, symSize: 0x24 }
  - { offsetInCU: 0x15FA9, offset: 0x70D55, size: 0x8, addend: 0x0, symName: __ZNSt3__122__compressed_pair_elemIPNS_12basic_stringIcNS_11char_traitsIcEENS_9allocatorIcEEEELi0ELb0EE5__getB7v160006Ev, symObjAddr: 0x80F4, symBinAddr: 0x10002E014, symSize: 0x14 }
  - { offsetInCU: 0x15FCF, offset: 0x70D7B, size: 0x8, addend: 0x0, symName: __ZNKSt3__16vectorINS_12basic_stringIcNS_11char_traitsIcEENS_9allocatorIcEEEENS4_IS6_EEE31__annotate_contiguous_containerB7v160006EPKvSA_SA_SA_, symObjAddr: 0x8108, symBinAddr: 0x10002E028, symSize: 0x20 }
  - { offsetInCU: 0x16025, offset: 0x70DD1, size: 0x8, addend: 0x0, symName: __ZNKSt3__16vectorINS_12basic_stringIcNS_11char_traitsIcEENS_9allocatorIcEEEENS4_IS6_EEE4dataB7v160006Ev, symObjAddr: 0x8128, symBinAddr: 0x10002E048, symSize: 0x28 }
  - { offsetInCU: 0x1604B, offset: 0x70DF7, size: 0x8, addend: 0x0, symName: __ZNKSt3__16vectorINS_12basic_stringIcNS_11char_traitsIcEENS_9allocatorIcEEEENS4_IS6_EEE8capacityB7v160006Ev, symObjAddr: 0x8150, symBinAddr: 0x10002E070, symSize: 0x40 }
  - { offsetInCU: 0x16071, offset: 0x70E1D, size: 0x8, addend: 0x0, symName: __ZNKSt3__16vectorINS_12basic_stringIcNS_11char_traitsIcEENS_9allocatorIcEEEENS4_IS6_EEE9__end_capB7v160006Ev, symObjAddr: 0x81A4, symBinAddr: 0x10002E0C4, symSize: 0x28 }
  - { offsetInCU: 0x16097, offset: 0x70E43, size: 0x8, addend: 0x0, symName: __ZNKSt3__117__compressed_pairIPNS_12basic_stringIcNS_11char_traitsIcEENS_9allocatorIcEEEENS4_IS6_EEE5firstB7v160006Ev, symObjAddr: 0x81CC, symBinAddr: 0x10002E0EC, symSize: 0x24 }
  - { offsetInCU: 0x160BD, offset: 0x70E69, size: 0x8, addend: 0x0, symName: __ZNKSt3__122__compressed_pair_elemIPNS_12basic_stringIcNS_11char_traitsIcEENS_9allocatorIcEEEELi0ELb0EE5__getB7v160006Ev, symObjAddr: 0x81F0, symBinAddr: 0x10002E110, symSize: 0x14 }
  - { offsetInCU: 0x160FC, offset: 0x70EA8, size: 0x8, addend: 0x0, symName: __ZNSt3__16vectorINS_12basic_stringIcNS_11char_traitsIcEENS_9allocatorIcEEEENS4_IS6_EEE21_ConstructTransactionC1B7v160006ERS8_m, symObjAddr: 0x8204, symBinAddr: 0x10002E124, symSize: 0x3C }
  - { offsetInCU: 0x16144, offset: 0x70EF0, size: 0x8, addend: 0x0, symName: __ZNSt3__16vectorINS_12basic_stringIcNS_11char_traitsIcEENS_9allocatorIcEEEENS4_IS6_EEE21_ConstructTransactionD1B7v160006Ev, symObjAddr: 0x8334, symBinAddr: 0x10002E254, symSize: 0x2C }
  - { offsetInCU: 0x1616E, offset: 0x70F1A, size: 0x8, addend: 0x0, symName: __ZNSt3__16vectorINS_12basic_stringIcNS_11char_traitsIcEENS_9allocatorIcEEEENS4_IS6_EEE21_ConstructTransactionC2B7v160006ERS8_m, symObjAddr: 0x8360, symBinAddr: 0x10002E280, symSize: 0x4C }
  - { offsetInCU: 0x161B6, offset: 0x70F62, size: 0x8, addend: 0x0, symName: __ZNSt3__129_AllocatorDestroyRangeReverseINS_9allocatorINS_12basic_stringIcNS_11char_traitsIcEENS1_IcEEEEEEPS6_EC1B7v160006ERS7_RS8_SB_, symObjAddr: 0x83F8, symBinAddr: 0x10002E318, symSize: 0x44 }
  - { offsetInCU: 0x1620D, offset: 0x70FB9, size: 0x8, addend: 0x0, symName: __ZNSt3__116allocator_traitsINS_9allocatorINS_12basic_stringIcNS_11char_traitsIcEENS1_IcEEEEEEE9constructB7v160006IS6_JRKS6_EvvEEvRS7_PT_DpOT0_, symObjAddr: 0x843C, symBinAddr: 0x10002E35C, symSize: 0x30 }
  - { offsetInCU: 0x16262, offset: 0x7100E, size: 0x8, addend: 0x0, symName: __ZNSt3__128__exception_guard_exceptionsINS_29_AllocatorDestroyRangeReverseINS_9allocatorINS_12basic_stringIcNS_11char_traitsIcEENS2_IcEEEEEEPS7_EEE10__completeB7v160006Ev, symObjAddr: 0x846C, symBinAddr: 0x10002E38C, symSize: 0x1C }
  - { offsetInCU: 0x16288, offset: 0x71034, size: 0x8, addend: 0x0, symName: __ZNSt3__128__exception_guard_exceptionsINS_29_AllocatorDestroyRangeReverseINS_9allocatorINS_12basic_stringIcNS_11char_traitsIcEENS2_IcEEEEEEPS7_EEED1B7v160006Ev, symObjAddr: 0x8488, symBinAddr: 0x10002E3A8, symSize: 0x2C }
  - { offsetInCU: 0x162B2, offset: 0x7105E, size: 0x8, addend: 0x0, symName: __ZNSt3__128__exception_guard_exceptionsINS_29_AllocatorDestroyRangeReverseINS_9allocatorINS_12basic_stringIcNS_11char_traitsIcEENS2_IcEEEEEEPS7_EEEC1B7v160006ESA_, symObjAddr: 0x84B4, symBinAddr: 0x10002E3D4, symSize: 0x34 }
  - { offsetInCU: 0x162EB, offset: 0x71097, size: 0x8, addend: 0x0, symName: __ZNSt3__128__exception_guard_exceptionsINS_29_AllocatorDestroyRangeReverseINS_9allocatorINS_12basic_stringIcNS_11char_traitsIcEENS2_IcEEEEEEPS7_EEEC2B7v160006ESA_, symObjAddr: 0x84E8, symBinAddr: 0x10002E408, symSize: 0x30 }
  - { offsetInCU: 0x16324, offset: 0x710D0, size: 0x8, addend: 0x0, symName: __ZNSt3__129_AllocatorDestroyRangeReverseINS_9allocatorINS_12basic_stringIcNS_11char_traitsIcEENS1_IcEEEEEEPS6_EC2B7v160006ERS7_RS8_SB_, symObjAddr: 0x8518, symBinAddr: 0x10002E438, symSize: 0x38 }
  - { offsetInCU: 0x1637B, offset: 0x71127, size: 0x8, addend: 0x0, symName: __ZNSt3__128__exception_guard_exceptionsINS_29_AllocatorDestroyRangeReverseINS_9allocatorINS_12basic_stringIcNS_11char_traitsIcEENS2_IcEEEEEEPS7_EEED2B7v160006Ev, symObjAddr: 0x858C, symBinAddr: 0x10002E4AC, symSize: 0x50 }
  - { offsetInCU: 0x163A5, offset: 0x71151, size: 0x8, addend: 0x0, symName: __ZNKSt3__129_AllocatorDestroyRangeReverseINS_9allocatorINS_12basic_stringIcNS_11char_traitsIcEENS1_IcEEEEEEPS6_EclB7v160006Ev, symObjAddr: 0x85DC, symBinAddr: 0x10002E4FC, symSize: 0x68 }
  - { offsetInCU: 0x163CB, offset: 0x71177, size: 0x8, addend: 0x0, symName: __ZNSt3__116reverse_iteratorIPNS_12basic_stringIcNS_11char_traitsIcEENS_9allocatorIcEEEEEC1B7v160006ES7_, symObjAddr: 0x86B4, symBinAddr: 0x10002E5D4, symSize: 0x34 }
  - { offsetInCU: 0x16403, offset: 0x711AF, size: 0x8, addend: 0x0, symName: __ZNSt3__116allocator_traitsINS_9allocatorINS_12basic_stringIcNS_11char_traitsIcEENS1_IcEEEEEEE7destroyB7v160006IS6_vvEEvRS7_PT_, symObjAddr: 0x8730, symBinAddr: 0x10002E650, symSize: 0x28 }
  - { offsetInCU: 0x1643E, offset: 0x711EA, size: 0x8, addend: 0x0, symName: __ZNSt3__116reverse_iteratorIPNS_12basic_stringIcNS_11char_traitsIcEENS_9allocatorIcEEEEEppB7v160006Ev, symObjAddr: 0x877C, symBinAddr: 0x10002E69C, symSize: 0x20 }
  - { offsetInCU: 0x16464, offset: 0x71210, size: 0x8, addend: 0x0, symName: __ZNKSt3__116reverse_iteratorIPNS_12basic_stringIcNS_11char_traitsIcEENS_9allocatorIcEEEEE4baseB7v160006Ev, symObjAddr: 0x879C, symBinAddr: 0x10002E6BC, symSize: 0x18 }
  - { offsetInCU: 0x1648F, offset: 0x7123B, size: 0x8, addend: 0x0, symName: __ZNSt3__119__to_address_helperINS_16reverse_iteratorIPNS_12basic_stringIcNS_11char_traitsIcEENS_9allocatorIcEEEEEEvE6__callB7v160006ERKS9_, symObjAddr: 0x87FC, symBinAddr: 0x10002E71C, symSize: 0x38 }
  - { offsetInCU: 0x164B2, offset: 0x7125E, size: 0x8, addend: 0x0, symName: __ZNKSt3__116reverse_iteratorIPNS_12basic_stringIcNS_11char_traitsIcEENS_9allocatorIcEEEEEptB7v160006Ev, symObjAddr: 0x8834, symBinAddr: 0x10002E754, symSize: 0x2C }
  - { offsetInCU: 0x164D8, offset: 0x71284, size: 0x8, addend: 0x0, symName: __ZNSt3__116reverse_iteratorIPNS_12basic_stringIcNS_11char_traitsIcEENS_9allocatorIcEEEEEC2B7v160006ES7_, symObjAddr: 0x8930, symBinAddr: 0x10002E850, symSize: 0x28 }
  - { offsetInCU: 0x16510, offset: 0x712BC, size: 0x8, addend: 0x0, symName: __ZNSt3__16vectorINS_12basic_stringIcNS_11char_traitsIcEENS_9allocatorIcEEEENS4_IS6_EEE21_ConstructTransactionD2B7v160006Ev, symObjAddr: 0x8958, symBinAddr: 0x10002E878, symSize: 0x20 }
  - { offsetInCU: 0x1653A, offset: 0x712E6, size: 0x8, addend: 0x0, symName: __ZNSt3__128__exception_guard_exceptionsINS_6vectorINS_12basic_stringIcNS_11char_traitsIcEENS_9allocatorIcEEEENS5_IS7_EEE16__destroy_vectorEED2B7v160006Ev, symObjAddr: 0x8978, symBinAddr: 0x10002E898, symSize: 0x50 }
  - { offsetInCU: 0x16564, offset: 0x71310, size: 0x8, addend: 0x0, symName: __ZNSt3__16vectorINS_12basic_stringIcNS_11char_traitsIcEENS_9allocatorIcEEEENS4_IS6_EEE16__destroy_vectorclB7v160006Ev, symObjAddr: 0x89C8, symBinAddr: 0x10002E8E8, symSize: 0x9C }
  - { offsetInCU: 0x1658A, offset: 0x71336, size: 0x8, addend: 0x0, symName: __ZNKSt3__16vectorINS_12basic_stringIcNS_11char_traitsIcEENS_9allocatorIcEEEENS4_IS6_EEE17__annotate_deleteB7v160006Ev, symObjAddr: 0x8A64, symBinAddr: 0x10002E984, symSize: 0xD4 }
  - { offsetInCU: 0x165B0, offset: 0x7135C, size: 0x8, addend: 0x0, symName: __ZNSt3__16vectorINS_12basic_stringIcNS_11char_traitsIcEENS_9allocatorIcEEEENS4_IS6_EEE7__clearB7v160006Ev, symObjAddr: 0x8B48, symBinAddr: 0x10002EA68, symSize: 0x28 }
  - { offsetInCU: 0x165D6, offset: 0x71382, size: 0x8, addend: 0x0, symName: __ZNSt3__116allocator_traitsINS_9allocatorINS_12basic_stringIcNS_11char_traitsIcEENS1_IcEEEEEEE10deallocateB7v160006ERS7_PS6_m, symObjAddr: 0x8B70, symBinAddr: 0x10002EA90, symSize: 0x34 }
  - { offsetInCU: 0x16618, offset: 0x713C4, size: 0x8, addend: 0x0, symName: __ZNKSt3__16vectorINS_12basic_stringIcNS_11char_traitsIcEENS_9allocatorIcEEEENS4_IS6_EEE4sizeB7v160006Ev, symObjAddr: 0x8BA4, symBinAddr: 0x10002EAC4, symSize: 0x28 }
  - { offsetInCU: 0x1663E, offset: 0x713EA, size: 0x8, addend: 0x0, symName: __ZNSt3__16vectorINS_12basic_stringIcNS_11char_traitsIcEENS_9allocatorIcEEEENS4_IS6_EEE22__base_destruct_at_endB7v160006EPS6_, symObjAddr: 0x8BCC, symBinAddr: 0x10002EAEC, symSize: 0x8C }
  - { offsetInCU: 0x16682, offset: 0x7142E, size: 0x8, addend: 0x0, symName: __ZNSt3__19allocatorINS_12basic_stringIcNS_11char_traitsIcEENS0_IcEEEEE10deallocateB7v160006EPS5_m, symObjAddr: 0x8C58, symBinAddr: 0x10002EB78, symSize: 0x44 }
  - { offsetInCU: 0x166C4, offset: 0x71470, size: 0x8, addend: 0x0, symName: __ZNSt3__16vectorINS_12basic_stringIcNS_11char_traitsIcEENS_9allocatorIcEEEENS4_IS6_EEE11__make_iterB7v160006EPS6_, symObjAddr: 0x8C9C, symBinAddr: 0x10002EBBC, symSize: 0x34 }
  - { offsetInCU: 0x166F9, offset: 0x714A5, size: 0x8, addend: 0x0, symName: __ZNSt3__111__wrap_iterIPNS_12basic_stringIcNS_11char_traitsIcEENS_9allocatorIcEEEEEC1B7v160006EPKvS7_, symObjAddr: 0x8CD0, symBinAddr: 0x10002EBF0, symSize: 0x3C }
  - { offsetInCU: 0x1673F, offset: 0x714EB, size: 0x8, addend: 0x0, symName: __ZNSt3__111__wrap_iterIPNS_12basic_stringIcNS_11char_traitsIcEENS_9allocatorIcEEEEEC2B7v160006EPKvS7_, symObjAddr: 0x8D0C, symBinAddr: 0x10002EC2C, symSize: 0x24 }
  - { offsetInCU: 0x16785, offset: 0x71531, size: 0x8, addend: 0x0, symName: __ZNKSt3__111__wrap_iterIPNS_12basic_stringIcNS_11char_traitsIcEENS_9allocatorIcEEEEE4baseB7v160006Ev, symObjAddr: 0x8D78, symBinAddr: 0x10002EC98, symSize: 0x18 }
  - { offsetInCU: 0x167B0, offset: 0x7155C, size: 0x8, addend: 0x0, symName: __ZNSt3__16vectorI8TimeSlotNS_9allocatorIS1_EEE22__construct_one_at_endB7v160006IJS1_EEEvDpOT_, symObjAddr: 0x9390, symBinAddr: 0x10002ED60, symSize: 0x90 }
  - { offsetInCU: 0x167FF, offset: 0x715AB, size: 0x8, addend: 0x0, symName: __ZNSt3__16vectorI8TimeSlotNS_9allocatorIS1_EEE21__push_back_slow_pathIS1_EEvOT_, symObjAddr: 0x9420, symBinAddr: 0x10002EDF0, symSize: 0xD8 }
  - { offsetInCU: 0x16880, offset: 0x7162C, size: 0x8, addend: 0x0, symName: __ZNSt3__16vectorINS_12basic_stringIcNS_11char_traitsIcEENS_9allocatorIcEEEENS4_IS6_EEED2B7v160006Ev, symObjAddr: 0xACE4, symBinAddr: 0x10002EEC8, symSize: 0x44 }
  - { offsetInCU: 0x168AA, offset: 0x71656, size: 0x8, addend: 0x0, symName: __ZNSt3__16vectorI6ModuleNS_9allocatorIS1_EEE9__end_capB7v160006Ev, symObjAddr: 0xAD28, symBinAddr: 0x10002EF0C, symSize: 0x28 }
  - { offsetInCU: 0x168D5, offset: 0x71681, size: 0x8, addend: 0x0, symName: __ZNSt3__16vectorI6ModuleNS_9allocatorIS1_EEE22__construct_one_at_endB7v160006IJS1_EEEvDpOT_, symObjAddr: 0xAD50, symBinAddr: 0x10002EF34, symSize: 0x90 }
  - { offsetInCU: 0x16924, offset: 0x716D0, size: 0x8, addend: 0x0, symName: __ZNSt3__16vectorI6ModuleNS_9allocatorIS1_EEE21__push_back_slow_pathIS1_EEvOT_, symObjAddr: 0xADE0, symBinAddr: 0x10002EFC4, symSize: 0xD8 }
  - { offsetInCU: 0x16982, offset: 0x7172E, size: 0x8, addend: 0x0, symName: __ZNSt3__117__compressed_pairIP6ModuleNS_9allocatorIS1_EEE5firstB7v160006Ev, symObjAddr: 0xAEB8, symBinAddr: 0x10002F09C, symSize: 0x24 }
  - { offsetInCU: 0x169A8, offset: 0x71754, size: 0x8, addend: 0x0, symName: __ZNSt3__122__compressed_pair_elemIP6ModuleLi0ELb0EE5__getB7v160006Ev, symObjAddr: 0xAEDC, symBinAddr: 0x10002F0C0, symSize: 0x14 }
  - { offsetInCU: 0x169E7, offset: 0x71793, size: 0x8, addend: 0x0, symName: __ZNSt3__16vectorI6ModuleNS_9allocatorIS1_EEE21_ConstructTransactionC1B7v160006ERS4_m, symObjAddr: 0xAEF0, symBinAddr: 0x10002F0D4, symSize: 0x3C }
  - { offsetInCU: 0x16A2F, offset: 0x717DB, size: 0x8, addend: 0x0, symName: __ZNSt3__116allocator_traitsINS_9allocatorI6ModuleEEE9constructB7v160006IS2_JS2_EvvEEvRS3_PT_DpOT0_, symObjAddr: 0xAF2C, symBinAddr: 0x10002F110, symSize: 0x30 }
  - { offsetInCU: 0x16A84, offset: 0x71830, size: 0x8, addend: 0x0, symName: __ZNSt3__16vectorI6ModuleNS_9allocatorIS1_EEE21_ConstructTransactionD1B7v160006Ev, symObjAddr: 0xAF98, symBinAddr: 0x10002F140, symSize: 0x2C }
  - { offsetInCU: 0x16AAE, offset: 0x7185A, size: 0x8, addend: 0x0, symName: __ZNSt3__16vectorI6ModuleNS_9allocatorIS1_EEE21_ConstructTransactionC2B7v160006ERS4_m, symObjAddr: 0xAFC4, symBinAddr: 0x10002F16C, symSize: 0x4C }
  - { offsetInCU: 0x16AF6, offset: 0x718A2, size: 0x8, addend: 0x0, symName: __ZNSt3__16vectorI6ModuleNS_9allocatorIS1_EEE21_ConstructTransactionD2B7v160006Ev, symObjAddr: 0xB120, symBinAddr: 0x10002F1F4, symSize: 0x20 }
  - { offsetInCU: 0x16B20, offset: 0x718CC, size: 0x8, addend: 0x0, symName: __ZNKSt3__16vectorI6ModuleNS_9allocatorIS1_EEE11__recommendB7v160006Em, symObjAddr: 0xB140, symBinAddr: 0x10002F214, symSize: 0xB4 }
  - { offsetInCU: 0x16B75, offset: 0x71921, size: 0x8, addend: 0x0, symName: __ZNSt3__114__split_bufferI6ModuleRNS_9allocatorIS1_EEEC1EmmS4_, symObjAddr: 0xB21C, symBinAddr: 0x10002F2C8, symSize: 0x44 }
  - { offsetInCU: 0x16BCB, offset: 0x71977, size: 0x8, addend: 0x0, symName: __ZNSt3__114__split_bufferI6ModuleRNS_9allocatorIS1_EEED1Ev, symObjAddr: 0xB378, symBinAddr: 0x10002F424, symSize: 0x2C }
  - { offsetInCU: 0x16BF7, offset: 0x719A3, size: 0x8, addend: 0x0, symName: __ZNKSt3__16vectorI6ModuleNS_9allocatorIS1_EEE8max_sizeEv, symObjAddr: 0xB3A4, symBinAddr: 0x10002F450, symSize: 0x60 }
  - { offsetInCU: 0x16C1F, offset: 0x719CB, size: 0x8, addend: 0x0, symName: __ZNKSt3__16vectorI6ModuleNS_9allocatorIS1_EEE20__throw_length_errorB7v160006Ev, symObjAddr: 0xB404, symBinAddr: 0x10002F4B0, symSize: 0x1C }
  - { offsetInCU: 0x16C4F, offset: 0x719FB, size: 0x8, addend: 0x0, symName: __ZNSt3__116allocator_traitsINS_9allocatorI6ModuleEEE8max_sizeB7v160006IS3_vvEEmRKS3_, symObjAddr: 0xB460, symBinAddr: 0x10002F4CC, symSize: 0x28 }
  - { offsetInCU: 0x16C7B, offset: 0x71A27, size: 0x8, addend: 0x0, symName: __ZNKSt3__16vectorI6ModuleNS_9allocatorIS1_EEE7__allocB7v160006Ev, symObjAddr: 0xB488, symBinAddr: 0x10002F4F4, symSize: 0x28 }
  - { offsetInCU: 0x16CA1, offset: 0x71A4D, size: 0x8, addend: 0x0, symName: __ZNKSt3__117__compressed_pairIP6ModuleNS_9allocatorIS1_EEE6secondB7v160006Ev, symObjAddr: 0xB4B0, symBinAddr: 0x10002F51C, symSize: 0x24 }
  - { offsetInCU: 0x16CC7, offset: 0x71A73, size: 0x8, addend: 0x0, symName: __ZNKSt3__122__compressed_pair_elemINS_9allocatorI6ModuleEELi1ELb1EE5__getB7v160006Ev, symObjAddr: 0xB4D4, symBinAddr: 0x10002F540, symSize: 0x14 }
  - { offsetInCU: 0x16CED, offset: 0x71A99, size: 0x8, addend: 0x0, symName: __ZNSt3__114__split_bufferI6ModuleRNS_9allocatorIS1_EEEC2EmmS4_, symObjAddr: 0xB548, symBinAddr: 0x10002F554, symSize: 0xE0 }
  - { offsetInCU: 0x16D60, offset: 0x71B0C, size: 0x8, addend: 0x0, symName: __ZNSt3__117__compressed_pairIP6ModuleRNS_9allocatorIS1_EEEC1B7v160006IDnS5_EEOT_OT0_, symObjAddr: 0xB628, symBinAddr: 0x10002F634, symSize: 0x3C }
  - { offsetInCU: 0x16DB8, offset: 0x71B64, size: 0x8, addend: 0x0, symName: __ZNSt3__114__split_bufferI6ModuleRNS_9allocatorIS1_EEE7__allocB7v160006Ev, symObjAddr: 0xB6A4, symBinAddr: 0x10002F6B0, symSize: 0x28 }
  - { offsetInCU: 0x16DDE, offset: 0x71B8A, size: 0x8, addend: 0x0, symName: __ZNSt3__114__split_bufferI6ModuleRNS_9allocatorIS1_EEE9__end_capB7v160006Ev, symObjAddr: 0xB6CC, symBinAddr: 0x10002F6D8, symSize: 0x28 }
  - { offsetInCU: 0x16E04, offset: 0x71BB0, size: 0x8, addend: 0x0, symName: __ZNSt3__117__compressed_pairIP6ModuleRNS_9allocatorIS1_EEEC2B7v160006IDnS5_EEOT_OT0_, symObjAddr: 0xB6F4, symBinAddr: 0x10002F700, symSize: 0x48 }
  - { offsetInCU: 0x16E5C, offset: 0x71C08, size: 0x8, addend: 0x0, symName: __ZNSt3__122__compressed_pair_elemIP6ModuleLi0ELb0EEC2B7v160006IDnvEEOT_, symObjAddr: 0xB73C, symBinAddr: 0x10002F748, symSize: 0x1C }
  - { offsetInCU: 0x16E9E, offset: 0x71C4A, size: 0x8, addend: 0x0, symName: __ZNSt3__122__compressed_pair_elemIRNS_9allocatorI6ModuleEELi1ELb0EEC2B7v160006IS4_vEEOT_, symObjAddr: 0xB758, symBinAddr: 0x10002F764, symSize: 0x20 }
  - { offsetInCU: 0x16EE0, offset: 0x71C8C, size: 0x8, addend: 0x0, symName: __ZNSt3__19allocatorI6ModuleE8allocateB7v160006Em, symObjAddr: 0xB778, symBinAddr: 0x10002F784, symSize: 0x5C }
  - { offsetInCU: 0x16F14, offset: 0x71CC0, size: 0x8, addend: 0x0, symName: __ZNSt3__117__compressed_pairIP6ModuleRNS_9allocatorIS1_EEE6secondB7v160006Ev, symObjAddr: 0xB7D4, symBinAddr: 0x10002F7E0, symSize: 0x28 }
  - { offsetInCU: 0x16F3A, offset: 0x71CE6, size: 0x8, addend: 0x0, symName: __ZNSt3__122__compressed_pair_elemIRNS_9allocatorI6ModuleEELi1ELb0EE5__getB7v160006Ev, symObjAddr: 0xB7FC, symBinAddr: 0x10002F808, symSize: 0x18 }
  - { offsetInCU: 0x16F60, offset: 0x71D0C, size: 0x8, addend: 0x0, symName: __ZNSt3__117__compressed_pairIP6ModuleRNS_9allocatorIS1_EEE5firstB7v160006Ev, symObjAddr: 0xB814, symBinAddr: 0x10002F820, symSize: 0x24 }
  - { offsetInCU: 0x16F86, offset: 0x71D32, size: 0x8, addend: 0x0, symName: __ZNSt3__116reverse_iteratorIP6ModuleEC1B7v160006ES2_, symObjAddr: 0xBA38, symBinAddr: 0x10002F970, symSize: 0x34 }
  - { offsetInCU: 0x16FBE, offset: 0x71D6A, size: 0x8, addend: 0x0, symName: __ZNKSt3__116reverse_iteratorIP6ModuleE4baseB7v160006Ev, symObjAddr: 0xBA6C, symBinAddr: 0x10002F9A4, symSize: 0x18 }
  - { offsetInCU: 0x16FE4, offset: 0x71D90, size: 0x8, addend: 0x0, symName: __ZNKSt3__16vectorI6ModuleNS_9allocatorIS1_EEE14__annotate_newB7v160006Em, symObjAddr: 0xBAC0, symBinAddr: 0x10002F9F8, symSize: 0xC8 }
  - { offsetInCU: 0x17019, offset: 0x71DC5, size: 0x8, addend: 0x0, symName: __ZNSt3__129_AllocatorDestroyRangeReverseINS_9allocatorI6ModuleEENS_16reverse_iteratorIPS2_EEEC1B7v160006ERS3_RS6_S9_, symObjAddr: 0xBC2C, symBinAddr: 0x10002FB1C, symSize: 0x44 }
  - { offsetInCU: 0x17070, offset: 0x71E1C, size: 0x8, addend: 0x0, symName: __ZNKSt3__116reverse_iteratorIP6ModuleEdeB7v160006Ev, symObjAddr: 0xBCDC, symBinAddr: 0x10002FBCC, symSize: 0x28 }
  - { offsetInCU: 0x170A5, offset: 0x71E51, size: 0x8, addend: 0x0, symName: __ZNSt3__116reverse_iteratorIP6ModuleEppB7v160006Ev, symObjAddr: 0xBD04, symBinAddr: 0x10002FBF4, symSize: 0x20 }
  - { offsetInCU: 0x170CB, offset: 0x71E77, size: 0x8, addend: 0x0, symName: __ZNSt3__128__exception_guard_exceptionsINS_29_AllocatorDestroyRangeReverseINS_9allocatorI6ModuleEENS_16reverse_iteratorIPS3_EEEEE10__completeB7v160006Ev, symObjAddr: 0xBD24, symBinAddr: 0x10002FC14, symSize: 0x1C }
  - { offsetInCU: 0x170F1, offset: 0x71E9D, size: 0x8, addend: 0x0, symName: __ZNSt3__128__exception_guard_exceptionsINS_29_AllocatorDestroyRangeReverseINS_9allocatorI6ModuleEENS_16reverse_iteratorIPS3_EEEEED1B7v160006Ev, symObjAddr: 0xBD40, symBinAddr: 0x10002FC30, symSize: 0x2C }
  - { offsetInCU: 0x1711B, offset: 0x71EC7, size: 0x8, addend: 0x0, symName: __ZNSt3__128__exception_guard_exceptionsINS_29_AllocatorDestroyRangeReverseINS_9allocatorI6ModuleEENS_16reverse_iteratorIPS3_EEEEEC1B7v160006ES8_, symObjAddr: 0xBD6C, symBinAddr: 0x10002FC5C, symSize: 0x34 }
  - { offsetInCU: 0x17154, offset: 0x71F00, size: 0x8, addend: 0x0, symName: __ZNSt3__128__exception_guard_exceptionsINS_29_AllocatorDestroyRangeReverseINS_9allocatorI6ModuleEENS_16reverse_iteratorIPS3_EEEEEC2B7v160006ES8_, symObjAddr: 0xBDA0, symBinAddr: 0x10002FC90, symSize: 0x30 }
  - { offsetInCU: 0x1718D, offset: 0x71F39, size: 0x8, addend: 0x0, symName: __ZNSt3__129_AllocatorDestroyRangeReverseINS_9allocatorI6ModuleEENS_16reverse_iteratorIPS2_EEEC2B7v160006ERS3_RS6_S9_, symObjAddr: 0xBDD0, symBinAddr: 0x10002FCC0, symSize: 0x38 }
  - { offsetInCU: 0x171E9, offset: 0x71F95, size: 0x8, addend: 0x0, symName: __ZNSt3__119__to_address_helperINS_16reverse_iteratorIP6ModuleEEvE6__callB7v160006ERKS4_, symObjAddr: 0xBE08, symBinAddr: 0x10002FCF8, symSize: 0x38 }
  - { offsetInCU: 0x1720C, offset: 0x71FB8, size: 0x8, addend: 0x0, symName: __ZNKSt3__116reverse_iteratorIP6ModuleEptB7v160006Ev, symObjAddr: 0xBE40, symBinAddr: 0x10002FD30, symSize: 0x2C }
  - { offsetInCU: 0x17232, offset: 0x71FDE, size: 0x8, addend: 0x0, symName: __ZNSt3__128__exception_guard_exceptionsINS_29_AllocatorDestroyRangeReverseINS_9allocatorI6ModuleEENS_16reverse_iteratorIPS3_EEEEED2B7v160006Ev, symObjAddr: 0xBF3C, symBinAddr: 0x10002FE2C, symSize: 0x50 }
  - { offsetInCU: 0x1725C, offset: 0x72008, size: 0x8, addend: 0x0, symName: __ZNKSt3__129_AllocatorDestroyRangeReverseINS_9allocatorI6ModuleEENS_16reverse_iteratorIPS2_EEEclB7v160006Ev, symObjAddr: 0xBF8C, symBinAddr: 0x10002FE7C, symSize: 0xB4 }
  - { offsetInCU: 0x17283, offset: 0x7202F, size: 0x8, addend: 0x0, symName: __ZNSt3__116reverse_iteratorINS0_IP6ModuleEEEC1B7v160006ES3_, symObjAddr: 0xC0B0, symBinAddr: 0x10002FFA0, symSize: 0x3C }
  - { offsetInCU: 0x172BB, offset: 0x72067, size: 0x8, addend: 0x0, symName: __ZNSt3__116reverse_iteratorINS0_IP6ModuleEEEppB7v160006Ev, symObjAddr: 0xC198, symBinAddr: 0x100030060, symSize: 0x30 }
  - { offsetInCU: 0x172E1, offset: 0x7208D, size: 0x8, addend: 0x0, symName: __ZNKSt3__116reverse_iteratorINS0_IP6ModuleEEE4baseB7v160006Ev, symObjAddr: 0xC1C8, symBinAddr: 0x100030090, symSize: 0x24 }
  - { offsetInCU: 0x1730C, offset: 0x720B8, size: 0x8, addend: 0x0, symName: __ZNSt3__119__to_address_helperINS_16reverse_iteratorINS1_IP6ModuleEEEEvE6__callB7v160006ERKS5_, symObjAddr: 0xC234, symBinAddr: 0x1000300B4, symSize: 0x38 }
  - { offsetInCU: 0x1732F, offset: 0x720DB, size: 0x8, addend: 0x0, symName: __ZNKSt3__116reverse_iteratorINS0_IP6ModuleEEEptB7v160006Ev, symObjAddr: 0xC26C, symBinAddr: 0x1000300EC, symSize: 0x4C }
  - { offsetInCU: 0x17355, offset: 0x72101, size: 0x8, addend: 0x0, symName: __ZNSt3__116reverse_iteratorIP6ModuleEpLB7v160006El, symObjAddr: 0xC394, symBinAddr: 0x100030214, symSize: 0x30 }
  - { offsetInCU: 0x17389, offset: 0x72135, size: 0x8, addend: 0x0, symName: __ZNSt3__116reverse_iteratorIP6ModuleEmmB7v160006Ev, symObjAddr: 0xC3C4, symBinAddr: 0x100030244, symSize: 0x20 }
  - { offsetInCU: 0x173AF, offset: 0x7215B, size: 0x8, addend: 0x0, symName: __ZNSt3__116reverse_iteratorINS0_IP6ModuleEEEC2B7v160006ES3_, symObjAddr: 0xC3E4, symBinAddr: 0x100030264, symSize: 0x2C }
  - { offsetInCU: 0x173E7, offset: 0x72193, size: 0x8, addend: 0x0, symName: __ZNSt3__116reverse_iteratorIP6ModuleEC2B7v160006ES2_, symObjAddr: 0xC410, symBinAddr: 0x100030290, symSize: 0x28 }
  - { offsetInCU: 0x1741F, offset: 0x721CB, size: 0x8, addend: 0x0, symName: __ZNSt3__114__split_bufferI6ModuleRNS_9allocatorIS1_EEED2Ev, symObjAddr: 0xC438, symBinAddr: 0x1000302B8, symSize: 0x8C }
  - { offsetInCU: 0x1744B, offset: 0x721F7, size: 0x8, addend: 0x0, symName: __ZNSt3__114__split_bufferI6ModuleRNS_9allocatorIS1_EEE5clearB7v160006Ev, symObjAddr: 0xC4C4, symBinAddr: 0x100030344, symSize: 0x28 }
  - { offsetInCU: 0x17471, offset: 0x7221D, size: 0x8, addend: 0x0, symName: __ZNKSt3__114__split_bufferI6ModuleRNS_9allocatorIS1_EEE8capacityB7v160006Ev, symObjAddr: 0xC520, symBinAddr: 0x10003036C, symSize: 0x40 }
  - { offsetInCU: 0x17497, offset: 0x72243, size: 0x8, addend: 0x0, symName: __ZNSt3__114__split_bufferI6ModuleRNS_9allocatorIS1_EEE17__destruct_at_endB7v160006EPS1_, symObjAddr: 0xC560, symBinAddr: 0x1000303AC, symSize: 0x2C }
  - { offsetInCU: 0x174CB, offset: 0x72277, size: 0x8, addend: 0x0, symName: __ZNSt3__114__split_bufferI6ModuleRNS_9allocatorIS1_EEE17__destruct_at_endB7v160006EPS1_NS_17integral_constantIbLb0EEE, symObjAddr: 0xC58C, symBinAddr: 0x1000303D8, symSize: 0x80 }
  - { offsetInCU: 0x1750C, offset: 0x722B8, size: 0x8, addend: 0x0, symName: __ZNKSt3__114__split_bufferI6ModuleRNS_9allocatorIS1_EEE9__end_capB7v160006Ev, symObjAddr: 0xC650, symBinAddr: 0x100030458, symSize: 0x28 }
  - { offsetInCU: 0x17532, offset: 0x722DE, size: 0x8, addend: 0x0, symName: __ZNKSt3__117__compressed_pairIP6ModuleRNS_9allocatorIS1_EEE5firstB7v160006Ev, symObjAddr: 0xC678, symBinAddr: 0x100030480, symSize: 0x24 }
  - { offsetInCU: 0x17558, offset: 0x72304, size: 0x8, addend: 0x0, symName: __ZNSt3__16vectorI5VenueNS_9allocatorIS1_EEE9__end_capB7v160006Ev, symObjAddr: 0xC6D8, symBinAddr: 0x1000304A4, symSize: 0x28 }
  - { offsetInCU: 0x17583, offset: 0x7232F, size: 0x8, addend: 0x0, symName: __ZNSt3__16vectorI5VenueNS_9allocatorIS1_EEE22__construct_one_at_endB7v160006IJS1_EEEvDpOT_, symObjAddr: 0xC700, symBinAddr: 0x1000304CC, symSize: 0x90 }
  - { offsetInCU: 0x175D2, offset: 0x7237E, size: 0x8, addend: 0x0, symName: __ZNSt3__16vectorI5VenueNS_9allocatorIS1_EEE21__push_back_slow_pathIS1_EEvOT_, symObjAddr: 0xC790, symBinAddr: 0x10003055C, symSize: 0xD8 }
  - { offsetInCU: 0x17630, offset: 0x723DC, size: 0x8, addend: 0x0, symName: __ZNSt3__117__compressed_pairIP5VenueNS_9allocatorIS1_EEE5firstB7v160006Ev, symObjAddr: 0xC868, symBinAddr: 0x100030634, symSize: 0x24 }
  - { offsetInCU: 0x17656, offset: 0x72402, size: 0x8, addend: 0x0, symName: __ZNSt3__122__compressed_pair_elemIP5VenueLi0ELb0EE5__getB7v160006Ev, symObjAddr: 0xC88C, symBinAddr: 0x100030658, symSize: 0x14 }
  - { offsetInCU: 0x17695, offset: 0x72441, size: 0x8, addend: 0x0, symName: __ZNSt3__16vectorI5VenueNS_9allocatorIS1_EEE21_ConstructTransactionC1B7v160006ERS4_m, symObjAddr: 0xC8A0, symBinAddr: 0x10003066C, symSize: 0x3C }
  - { offsetInCU: 0x176DD, offset: 0x72489, size: 0x8, addend: 0x0, symName: __ZNSt3__116allocator_traitsINS_9allocatorI5VenueEEE9constructB7v160006IS2_JS2_EvvEEvRS3_PT_DpOT0_, symObjAddr: 0xC8DC, symBinAddr: 0x1000306A8, symSize: 0x30 }
  - { offsetInCU: 0x17732, offset: 0x724DE, size: 0x8, addend: 0x0, symName: __ZNSt3__16vectorI5VenueNS_9allocatorIS1_EEE21_ConstructTransactionD1B7v160006Ev, symObjAddr: 0xC948, symBinAddr: 0x1000306D8, symSize: 0x2C }
  - { offsetInCU: 0x1775C, offset: 0x72508, size: 0x8, addend: 0x0, symName: __ZNSt3__16vectorI5VenueNS_9allocatorIS1_EEE21_ConstructTransactionC2B7v160006ERS4_m, symObjAddr: 0xC974, symBinAddr: 0x100030704, symSize: 0x4C }
  - { offsetInCU: 0x177A4, offset: 0x72550, size: 0x8, addend: 0x0, symName: __ZNSt3__16vectorI5VenueNS_9allocatorIS1_EEE21_ConstructTransactionD2B7v160006Ev, symObjAddr: 0xCAC4, symBinAddr: 0x10003078C, symSize: 0x20 }
  - { offsetInCU: 0x177CE, offset: 0x7257A, size: 0x8, addend: 0x0, symName: __ZNKSt3__16vectorI5VenueNS_9allocatorIS1_EEE11__recommendB7v160006Em, symObjAddr: 0xCAE4, symBinAddr: 0x1000307AC, symSize: 0xB4 }
  - { offsetInCU: 0x17823, offset: 0x725CF, size: 0x8, addend: 0x0, symName: __ZNSt3__114__split_bufferI5VenueRNS_9allocatorIS1_EEEC1EmmS4_, symObjAddr: 0xCBC0, symBinAddr: 0x100030860, symSize: 0x44 }
  - { offsetInCU: 0x17879, offset: 0x72625, size: 0x8, addend: 0x0, symName: __ZNSt3__114__split_bufferI5VenueRNS_9allocatorIS1_EEED1Ev, symObjAddr: 0xCD1C, symBinAddr: 0x1000309BC, symSize: 0x2C }
  - { offsetInCU: 0x178A5, offset: 0x72651, size: 0x8, addend: 0x0, symName: __ZNKSt3__16vectorI5VenueNS_9allocatorIS1_EEE8max_sizeEv, symObjAddr: 0xCD48, symBinAddr: 0x1000309E8, symSize: 0x60 }
  - { offsetInCU: 0x178CD, offset: 0x72679, size: 0x8, addend: 0x0, symName: __ZNKSt3__16vectorI5VenueNS_9allocatorIS1_EEE20__throw_length_errorB7v160006Ev, symObjAddr: 0xCDA8, symBinAddr: 0x100030A48, symSize: 0x1C }
  - { offsetInCU: 0x178FD, offset: 0x726A9, size: 0x8, addend: 0x0, symName: __ZNSt3__116allocator_traitsINS_9allocatorI5VenueEEE8max_sizeB7v160006IS3_vvEEmRKS3_, symObjAddr: 0xCE04, symBinAddr: 0x100030A64, symSize: 0x28 }
  - { offsetInCU: 0x17929, offset: 0x726D5, size: 0x8, addend: 0x0, symName: __ZNKSt3__16vectorI5VenueNS_9allocatorIS1_EEE7__allocB7v160006Ev, symObjAddr: 0xCE2C, symBinAddr: 0x100030A8C, symSize: 0x28 }
  - { offsetInCU: 0x1794F, offset: 0x726FB, size: 0x8, addend: 0x0, symName: __ZNKSt3__117__compressed_pairIP5VenueNS_9allocatorIS1_EEE6secondB7v160006Ev, symObjAddr: 0xCE54, symBinAddr: 0x100030AB4, symSize: 0x24 }
  - { offsetInCU: 0x17975, offset: 0x72721, size: 0x8, addend: 0x0, symName: __ZNKSt3__122__compressed_pair_elemINS_9allocatorI5VenueEELi1ELb1EE5__getB7v160006Ev, symObjAddr: 0xCE78, symBinAddr: 0x100030AD8, symSize: 0x14 }
  - { offsetInCU: 0x1799B, offset: 0x72747, size: 0x8, addend: 0x0, symName: __ZNSt3__114__split_bufferI5VenueRNS_9allocatorIS1_EEEC2EmmS4_, symObjAddr: 0xCEEC, symBinAddr: 0x100030AEC, symSize: 0xE0 }
  - { offsetInCU: 0x17A0E, offset: 0x727BA, size: 0x8, addend: 0x0, symName: __ZNSt3__117__compressed_pairIP5VenueRNS_9allocatorIS1_EEEC1B7v160006IDnS5_EEOT_OT0_, symObjAddr: 0xCFCC, symBinAddr: 0x100030BCC, symSize: 0x3C }
  - { offsetInCU: 0x17A66, offset: 0x72812, size: 0x8, addend: 0x0, symName: __ZNSt3__114__split_bufferI5VenueRNS_9allocatorIS1_EEE7__allocB7v160006Ev, symObjAddr: 0xD048, symBinAddr: 0x100030C48, symSize: 0x28 }
  - { offsetInCU: 0x17A8C, offset: 0x72838, size: 0x8, addend: 0x0, symName: __ZNSt3__114__split_bufferI5VenueRNS_9allocatorIS1_EEE9__end_capB7v160006Ev, symObjAddr: 0xD070, symBinAddr: 0x100030C70, symSize: 0x28 }
  - { offsetInCU: 0x17AB2, offset: 0x7285E, size: 0x8, addend: 0x0, symName: __ZNSt3__117__compressed_pairIP5VenueRNS_9allocatorIS1_EEEC2B7v160006IDnS5_EEOT_OT0_, symObjAddr: 0xD098, symBinAddr: 0x100030C98, symSize: 0x48 }
  - { offsetInCU: 0x17B0A, offset: 0x728B6, size: 0x8, addend: 0x0, symName: __ZNSt3__122__compressed_pair_elemIP5VenueLi0ELb0EEC2B7v160006IDnvEEOT_, symObjAddr: 0xD0E0, symBinAddr: 0x100030CE0, symSize: 0x1C }
